./ ADD NAME=$INDEX   0132-93185-94028-0904-00109-00068-00000-LAWCSC
* * * * * * * * * * * * * * * * * * * * * * * * * * * * * * * * * * * *

              REFERENCE INDEX for XDBS.SOFTWARE.CHANGES
             -------------------------------------------

    XDBS.SOFTWARE.CHANGES: Library for production maintenance and suppor

* * * * * * * * * * * * * * * * * * * * * * * * * * * * * * * * * * * *

   MEMBER    Description or purpose
  --------  ------------------------------------------------------------
  $INDEX    (THIS MEMBER) Describes members in this PDS.
  --------  ------------------------------------------------------------
  ABENDAID  WHAT WE DID FOR THE ABENDAID/DB2 FEATURE
  --------  ------------------------------------------------------------
  CSPD      Distribution SMP/E zone for CSP
  --------  ------------------------------------------------------------
  CSP370T   Base for CSP 370 product activity.
  --------  ------------------------------------------------------------
  CSPDSLST  CSP List of suffixes for the single image migration.
  --------  ------------------------------------------------------------
  CSPPRD    CSP PRODUCTION
  --------  ------------------------------------------------------------
  CSPDEV    CSP DEVELOPMENT
  --------  ------------------------------------------------------------
  CSPT      CSP TARGET FOR SMP/E WORK
  --------  ------------------------------------------------------------
  CSPX      CSP ON "X" ENVIRONMENT
  --------  ------------------------------------------------------------
  CSPE      CSP/370 Application Develpoment and Run-time Services
  --------  ------------------------------------------------------------
  CICSENTS  CICS CSD entries for DB2
  --------  ------------------------------------------------------------
  CICS2DB2  CICS V2.1.2 region for DB2 testing
  --------  ------------------------------------------------------------
  CICS3DB2  CICS V3.2.1 region for DB2 testing
  --------  ------------------------------------------------------------
  DBSDSLST  DATABASE SOFTWARE DATASET LIST FOR SINGLE IMAGE DIALOG
  --------  ------------------------------------------------------------
  DBSD      SMP/E DLIB for DB2 V2R2
  --------  ------------------------------------------------------------
  DBST      SMP/E target for DB2 V2R2
  --------  ------------------------------------------------------------
  DB2ATCH   DATABASE ATTACH
  --------  ------------------------------------------------------------
  DB2GRP    Library supporting DB2 group work for clients
  --------  ------------------------------------------------------------
  DB2M      Test DB2 for CDCSA use (on MVSX or optionally DOFX)
  --------  ------------------------------------------------------------
  DB2X      Test DB2 for CDCSA use (on DOFX or optionally MVSX)
  --------  ------------------------------------------------------------
  DDB2      Development subsystem on DOFD
  --------  ------------------------------------------------------------
  DSN       Test        subsystem on DOFD
  --------  ------------------------------------------------------------
  DYNBKUP   Dynamic Imagcopy Backup process
  --------  ------------------------------------------------------------
  DV2R3     DISTRIBUTION ZONE FOR DBS
  --------  ------------------------------------------------------------
  D1DB      Development subsystem on MVSP
  --------  ------------------------------------------------------------
  D2DB      Development subsystem on MVSW
  --------  ------------------------------------------------------------
  GLOBAL    DB2 single system image global change log.
  --------  ------------------------------------------------------------
  INFOTEL   DB2 SOFTWARE PRODUCT
  --------  ------------------------------------------------------------
  LEVELS    Level tracking board for dbs software zones
  --------  ------------------------------------------------------------
  OMEGDB2   single system image target change log for OMEGDB2 II
  --------  ------------------------------------------------------------
  OM26DLST  Omegamon II for DB2 v260 data set list
  --------  ------------------------------------------------------------
  OMEGLVL   level board for OMEGAMON II
  --------  ------------------------------------------------------------
  OMEGTABL  TABLE OF OMEGAMON II FOR DB2 ZONES AND WHERE IT CAN GO
  --------  ------------------------------------------------------------
  OMEGTGT   OMEGAMON II FOR DB2 SMP/E TARGET ZONE
  --------  ------------------------------------------------------------
  OEMDSLST  non-smpe dataset list for single image dialogs
  --------  ------------------------------------------------------------
  OEMLVL    non-smpe product level tracking board
  --------  ------------------------------------------------------------
  OMGDSLST  OMEGAMON II FOR DB2 DATASET LIST FOR SINGLE IMAGE DIALOG
  --------  ------------------------------------------------------------
  PCSQL     PCSQL product activity.
  --------  ------------------------------------------------------------
  PDB2      Production  subsystem on DOFP
  --------  ------------------------------------------------------------
  PLATINUM  PLATINUM products activity.
  --------  ------------------------------------------------------------
  P1DB      Production  subsystem on MVSP
  --------  ------------------------------------------------------------
  P2DB      Production subsystem on MVSW
  --------  ------------------------------------------------------------
  SAMPLE    Used when creating a new member
  --------  ------------------------------------------------------------
  TV2R3     SMP/E target for DB2 V2R3
  --------  ------------------------------------------------------------
  TCSPX     Zone TCSPX CSP product Activity.
  --------  ------------------------------------------------------------
  XDBS      place holder
  X1        temporary entry by pete - created 94/01/10 09:30
  --------  ------------------------------------------------------------
  ZONETABL  table for what zones can be propagated from which system
  --------  ------------------------------------------------------------

* * * * * * * * * * * * * * * * * * * * * * * * * * * * * * * * * * * *

./ ADD NAME=ABENDAID 0101-93049-93124-1116-00016-00014-00000-KETCSC
************************************************************************
*****                                                              *****
*****             ABENDAID/DB2 COMPONENT                           *****
*****                                                              *****
************************************************************************

NAME     USERID  DATE     TIME  DESCRIPTION OF CHANGE
-------- ------- -------- ----- ----------------------------------------
LOVARI   MJLCSC  02/18/92 15:00 BOUND ABENDAID/DB2 PLAN IN D2DB ON MVSW
-------- ------- -------- ----- ----------------------------------------
LOVARI   MJLCSC  02/18/92 15:00 BOUND ABENDAID/DB2 PLAN IN DB2M ON MVSX
-------- ------- -------- ----- ----------------------------------------
-------LEVEL-02------------------------------------LEVEL-02-------------
-------LEVEL-02------------------------------------LEVEL-02-------------
-------LEVEL-02------------------------------------LEVEL-02-------------
-------- ------- -------- ----- ----------------------------------------
./ ADD NAME=CICSENTS 0101-92163-92165-1055-00036-00040-00000-DMV0016
**********************************************************************
**********(DB2 CICS ATTACHMENT FACILITY DEFINITIONS)******************
*                                                                    *
*  ===> ENSURE GROUP AND LIST NAMES ARE CORRECT FOR YOUR SITE <===   *
*                                                                    *
**********************************************************************
*                                                                    *
DELETE GROUP(DB2)
*
DEFINE TRANSACTION(DISP) GROUP(DB2) PROGRAM(DSNCCOM1) TWASIZE(1200) +
    SCTKEY(15,20,24)
DEFINE TRANSACTION(DISC) GROUP(DB2) PROGRAM(DSNCCOM1) TWASIZE(1200) +
    SCTKEY(20,24)
DEFINE TRANSACTION(DSNC) GROUP(DB2) PROGRAM(DSNCCOM1) TWASIZE(1200) +
    SCTKEY(20,24)
DEFINE TRANSACTION(MODI) GROUP(DB2) PROGRAM(DSNCCOM1) TWASIZE(1200) +
    SCTKEY(20,24)
DEFINE TRANSACTION(STOP) GROUP(DB2) PROGRAM(DSNCCOM1) TWASIZE(1200) +
    SCTKEY(20,24)
DEFINE TRANSACTION(STRT) GROUP(DB2) PROGRAM(DSNCCOM1) TWASIZE(1200) +
    SCTKEY(20,24)
*
DEFINE PROGRAM(DSNCCOM1) GROUP(DB2) LANGUAGE(ASSEMBLER) CEDF(NO)
DEFINE PROGRAM(DSNCCOM2) GROUP(DB2) LANGUAGE(ASSEMBLER) CEDF(NO)
DEFINE PROGRAM(DSNCEXT1) GROUP(DB2) LANGUAGE(ASSEMBLER) CEDF(NO)
DEFINE PROGRAM(DSNCEXT2) GROUP(DB2) LANGUAGE(ASSEMBLER) CEDF(NO)
DEFINE PROGRAM(DSNCMSG0) GROUP(DB2) LANGUAGE(ASSEMBLER) CEDF(NO)
DEFINE PROGRAM(DSNCSTOP) GROUP(DB2) LANGUAGE(ASSEMBLER) CEDF(NO)
DEFINE PROGRAM(DSNCSTRT) GROUP(DB2) LANGUAGE(ASSEMBLER) CEDF(NO)
DEFINE PROGRAM(DSNCUEXT) GROUP(DB2) LANGUAGE(ASSEMBLER) CEDF(NO)
DEFINE PROGRAM(DSNCSM21) GROUP(DB2) LANGUAGE(ASSEMBLER) CEDF(NO)
DEFINE PROGRAM(DSNCSM31) GROUP(DB2) LANGUAGE(ASSEMBLER) CEDF(NO)
*
*
ADD    GROUP(DB2) LIST(DSNLIST)
*                                                                    *
./ ADD NAME=CICS2DB2 0101-93154-93154-1648-00021-00020-00000-KETCSC
************************************************************************
*****                                                              *****
*****                  CICS Region on MVSX                         *****
*****                       2.1.2 CICS2DB2                         *****
*****                                                              *****
************************************************************************

  NAME     ID      DATE   TIME  DESCRIPTION OF CHANGE
-------- ------- -------- ----- ----------------------------------------
Tomiak   DMV0016 06/03/93 16:30 MVSX.MSAS.JCLLIB(CICS2DB2)
                                Changed TC212X* to TC212X3 as a complete
                                set is available.
-------- ------- -------- ----- ----------------------------------------
Tomiak   DMV0016 05/27/93 16:30 MVSX.MSAS.JCLLIB(CICS2DB2)
                                Changed applid to CICS2DB2.
-------- ------- -------- ----- ----------------------------------------
************************************************************************
************************************************************************
***    USE TOP-DOWN APPROACH - ADD NEW ENTRIES TO TOP OF MEMBER!!    ***
************************************************************************
************************************************************************
./ ADD NAME=CICS3DB2 0100-93173-93173-1221-00021-00021-00000-PETE
************************************************************************
*****                                                              *****
*****                  CICS Region on MVSX                         *****
*****                 Ver 3.2.1 - CICS3DB2                         *****
*****                                                              *****
************************************************************************

  NAME     ID      DATE   TIME  DESCRIPTION OF CHANGE
-------- ------- -------- ----- ----------------------------------------
Tomiak   DMV0016 06/03/93 16:30 MVSX.MSAS.JCLLIB(CICS2DB2)
                                Changed TC212X* to TC212X3 as a complete
                                set is available.
-------- ------- -------- ----- ----------------------------------------
Tomiak   DMV0016 05/27/93 16:30 MVSX.MSAS.JCLLIB(CICS2DB2)
                                Changed applid to CICS2DB2.
-------- ------- -------- ----- ----------------------------------------
************************************************************************
************************************************************************
***    USE TOP-DOWN APPROACH - ADD NEW ENTRIES TO TOP OF MEMBER!!    ***
************************************************************************
************************************************************************
./ ADD NAME=CSPD     0100-91330-91330-1103-00019-00019-00000-DMV0016
************************************************************************
*****                                                              *****
*****                 DATA BASE CSP                                *****
*****       SINGLE SYSTEM IMAGE DLIB CHANGE LOG                    *****
*****                                                              *****
************************************************************************

NAME     USERID  DATE     TIME  DESCRIPTION OF CHANGE
-------- ------- -------- ----- ----------------------------------------
MANNY    DD20010 10/21/91 13:00 DEFINE CSP DDDEFS
-------- ------- -------- ----- ----------------------------------------
TOMIAK   DMV0016 10/21/91 13:00 DEFINE CSI, SMP DATA SETS, BASE DDDEFS
-------- ------- -------- ----- ----------------------------------------
MANNY    DD20010 10/21/91 13:00 ALLOCATE DLIB LIBRARIES
-------- ------- -------- ----- ----------------------------------------
-------LEVEL-01------------------------------------LEVEL-01-------------
-------LEVEL-01------------------------------------LEVEL-01-------------
-------LEVEL-01------------------------------------LEVEL-01-------------
-------- ------- -------- ----- ----------------------------------------
./ ADD NAME=CSPDEV   0101-91311-91330-1109-00032-00021-00000-DMV0016
************************************************************************
*****                                                              *****
*****                 Cross System Product (CSP)                   *****
*****                  Development on MVSP                         *****
*****                                                              *****
************************************************************************

  NAME     ID      DATE   TIME  DESCRIPTION OF CHANGE
-------- ------- -------- ----- ----------------------------------------
Tomiak   DMV0016 11/15/91 23:00 Bound CSP plans DCBPLAN and DCGPLAN
                                XDBS.INSTALL.CNTL(D1DBDCBP)
                                XDBS.INSTALL.CNTL(D1DBDCGP)
-------- ------- -------- ----- ----------------------------------------
-------- ------- -------- ----- ----------------------------------------
PRISCIAN MANN    ??/??/?? ??:?? CHREQ # _____
                                  Executed initial setup
-------- ------- -------- ----- ----------------------------------------
PRISCIAN MANN    ??/??/?? ??:?? CHREQ # _____
                                  CLONED LEVEL 01 FROM CSPT.TARGET.*
-------- ------- -------- ----- ----------------------------------------
TOMIAK   DMV0016 11/07/91 08:10 CREATED ALIAS CSP TO ICAT.XSYSTEM ON
                                  CATALOG.DOFX.MASTER
                                  CATALOG.DEVL.MASTER
                                  CATALOG.PROD.MASTER
                                  MASTER.MVSXMCAT
                                  MASTER.MVSPMCAT
-------- ------- -------- ----- ----------------------------------------
************************************************************************
************************************************************************
***    USE TOP-DOWN APPROACH - ADD NEW ENTRIES TO TOP OF MEMBER!!    ***
************************************************************************
************************************************************************
./ ADD NAME=CSPDSLST 0109-92198-93295-1203-00056-00019-00037-LAWCSC
ADCLIST
ADCSPMAC
ADINSTAL
ADLOAD
ADPLIB
ADSAMPLE
AECLIST
AECSPMAC
AEINSTAL
AELOAD
AEPLIB
AESAMPLE
CSPDB2
SDCAPWS
SMPLOG
SMPLOGA
SMPMTS
SMPSCDS
SMPSTS
SELACLST
SELAPNL
SELASAMP
SELACOPY
SELADBRM
SELAESF
SELAJCL
SELALMD
SELAMFS
SEZECLST
SEZEESF
SEZEJCL
SEZELMD
SEZEMAC
SEZEPNL
SEZESAMP
SEZEUTIN
ELACLST
ELAJCL
ELASAMP
ENU.EZECOMM
ENU.EZEMSG
ENU.FZEMAPDS
ENU.FZETUTOR
EZECLST
EZEJCL
EZEPRMG
EZESAMP
EZEWORK
FZEMSG
FZEMSGU
FZERSAM
PDS.EZEOPT
SAMPMSL
SRCMSG
USR1MSL
VSAM.EZEOPT
./ ADD NAME=CSPE     0102-94027-94031-1058-00113-00132-00000-LAWCSC
************************************************************************
*****                                                              *****
*****            CROSS SYSTEM PRODUCT/370                          *****
*****          APPLICATION DEVELOPMENT AND RUNTIME SERVICES        *****
*****                                                              *****
************************************************************************

NAME     USERID  DATE     TIME  DESCRIPTION OF CHANGE
-------- ------- -------- ----- ----------------------------------------
WESTON   LAWCSC  00/00/00 00:00 Print from XDBS.CSPE.ELASAMP the follow-
                                ing members for CISC definition ELADCT1,
                                ELADCT2, ELAPCT, ELAPPT, ELAFCT, ELAPENU
-------- ------- -------- ----- ----------------------------------------
WESTON   LAWCSC  00/00/00 00:00 Print from XDBS.CSPE.EZESAMP the follow-
                                ing members for CISC definition EZEDCT1,
                                EZEDCT2, EZEDRCT, EZEFENU, EZEPENU,
                                EZEFCT, and EZEPCT.
-------- ------- -------- ----- ----------------------------------------
WESTON   LAWCSC  01/27/94 14:00 Submit 'XDBS.CSPE.CNTL(ELACVP2C)' via
                                Clist CVP verify that TSO has properly
                                installed. CSP/370 RS
-------- ------- -------- ----- ----------------------------------------
WESTON   LAWCSC  01/27/94 15:06 Submit 'XDBS.CSPE.CNTL(EZECVP5J)'
                                CVP verify that MVSCICS has properly
                                installed. CSP/370 AD
-------- ------- -------- ----- ----------------------------------------
WESTON   LAWCSC  01/27/94 14:58 Submit 'XDBS.CSPE.CNTL(EZECVP2J)'
                                CVP verify that TSO has properly
                                installed. CSP/370 AD
-------- ------- -------- ----- ----------------------------------------
WESTON   LAWCSC  01/27/94 14:48 Submit 'XDBS.CSPE.CNTL(EZECVP1J)'
                                CVP verify that MVSBATCH has properly
                                installed. CSP/370 AD
-------- ------- -------- ----- ----------------------------------------
WESTON   LAWCSC  01/27/94 14:19 Loads Partitioned options data set with
                                Generation options.
                                'XDBS.CSPE.CNTL(EZECJOPP)'
-------- ------- -------- ----- ----------------------------------------
WESTON   LAWCSC  01/27/94 14:15 Loads VSAM Options Data Set with
                                Generation options.
                                'XDBS.CSPE.CNTL(EZECJOPV)'
-------- ------- -------- ----- ----------------------------------------
WESTON   LAWCSC  01/27/94 09:04 Submit 'XDBS.D1DB.CNTL(ELACJDB2)' for
                                Run-time modules to include (DSNELI) and
                                IGZEBST.
-------- ------- -------- ----- ----------------------------------------
WESTON   LAWCSC  01/27/94 09:00 Submit 'XDBS.D1DB.CNTL(EZECCDB2)' for
                                Application Develop for MVS CICS
                                authorize plan EZGCPLAN.
-------- ------- -------- ----- ----------------------------------------
WESTON   LAWCSC  01/27/94 08:57 Submit 'XDBS.D1DB.CNTL(EZECMDB2)' for
                                Application Develop for MVS Batch
                                authorize plan EZGMPLAN.
-------- ------- -------- ----- ----------------------------------------
WESTON   LAWCSC  01/27/94 08:52 Submit 'XDBS.D1DB.CNTL(EZECTDB2)' for
                                Application Develop for MVS/TSO authoriz
                                plan EZGTPLAN.
-------- ------- -------- ----- ----------------------------------------
WESTON   LAWCSC  01/27/94 08:46 Submit 'XDBS.CSPE.CNTL(ELACPIOP)'
                                Customize default options, creates
                                ELARPIOP in XDBS.CSPX.SELALMD
-------- ------- -------- ----- ----------------------------------------
WESTON   LAWCSC  01/26/94 16:31 Submit 'XDBS.CSPE.CNTL(ELACJENU)'
                                Customization job to resolve Cobol
                                External (ENU - English)
-------- ------- -------- ----- ----------------------------------------
WESTON   LAWCSC  01/26/94 16:29 Submit 'XDBS.CSPE.CNTL(EZECCENU)'
                                Add CSP/AD370 Cobol Support for US Eng.
-------- ------- -------- ----- ----------------------------------------
WESTON   LAWCSC  01/26/94 16:25 Submit 'XDBS.CSPE.CNTL(EZECCCOB)'
                                Link the CSP/370AD Utilities (CICS)
-------- ------- -------- ----- ----------------------------------------
WESTON   LAWCSC  01/26/94 16:19 Submit 'XDBS.CSPE.CNTL(EZECTCOB)'
                                Link the CSP/370AD Utilities (TSO)
-------- ------- -------- ----- ----------------------------------------
WESTON   LAWCSC  01/26/94 16:15 Submit 'XDBS.CSPE.CNTL(EZECJCIC)'
                                Add CSP/370AD Utilities CICS Support
-------- ------- -------- ----- ----------------------------------------
WESTON   LAWCSC  01/26/94 16:11 Submit 'XDBS.CSPE.CNTL(EZECJLNK)'
                                Add COBOL Generation Support.
-------- ------- -------- ----- ----------------------------------------
WESTON   LAWCSC  01/26/94 16:08 Submit 'XDBS.CSPE.CNTL(EZECJMSL)'
                                Imports Sample Application and Definit-
                                ion into the sample MSL.
-------- ------- -------- ----- ----------------------------------------
WESTON   LAWCSC  01/26/94 16:01 Submit 'XDBS.CSPE.CNTL(EZECNENU)'
                                Defines and loads the language VSAM
                                datasets.
-------- ------- -------- ----- ----------------------------------------
WESTON   LAWCSC  01/26/94 15:46 Submit 'XDBS.CSPE.CNTL(EZECJDSN)'
                                Defines and loads the reuired Non-lang
                                datasets.
-------- ------- -------- ----- ----------------------------------------
WESTON   LAWCSC  01/26/94 15:37 Submit 'XDBS.CSPE.CNTL(ELACJCIC)'
                                Linkedit CSP/370RS Modules if you have
                                CICS CSPEed. SMP/E work involved.
-------- ------- -------- ----- ----------------------------------------
WESTON   LAWCSC  01/26/94 14:30 Exec 'XDBS.CSPE.SEZECLST(EZECCUST)'
                                'CSPHLQ(XDBS.CSPE) CRSHLQ(XDBS.CSPE)'
                                which generate jobs to customizes.
-------- ------- -------- ----- ----------------------------------------
WESTON   LAWCSC  01/26/94 14:15 Exec 'XDBS.CSPE.SELACLST(ELACCUST)'
                                'CRSHLQ(XDBS.CSPE)'
                                which generate jobs to customizes.
-------- ------- -------- ----- ----------------------------------------
WESTON   LAWCSC  01/26/95 11:45 CSPE, was cloned from a level 2
                                CSP370T zone via implementation dialog
-------- ------- -------- ----- ----------------------------------------
-------- ------- -------- ----- ----------------------------------------
-------LEVEL-01------------------------------------LEVEL-01-------------
-------LEVEL-01------------------------------------LEVEL-01-------------
-------LEVEL-01------------------------------------LEVEL-01-------------
-------- ------- -------- ----- ----------------------------------------
./ ADD NAME=CSPPRD   0101-91311-91330-1110-00033-00021-00000-DMV0016
************************************************************************
*****                                                              *****
*****                 Cross System Product (CSP)                   *****
*****                   Production on MVSP                         *****
*****                                                              *****
************************************************************************

  NAME     ID      DATE   TIME  DESCRIPTION OF CHANGE
-------- ------- -------- ----- ----------------------------------------
Tomiak   DMV0016 11/15/91 23:00 Bound CSP plans DCBPLAN and DCGPLAN
                                XDBS.INSTALL.CNTL(P1DBDCBP)
                                XDBS.INSTALL.CNTL(P1DBDCGP)
-------- ------- -------- ----- ----------------------------------------
-------- ------- -------- ----- ----------------------------------------
PRISCIAN MANN    ??/??/?? ??:?? CHREQ # _____
                                  Executed initial setup
-------- ------- -------- ----- ----------------------------------------
PRISCIAN MANN    ??/??/?? ??:?? CHREQ # _____
                                  CLONED LEVEL 01 FROM CSPT.TARGET.*
-------- ------- -------- ----- ----------------------------------------
-------- ------- -------- ----- ----------------------------------------
TOMIAK   DMV0016 11/07/91 08:10 CREATED ALIAS CSP TO ICAT.XSYSTEM ON
                                  CATALOG.DOFX.MASTER
                                  CATALOG.DEVL.MASTER
                                  CATALOG.PROD.MASTER
                                  MASTER.MVSXMCAT
                                  MASTER.MVSPMCAT
-------- ------- -------- ----- ----------------------------------------
************************************************************************
************************************************************************
***    USE TOP-DOWN APPROACH - ADD NEW ENTRIES TO TOP OF MEMBER!!    ***
************************************************************************
************************************************************************
./ ADD NAME=CSPT     0100-91330-91330-1104-00028-00028-00000-DMV0016
************************************************************************
*****                                                              *****
*****                 DATA BASE CSP                                *****
*****       SINGLE SYSTEM IMAGE TARGET CHANGE LOG                  *****
*****                                                              *****
************************************************************************

NAME     USERID  DATE     TIME  DESCRIPTION OF CHANGE
-------- ------- -------- ----- ----------------------------------------
MANNY    DD20010 ??/??/?? ??:?? APPLY MAINTENANCE UP TO ?????
-------- ------- -------- ----- ----------------------------------------
TOMIAK   DMV0016 11/06/91 13:30 LEVEL 01
                                CLONE FROM CSPT.TARGET
-------- ------- -------- ----- ----------------------------------------
MANNY    DD20010 ??/??/?? ??:?? APPLY CSP PRODUCTS:
                                  FMID: XXXXXXX - CSP/AD
                                        XXXXXXX - CSP/AE
-------- ------- -------- ----- ----------------------------------------
MANNY    DD20010 10/21/91 13:00 DEFINE CSP DDDEFS
-------- ------- -------- ----- ----------------------------------------
TOMIAK   DMV0016 10/21/91 13:00 DEFINE CSI, SMP DATA SETS, BASE DDDEFS
-------- ------- -------- ----- ----------------------------------------
MANNY    DD20010 10/21/91 13:00 ALLOCATE TARGET LIBRARIES
-------- ------- -------- ----- ----------------------------------------
-------LEVEL-01------------------------------------LEVEL-01-------------
-------LEVEL-01------------------------------------LEVEL-01-------------
-------LEVEL-01------------------------------------LEVEL-01-------------
-------- ------- -------- ----- ----------------------------------------
./ ADD NAME=CSPX     0125-93081-93302-1128-00132-00017-00000-LAWCSC
************************************************************************
*****                                                              *****
*****            CROSS SYSTEM PRODUCT/370                          *****
*****          APPLICATION DEVELOPMENT AND RUNTIME SERVICES        *****
*****                                                              *****
************************************************************************

NAME     USERID  DATE     TIME  DESCRIPTION OF CHANGE
-------- ------- -------- ----- ----------------------------------------
WESTON   LAWCSC  10/28/93 12:01 Print from XDBS.CSPX.ELASAMP the follow-
                                ing members for CISC definition ELADCT1,
                                ELADCT2, ELAPCT, ELAPPT, ELAFCT, ELAPENU
-------- ------- -------- ----- ----------------------------------------
WESTON   LAWCSC  10/28/93 12:00 Print from XDBS.CSPX.EZESAMP the follow-
                                ing members for CISC definition EZEDCT1,
                                EZEDCT2, EZEDRCT, EZEFENU, EZEPENU,
                                EZEFCT, and EZEPCT.
-------- ------- -------- ----- ----------------------------------------
WESTON   LAWCSC  00/00/93 00:00 Submit 'XDBS.CPSX.CNTL(ELACVP2C)' via
                                Clist CVP verify that TSO has properly
                                installed. CSP/370 RS
-------- ------- -------- ----- ----------------------------------------
WESTON   LAWCSC  10/28/93 12:15 Submit 'XDBS.CPSX.CNTL(EZECVP5J)'
                                CVP verify that MVSCICS has properly
                                installed. CSP/370 AD
-------- ------- -------- ----- ----------------------------------------
WESTON   LAWCSC  10/28/93 12:13 Submit 'XDBS.CPSX.CNTL(EZECVP2J)'
                                CVP verify that TSO has properly
                                installed. CSP/370 AD
-------- ------- -------- ----- ----------------------------------------
WESTON   LAWCSC  10/28/93 11:22 Submit 'XDBS.CPSX.CNTL(EZECVP1J)'
                                CVP verify that MVSBATCH has properly
                                installed. CSP/370 AD
-------- ------- -------- ----- ----------------------------------------
WESTON   LAWCSC  10/28/93 10:08 Loads Partitioned options data set with
                                Generation options.
                                'XDBS.CSPX.CNTL(EZECJOPP)'
-------- ------- -------- ----- ----------------------------------------
WESTON   LAWCSC  03/25/93 10:08 Loads VSAM Options Data Set with
                                Generation options.
                                'XDBS.CSPX.CNTL(EZECJOPV)'
-------- ------- -------- ----- ----------------------------------------
WESTON   LAWCSC  00/00/93 00:00 Submit 'XDBS.DB2M.CNTL(ELACJDB2)' for
                                Run-time modules to include (DSNELI) and
                                IGZEBST.
-------- ------- -------- ----- ----------------------------------------
WESTON   LAWCSC  00/00/93 00:00 Submit 'XDBS.DB2M.CNTL(EZECCDB2)' for
                                Application Develop for MVS CICS
                                authorize plan EZGCPLAN.
-------- ------- -------- ----- ----------------------------------------
WESTON   LAWCSC  00/00/93 00:00 Submit 'XDBS.DB2M.CNTL(EZECMDB2)' for
                                Application Develop for MVS Batch
                                authorize plan EZGMPLAN.
-------- ------- -------- ----- ----------------------------------------
WESTON   LAWCSC  00/00/93 00:00 Submit 'XDBS.DB2M.CNTL(EZECTDB2)' for
                                Application Develop for MVS/TSO authoriz
                                plan EZGTPLAN.
-------- ------- -------- ----- ----------------------------------------
WESTON 4 LAWCSC  10/25/93 12:59 Project: DB2C41
                                CSPX, WAS CLONED FROM A LEVEL 2
                                TCSPX ZONE VIA IMPLEMENTATION DIALOG
-------- ------- -------- ----- ----------------------------------------
WESTON 4 LAWCSC  10/22/93 12:53 Project: DB2C41
                                TCSPX, WAS CLONED FROM A LEVEL 2
                                CSP370T ZONE VIA IMPLEMENTATION DIALOG
-------- ------- -------- ----- ----------------------------------------
TOMIAK   KETCSC  06/10/93 16:30 BCSPX WAS DELETED
-------- ------- -------- ----- ----------------------------------------
PRISCIAN MANN    05/24/93 14:23 TCSPX, WAS CLONED FROM A LEVEL 2
                                CSP370T ZONE VIA IMPLEMENTATION DIALOG
-------- ------- -------- ----- ----------------------------------------
WESTON 4 LAWCSC  05/19/93 16:10 CSPX, WAS CLONED FROM A LEVEL 2
                                CSP370T ZONE VIA IMPLEMENTATION DIALOG
-------- ------- -------- ----- ----------------------------------------
WESTON 4 LAWCSC  05/19/93 15:33 SOFTWARE WAS IMPLEMENTED FROM THE TARGET
                                ZONE TCSPX, XDBS.CSPX.TARGET.*, TO THE
                                ACTIVE ZONE CSPX, XDBS.CSPX.*
-------- ------- -------- ----- ----------------------------------------
WESTON 4 LAWCSC  05/19/93 13:47 TCSPX, WAS CLONED FROM A LEVEL 2
                                CSP370T ZONE VIA IMPLEMENTATION DIALOG
-------- ------- -------- ----- ----------------------------------------
WESTON   LAWCSC  03/30/93 12:03 Submit 'XDBS.CPSX.CNTL(ELACVP2C)' via
                                Clist CVP verify that TSO has properly
                                installed. CSP/370 RS
-------- ------- -------- ----- ----------------------------------------
WESTON   LAWCSC  03/30/93 10:35 Submit 'XDBS.CPSX.CNTL(EZECVP5J)'
                                CVP verify that MVSCICS has properly
                                installed. CSP/370 AD
-------- ------- -------- ----- ----------------------------------------
WESTON   LAWCSC  03/30/93 10:35 Submit 'XDBS.CPSX.CNTL(EZECVP2J)'
                                CVP verify that TSO has properly
                                installed. CSP/370 AD
-------- ------- -------- ----- ----------------------------------------
WESTON   LAWCSC  03/30/93 10:30 Submit 'XDBS.CPSX.CNTL(EZECVP1J)'
                                CVP verify that MVSBATCH has properly
                                installed. CSP/370 AD
-------- ------- -------- ----- ----------------------------------------
WESTON   LAWCSC  03/25/93 12:28 Loads Partitioned options data set with
                                Generation options.
                                'XDBS.CSPX.CNTL(EZECJOPP)'
-------- ------- -------- ----- ----------------------------------------
WESTON   LAWCSC  03/25/93 12:23 Loads VSAM Options Data Set with
                                Generation options.
                                'XDBS.CSPX.CNTL(EZECJOPV)'
-------- ------- -------- ----- ----------------------------------------
WESTON   LAWCSC  03/25/93 09:45 Grant EZGMPLAN, EZGTPLAN, and EZGCPLAN
                                via Spufi 'DB2CSC.SPUFI.IN(GRANT)'.
-------- ------- -------- ----- ----------------------------------------
WESTON   LAWCSC  03/23/93 15:19 Submit 'XDBS.DB2M.CNTL(ELACJDB2)' for
                                Run-time modules to include (DSNELI) and
                                IGZEBST.
-------- ------- -------- ----- ----------------------------------------
WESTON   LAWCSC  03/22/93 15:17 Submit 'XDBS.DB2M.CNTL(EZECCDB2)' for
                                Application Develop for MVS CICS
                                authorize plan EZGCPLAN.
-------- ------- -------- ----- ----------------------------------------
WESTON   LAWCSC  03/22/93 15:16 Submit 'XDBS.DB2M.CNTL(EZECMDB2)' for
                                Application Develop for MVS Batch
                                authorize plan EZGMPLAN.
-------- ------- -------- ----- ----------------------------------------
WESTON   LAWCSC  03/22/93 15:13 Submit 'XDBS.DB2M.CNTL(EZECTDB2)' for
                                Application Develop for MVS/TSO authoriz
                                plan EZGTPLAN.
-------- ------- -------- ----- ----------------------------------------
WESTON   LAWCSC  03/24/93 12:18 CSPX, was cloned from a level 1
                                CSP370T zone via implementation dialog
-------- ------- -------- ----- ----------------------------------------
-------- ------- -------- ----- ----------------------------------------
-------LEVEL-01------------------------------------LEVEL-01-------------
-------LEVEL-01------------------------------------LEVEL-01-------------
-------LEVEL-01------------------------------------LEVEL-01-------------
-------- ------- -------- ----- ----------------------------------------
./ ADD NAME=CSP370T  0127-93067-93302-1057-00209-00028-00000-LAWCSC
************************************************************************
*****                                                              *****
*****                 DATA BASE CSP 370                            *****
*****       SINGLE SYSTEM IMAGE TARGET CHANGE LOG                  *****
*****                                                              *****
************************************************************************

NAME     USERID  DATE     TIME  DESCRIPTION OF CHANGE
-------- ------- -------- ----- ----------------------------------------
WESTON   LAWCSC  10/25/93 11:00 Submit 'XDBS.INSTALL.CNTL(ELACPIOP)'
                                Customize default options, creates
                                ELARPIOP in XDBS.CSPX.SELALMD
-------- ------- -------- ----- ----------------------------------------
WESTON   LAWCSC  10/25/93 10:56 Submit 'XDBS.INSTALL.CNTL(ELACJENU)'
                                Customization job to resolve Cobol
                                External (ENU - English)
-------- ------- -------- ----- ----------------------------------------
WESTON   LAWCSC  10/25/93 10:52 Submit 'XDBS.INSTALL.CNTL(EZECCENU)'
                                Add CSP/AD370 Cobol Support for US Eng.
-------- ------- -------- ----- ----------------------------------------
WESTON   LAWCSC  10/25/93 10:49 Submit 'XDBS.INSTALL.CNTL(EZECCCOB)'
                                Link the CSP/370AD Utilities (CICS)
-------- ------- -------- ----- ----------------------------------------
WESTON   LAWCSC  10/25/93 10:47 Submit 'XDBS.INSTALL.CNTL(EZECTCOB)'
                                Link the CSP/370AD Utilities (TSO)
-------- ------- -------- ----- ----------------------------------------
WESTON   LAWCSC  10/25/93 10:39 Submit 'XDBS.INSTALL.CNTL(EZECJCIC)'
                                Add CSP/370AD Utilities CICS Support
-------- ------- -------- ----- ----------------------------------------
WESTON   LAWCSC  10/25/93 10:36 Submit 'XDBS.INSTALL.CNTL(EZECJLNK)'
                                Add COBOL Generation Support.
-------- ------- -------- ----- ----------------------------------------
WESTON   LAWCSC  10/25/93 09:59 Submit 'XDBS.INSTALL.CNTL(EZECJMSL)'
                                Imports Sample Application and Definit-
                                ion into the sample MSL.
-------- ------- -------- ----- ----------------------------------------
WESTON   LAWCSC  10/25/93 09:38 Submit 'XDBS.INSTALL.CNTL(EZECNENU)'
                                Defines and loads the language VSAM
                                datasets.
-------- ------- -------- ----- ----------------------------------------
WESTON   LAWCSC  10/25/93 09:30 Submit 'XDBS.INSTALL.CNTL(EZECJDSN)'
                                Defines and loads the reuired Non-lang
                                datasets.
-------- ------- -------- ----- ----------------------------------------
WESTON   LAWCSC  10/25/93 09:12 Submit 'XDBS.INSTALL.CNTL(ELACJCIC)'
                                Linkedit CSP/370RS Modules if you have
                                CICS installed. SMP/E work involved.
-------- ------- -------- ----- ----------------------------------------
WESTON   LAWCSC  10/25/93 08:27 Migrate CSP370T to TCSPX.
-------- ------- -------- ----- ----------------------------------------
WESTON   LAWCSC  10/22/93 16:30 Exec 'XDBS.CSP370T.SEZECLST(EZECCUST)'
                                'CSPHLQ(XDBS.CSP370T)
                                'CRSHLQ(XDBS.CSP370T) CRSPARM(CSP2)'
                                which generate jobs to customizes.
-------- ------- -------- ----- ----------------------------------------
WESTON   LAWCSC  10/22/93 16:03 Exec 'XDBS.CSP370T.SELACLST(ELACCUST)'
                                'CRSHLQ(XDBS.CSP370T) CRSPARM(CSP2)'
                                which generate jobs to customizes.
-------- ------- -------- ----- ----------------------------------------
WESTON   LAWCSC  10/19/93 14:03 Submit 'XDBS.INSTALL.CNTL(SMPEAPLY)' to
                                apply PTF UN48830
-------- ------- -------- ----- ----------------------------------------
WESTON   LAWCSC  10/21/93 13:50 Submit 'XDBS.INSTALL.CNTL(SMPEAPCK)' to
                                apply check PTF UN48830
-------- ------- -------- ----- ----------------------------------------
WESTON   LAWCSC  10/21/93 13:27 Received via IESERV PTF UN48830.
-------- ------- -------- ----- ----------------------------------------
WESTON   LAWCSC  10/21/93 13:15 Fetch via IESERV PTF UN48830.
-------- ------- -------- ----- ----------------------------------------
WESTON   LAWCSC  10/19/93 10:35 Ordered PTF UN48830 via IIN.
-------- ------- -------- ----- ----------------------------------------
WESTON   LAWCSC  10/19/93 15:50 Submit 'XDBS.INSTALL.CNTL(SMPEAPLY)' to
                                apply (PDO 9341)
-------- ------- -------- ----- ----------------------------------------
WESTON   LAWCSC  10/19/93 09:13 Submit 'XDBS.INSTALL.CNTL(SMPEAPCK)' to
                                apply check (PDO 9341)
-------- ------- -------- ----- ----------------------------------------
WESTON   LAWCSC  10/14/93 13:39 Submit 'XDBS.INSTALL.CNTL(PDODIRPT)' to
                                to print PGMDIR. (PDO 9341)
-------- ------- -------- ----- ----------------------------------------
WESTON   LAWCSC  10/14/93 10:18 Submit 'XDBS.INSTALL.CNTL(PDODIRUL)' to
                                to unload PGMDIR. (PDO 9341)
-------- ------- -------- ----- ----------------------------------------
WESTON   LAWCSC  10/14/93 09:46 Submit 'XDBS.INSTALL.CNTL(PDOMEMPT)' to
                                to print the CBPDO member. (PDO 9341)
-------- ------- -------- ----- ----------------------------------------
WESTON   LAWCSC  10/13/93 15:20 Submit 'XDBS.INSTALL.CNTL(PDODOCUL)' to
                                to unload DOCLIB.   (PDO 9341)
-------- ------- -------- ----- ----------------------------------------
WESTON   LAWCSC  10/13/93 13:40 Submit 'XDBS.INSTALL.CNTL(PDOUNLDT)' to
                                to unload the RIMLOD.  (PDO 9341)
-------- ------- -------- ----- ----------------------------------------
WESTON   LAWCSC  10/13/93 13:00 Received PDO 9341 for CSP 370 AD & RS.
-------- ------- -------- ----- ----------------------------------------
WESTON   LAWCSC  05/19/93 12:13 Submit 'XDBS.INSTALL.CNTL(EZECNENU)'
                                Define and load the Language VSAM data
                                sets. PTFs -  UN37117, UN36954
                                As per ACTION in PTF. rebuild VSAM files
-------- ------- -------- ----- ----------------------------------------
WESTON   LAWCSC  05/19/93 11:40 Exe 'XDBS.CSP370T.SELACLST(ELACCUST)'
                                'CRSHLQ(XDBS.CSP370T)' which customized
                                CSP370T save as  CUST - CRSPARM(CSP1)
                                As per ACTION in PTF. Update CSD,PPT
                                PTF UN27978.
-------- ------- -------- ----- ----------------------------------------
WESTON   LAWCSC  05/18/93 17:01 Submit 'XDBS.INSTALL.CNTL(CSP370PT)'
                                Applied PTF.
-------- ------- -------- ----- ----------------------------------------
WESTON   LAWCSC  05/18/93 10:17 Submit 'XDBS.TSOISPF.SKELS(PTFAPCK)'
                                APPLY CHECK.
-------- ------- -------- ----- ----------------------------------------
WESTON   LAWCSC  03/22/93 12:07 Submit 'XDBS.INSTALL.CNTL(ELACJENU)'
                                Customization job to resolve Cobol
                                External (ENU - English)
-------- ------- -------- ----- ----------------------------------------
WESTON   LAWCSC  03/19/93 16:05 Submit 'XDBS.INSTALL.CNTL(EZECCENU)'
                                Add CSP/370AD Cobol Support for US Eng.
-------- ------- -------- ----- ----------------------------------------
WESTON   LAWCSC  03/19/93 16:02 Submit 'XDBS.INSTALL.CNTL(EZECCCOB)'
                                Link the CSP/370AD Utilities. (CICS)
-------- ------- -------- ----- ----------------------------------------
WESTON   LAWCSC  03/19/93 15:59 Submit 'XDBS.INSTALL.CNTL(EZECTCOB)'
                                Link the CSP/370AD Utilities. (TSO)
-------- ------- -------- ----- ----------------------------------------
WESTON   LAWCSC  03/19/93 15:55 Submit 'XDBS.INSTALL.CNTL(EZECJCIC)'
                                Add CSP/370AD CICS Support.
-------- ------- -------- ----- ----------------------------------------
WESTON   LAWCSC  03/19/93 15:47 Submit 'XDBS.INSTALL.CNTL(EZECJLNK)'
                                Add COBOL Generation Support.
-------- ------- -------- ----- ----------------------------------------
WESTON   LAWCSC  03/19/93 13:46 Submit 'XDBS.INSTALL.CNTL(EZECJMSL)'
                                Import Sample Applications and Definitio
                                into the Sample MSL.
-------- ------- -------- ----- ----------------------------------------
WESTON   LAWCSC  03/19/93 13:41 Submit 'XDBS.INSTALL.CNTL(EZECNENU)'
                                Define and load the Language VSAM data
                                sets.
-------- ------- -------- ----- ----------------------------------------
WESTON   LAWCSC  03/19/93 13:40 Submit 'XDBS.INSTALL.CNTL(EZECJDSN)'
                                Define and load the required Non-Lang
                                data-set.
-------- ------- -------- ----- ----------------------------------------
WESTON   LAWCSC  03/19/93 12:53 Submit 'XDBS.INSTALL.CNTL(ELACJCIC)'
                                Linkedit CSP/370RS Modules if you have
                                CICS Installed. SMP/E Update.
-------- ------- -------- ----- ----------------------------------------
WESTON   LAWCSC  03/16/93 13:45 Exe 'XDBS.CSP370T.SEZECLST(EZECCUST)'
                                'CSPHLQ(XDBS.CSP370T)
                                CRSHLQ(XDBS.CSP370T)' which customized
                                CSP370T save as  CUST - CRSPARM(CSP1).
-------- ------- -------- ----- ----------------------------------------
WESTON   LAWCSC  03/16/93 13:30 Exe 'XDBS.CSP370T.SELACLST(ELACCUST)'
                                'CRSHLQ(XDBS.CSP370T)' which customized
                                CSP370T save as  CUST - CRSPARM(CSP1)
-------- ------- -------- ----- ----------------------------------------
WESTON   LAWCSC  03/12/93 10:55 Order PTF UN30507 thru IIN.
-------- ------- -------- ----- ----------------------------------------
WESTON   LAWCSC  03/12/93 00:00 SMP/E APPLY CSP370.
                                XDBS.INSTALL.CNTL(CSP370AP).
-------- ------- -------- ----- ----------------------------------------
WESTON   LAWCSC  03/11/93 15:25 SMP/E APPLY check CSP370.
                                XDBS.INSTALL.CNTL(CSP370AD).
-------- ------- -------- ----- ----------------------------------------
WESTON   LAWCSC  03/11/93 15:16 SMP/E APPLY CRS210.
                                XDBS.INSTALL.CNTL(CSP370CP).
-------- ------- -------- ----- ----------------------------------------
WESTON   LAWCSC  03/11/93 13:51 SMP/E APPLY CHECK CRS210.
                                XDBS.INSTALL.CNTL(CSP370AC).
-------- ------- -------- ----- ----------------------------------------
WESTON   LAWCSC  03/11/93 08:22 SMP/E Receive Language Function
                                CSP370 XDBS.INSTALL.CNTL(CSP370R4).
-------- ------- -------- ----- ----------------------------------------
WESTON   LAWCSC  03/11/93 08:19 SMP/E Receive Language Function
                                CRS210 XDBS.INSTALL.CNTL(CSP370R3).
-------- ------- -------- ----- ----------------------------------------
WESTON   LAWCSC  03/10/93 15:21 SMP/E Receive Base Function CRS210
                                XDBS.INSTALL.CNTL(CSP370R2).
-------- ------- -------- ----- ----------------------------------------
WESTON   LAWCSC  03/10/93 15:16 SMP/E Receive Base Function CSP370
                                XDBS.INSTALL.CNTL(CSP370R1).
-------- ------- -------- ----- ----------------------------------------
WESTON   LAWCSC  03/10/93 14:09 Created Datasets for CRS210
                                XDBS.INSTALL.CNTL(CSP370A2).
-------- ------- -------- ----- ----------------------------------------
WESTON   LAWCSC  03/10/93 13:57 Added DDDEFs for CRS210 to the TCSP370
                                zone. XDBS.INSTALL.CNTL(CSP370S2).
-------- ------- -------- ----- ----------------------------------------
WESTON   LAWCSC  03/10/93 11:20 Created Datasets for CSP370D DLIB thru
                                SMP/E Dialog. Define CSI datasets via
                                batch job. XDBS.INSTALL.CNTL(CSP370S1).
-------- ------- -------- ----- ----------------------------------------
WESTON   LAWCSC  03/10/93 10:21 Created Datasets for TCSP370 zone
                                XDBS.INSTALL.CNTL(CSP370A1).
-------- ------- -------- ----- ----------------------------------------
WESTON   LAWCSC  03/09/93 07:54 Created Zone TCSP370 XDBS.INSTALL.CNTL
                                (CSP370SM).
-------- ------- -------- ----- ----------------------------------------
WESTON   LAWCSC  03/08/93 10:36 Copy Job Streams from the distribution
                                for CSP/AD 370 XDBS.INSTALL.CNTL
                                (CSPADULD).
-------- ------- -------- ----- ----------------------------------------
WESTON   LAWCSC  03/08/93 10:57 Copy Job Streams from the distribution
                                for CSP/RS 210 XDBS.INSTALL.CNTL
                                (CSPRSULD).
-------- ------- -------- ----- ----------------------------------------
-------LEVEL-01------------------------------------LEVEL-01-------------
-------LEVEL-01------------------------------------LEVEL-01-------------
-------LEVEL-01------------------------------------LEVEL-01-------------
-------- ------- -------- ----- ----------------------------------------
./ ADD NAME=DBSD     0103-91330-92147-1014-00024-00018-00000-BORGY
************************************************************************
*****                                                              *****
*****                 DATA BASE                                    *****
*****       SINGLE SYSTEM IMAGE DLIB CHANGE LOG                    *****
*****                                                              *****
************************************************************************

NAME     USERID  DATE     TIME  DESCRIPTION OF CHANGE
-------- ------- -------- ----- ----------------------------------------
BORGES   BORGY   05/12/92 10:17 ACCEPTED LEVEL 1 AND LEVEL 2 SERVICE
                                FROM THE TDBST ZONE; (DBST.TARGET.*)
-------- ------- -------- ----- ----------------------------------------
TOMIAK   DMV0016 11/27/91 09:00 ZONEMERGE DB2PM FROM PMSD INTO DBSD
                                IEBCOPY LIBRARIES INTO DBSD.*
-------- ------- -------- ----- ----------------------------------------
TOMIAK   DMV0016 11/26/91 10:00 CLONE FROM DBSEDLB.*
-------- ------- -------- ----- ----------------------------------------
-------- ------- -------- ----- ----------------------------------------
TOMIAK   DMV0016 10/15/91 09:00 CLONE FROM DBSEDLB.*
-------- ------- -------- ----- ----------------------------------------
-------LEVEL-01------------------------------------LEVEL-01-------------
-------LEVEL-01------------------------------------LEVEL-01-------------
-------LEVEL-01------------------------------------LEVEL-01-------------
-------- ------- -------- ----- ----------------------------------------
./ ADD NAME=DBSDSLST 0112-92190-93164-1325-00056-00047-00056-KETCSC
DSNCLIST
DSNEXIT
DSNHELP
DSNLINK
DSNLOAD
DSNMACS
DSNSAMP
DSNSPFM
DSNSPFP
DSQCHART
DSQCLSTE
DSQCLSTU
DSQDBRM
DSQEXECE
DSQEXECU
DSQLOAD
DSQMAPE
DSQMAPU
DSQMLIBE
DSQMLIBU
DSQPLIBE
DSQPLIBU
DSQPNLE   /* INTRODUCED IN QMF V3.1 - VSAM PANEL LIBRARY         */
DSQPVARE  /* INTRODUCED IN QMF V3.1 - SEQUENTIAL DATA FOR DSQPNLE */
DSQSAMPE
DSQSAMPU
DSQSLIBE
DSQTLIBE
DSQTLIBU
DSQUSERE  /* INTRODUCED IN QMF V3.1 - SAMPLE USER EXIT ROUTINUES */
DVRDATAE
DVRDBRM
DVRINTER
DVRJEDIE
DVRLOAD
DVRMLIBE
DVRPFPSE
DVRPLIBE
DVRPVPSE
DVRSAMPE
DVRSLIBE
DVRTADME
DVRTLIBE
RLRESLIB
SDGOCLIB
SDGOLMD0
SDGOMLIB
SDGOPLIB
SDGOSLIB
SDGOTLIB
SMPLOG
SMPLOGA
SMPMTS
SMPPUNCH
SMPSCDS
SMPSTS
./ ADD NAME=DBST     0109-91330-92149-1608-00056-00018-00000-BORGY
************************************************************************
*****                                                              *****
*****                 DATA BASE                                    *****
*****       SINGLE SYSTEM IMAGE TARGET CHANGE LOG                  *****
*****                                                              *****
************************************************************************

NAME     USERID  DATE     TIME  DESCRIPTION OF CHANGE
-------- ------- -------- ----- ----------------------------------------
BORGES   BORGY   05/28/92 16:08 TDBST, WAS CLONED FROM A LEVEL 3
                                DB2M ZONE VIA IMPLEMENTATION DIALOG
-------- ------- -------- ----- ----------------------------------------
SOPPITT  DB2CSC  05/20/92 14:30 LEVEL 3 - TDBST
                                APPLIED SELECTED PTF'S TO:-
                                A). REMOVE MACRO DEPENDENCY FROM CICS/
                                    DB2 INTERFACE (FOR CICS VER3).
                                    UL90516 ++
                                B). ALLOW FALL BACK FROM DB2 V2.3 TO
                                    DB2 V2.2.  (TOLERATION PTF'S).
                                    UL90538 ++
-------- ------- -------- ----- ----------------------------------------
-------LEVEL-03------------------------------------LEVEL-03-------------
-------LEVEL-03------------------------------------LEVEL-03-------------
-------LEVEL-03------------------------------------LEVEL-03-------------
-------- ------- -------- ----- ----------------------------------------
BORGES   BORGY   03/30/92 13:35 LEVEL 2 - TDBST
                                APPLIED UN16849 GROUP. CORRECTS PROBLEM
                                WHEN MODIFY RECOVER WAS RUN FOR PARTI-
                                TIONED TABLESPACE W/ NO TABLESPAC LVL
                                IMAGE COPIES (HAD ONLY IC'S FOR PARTI-
                                TIONS). INCORRCTLY RECEIVED A DSNU572I
                                MSG AND PLACE PARTITIONED TS IN COPY
                                PENDING.
-------- ------- -------- ----- ----------------------------------------
-------LEVEL-02------------------------------------LEVEL-02-------------
-------LEVEL-02------------------------------------LEVEL-02-------------
-------LEVEL-02------------------------------------LEVEL-02-------------
-------- ------- -------- ----- ----------------------------------------
TOMIAK   DMV0016 12/04/91 13:35 QMFEMAP - LINK MAPS WITH GDDM
-------- ------- -------- ----- ----------------------------------------
TOMIAK   DMV0016 12/04/91 13:30 QMFCHRT - LINK CHARTS WITH GDDM
-------- ------- -------- ----- ----------------------------------------
-------- ------- -------- ----- ----------------------------------------
TOMIAK   DMV0016 11/27/91 09:00 ZONEMERGE DB2PM FROM TPMST INTO DBST
                                IEBCOPY LIBRARIES INTO DBST.TARGET.*
-------- ------- -------- ----- ----------------------------------------
-------- ------- -------- ----- ----------------------------------------
TOMIAK   DMV0016 11/26/91 09:00 CLONE FROM DBSETGT.*
-------- ------- -------- ----- ----------------------------------------
-------- ------- -------- ----- ----------------------------------------
TOMIAK   DMV0016 10/15/91 09:00 CLONE FROM DBSETGT.*
-------- ------- -------- ----- ----------------------------------------
-------LEVEL-01------------------------------------LEVEL-01-------------
-------LEVEL-01------------------------------------LEVEL-01-------------
-------LEVEL-01------------------------------------LEVEL-01-------------
-------- ------- -------- ----- ----------------------------------------
./ ADD NAME=DB2ATCH  0105-92203-93188-0834-00027-00018-00000-KETCSC
************************************************************************
*****                                                              *****
*****                 DB2 ATTACH                                   *****
*****       A DB2 CALL INTERFACE REPLACEMENT TO THE TSO ATTACH     *****
*****                                                              *****
************************************************************************

NAME     USERID  DATE     TIME  DESCRIPTION OF CHANGE
-------- ------- -------- ----- ----------------------------------------
TOMIAK   KETCSC  07/07/93 08:30 NEW PASSWORD
                                DBAPARM PASSWORD=465JETE71GUOU64J,
                                        CPUID=010216,
                                        EXPDATE=94212,
                                        SYSTEM=SSID
-------- ------- -------- ----- ----------------------------------------
WESTON   LAWCSC  07/21/92 15:30 XDBS.INSTALL.CNTL(ATCHUNLD)
                                UNLOAD PRODUCT LOADLIB TAPE R20 TO:
                                  XDBS.DB2ATCH.REL20.LOAD
-------- ------- -------- ----- ----------------------------------------
WESTON   LAWCSC  07/21/92 15:00 XDBS.INSTALL.CNTL(ATCHUJCL)
                                UNLOAD PRODUCT SOURCE  TAPE R20 TO:
                                  XDBS.DB2ATCH.REL20.CNTL
-------- ------- -------- ----- ----------------------------------------
-------LEVEL-01------------------------------------LEVEL-01-------------
-------LEVEL-01------------------------------------LEVEL-01-------------
-------LEVEL-01------------------------------------LEVEL-01-------------
-------- ------- -------- ----- ----------------------------------------
./ ADD NAME=DB2GRP   0100-93321-93321-1513-00022-00022-00000-KETCSC
************************************************************************
*****                                                              *****
*****         CCCC   DDDD     CCCC    SSS      A                   *****
*****        C       D   D   C       S        A A                  *****
*****        C       D   D   C        SSS    AAAAA                 *****
*****        C       D   D   C           S   A   A                 *****
*****         CCCC   DDDD     CCCC    SSS    A   A                 *****
*****                                                              *****
*****        DB2 GROUP SPECIFIC LIBRARIES                          *****
*****                                                              *****
************************************************************************

NAME     USERID  DATE     TIME  DESCRIPTION OF CHANGE
-------- ------- -------- ----- ----------------------------------------
TOMIAK   DMV0016 11/17/93 15:00 (WHAT THIS LINE IS FOR....)
                                PROJECT: F94121
                                CLONE FROM XDBS.TSOISPF.*
-------- ------- -------- ----- ----------------------------------------
-------LEVEL-01------------------------------------LEVEL-01-------------
-------LEVEL-01------------------------------------LEVEL-01-------------
-------LEVEL-01------------------------------------LEVEL-01-------------
-------- ------- -------- ----- ----------------------------------------
./ ADD NAME=DB2M     0199-91304-94014-0842-02232-00421-00000-FMMCSC
************************************************************************
*****                                                              *****
*****                    DATA BASE                                 *****
*****                  DB2M  on  MVSX                              *****
*****                                                              *****
************************************************************************

  NAME     ID      DATE   TIME  DESCRIPTION OF CHANGE
-------- ------- -------- ----- ----------------------------------------
MUNDO 48 FMMCSC  01/14/94 08:42 Project: DB2???
                                product: PLATINUM
                                DB2M, WAS CLONED FROM A LEVEL
                                XDBS ZONE VIA IMPLEMENTATION DIALOG
-------- ------- -------- ----- ----------------------------------------
LOVARI   MJLCSC  01/12/94 17:41 Project: DB2???
                                CHREQ# 00000
                                SOFTWARE WAS IMPLEMENTED FROM THE TARGET
                                ZONE TDB2M, DB2M.OMEGDB2.TARGET.*, TO TH
                                ACTIVE ZONE DB2M, DB2M.OMEGDB2.*
-------- ------- -------- ----- ----------------------------------------
LOVARI   MJLCSC  01/12/94 15:53 OMEGAMON II FOR DB2 SOFTWARE
                                TDB2M, WAS CLONED FROM A LEVEL 2
                                TOMGDB2 ZONE VIA IMPLEMENTATION DIALOG
-------- ------- -------- ----- ----------------------------------------
LOVARI   MJLCSC  01/12/94 10:53 OMEGAMON II FOR DB2 SOFTWARE
                                TDB2M, WAS CLONED FROM A LEVEL 2
                                TOMGDB2 ZONE VIA IMPLEMENTATION DIALOG
-------- ------- -------- ----- ----------------------------------------
TOMIAK   KETCSC  12/07/93 09:03 Project: DB2???
                                CHREQ# 00000
                                SOFTWARE WAS IMPLEMENTED FROM THE TARGET
                                ZONE TDB2M, DB2M.OMEGDB2.TARGET.*, TO TH
                                ACTIVE ZONE DB2M, DB2M.OMEGDB2.*
-------- ------- -------- ----- ----------------------------------------
TOMIAK   KETCSC  12/07/93 08:56 OMEGAMON II FOR DB2 SOFTWARE
                                TDB2M, WAS CLONED FROM A LEVEL 2
                                TOMGDB2 ZONE VIA IMPLEMENTATION DIALOG
-------- ------- -------- ----- ----------------------------------------
TOMIAK   KETCSC  12/06/93 14:40 OMEGAMON II FOR DB2 SOFTWARE
                                TDB2M, WAS CLONED FROM A LEVEL 2
                                TOMGDB2 ZONE VIA IMPLEMENTATION DIALOG
-------- ------- -------- ----- ----------------------------------------
TOMIAK   KETCSC  11/26/93 15:13 Project: DB2???
                                CHREQ# 00000
                                SOFTWARE WAS IMPLEMENTED FROM THE TARGET
                                ZONE TDB2M, DB2M.TARGET.*, TO THE
                                ACTIVE ZONE DB2M, DB2M.*
-------- ------- -------- ----- ----------------------------------------
TOMIAK   KETCSC  11/24/93 15:52 Project: DB2???
                                DB2M, WAS CLONED FROM A LEVEL
                                XDBS ZONE VIA IMPLEMENTATION DIALOG
-------- ------- -------- ----- ----------------------------------------
TOMIAK   KETCSC  11/24/93 15:43 Project: DB2???
                                DB2M, WAS CLONED FROM A LEVEL
                                XDBS ZONE VIA IMPLEMENTATION DIALOG
-------- ------- -------- ----- ----------------------------------------
BLUMEL   ACSCPAB 11/04/93 15:53 Project: DB2???
                                CHREQ# 00000
                                SOFTWARE WAS IMPLEMENTED FROM THE TARGET
                                ZONE TDB2M, DB2M.TARGET.*, TO THE
                                ACTIVE ZONE DB2M, DB2M.*
-------- ------- -------- ----- ----------------------------------------
BLUMEL   ACSCPAB 11/04/93 15:49 Project: DB2???
                                TAPE ARCHIVE OF BDB2M WAS CREATED.
                                OUTPUT TAPE DSN = DB2M.BACKUP.LVL13
-------- ------- -------- ----- ----------------------------------------
BLUMEL   ACSCPAB 11/04/93 13:24 Project: DB2???
                                TDB2M, WAS CLONED FROM A LEVEL 15
                                TV2R3 ZONE VIA IMPLEMENTATION DIALOG
-------- ------- -------- ----- ----------------------------------------
BLUMEL   ACSCPAB 11/01/93 15:35 Project: DB2???
                                CHREQ# 00000
                                SOFTWARE WAS IMPLEMENTED FROM THE TARGET
                                ZONE TDB2M, DB2M.TARGET.*, TO THE
                                ACTIVE ZONE DB2M, DB2M.*
-------- ------- -------- ----- ----------------------------------------
TOMIAK   KETCSC  10/31/93 22:01 Project: DB2???
                                THE DB2M ZONE HAS BEEN RESTORED FROM
                                IT'S BACKUP, BDB2M. REFER TO THE
                                LVL TRCKING BOARD TO VERIFY LVL BACKOUT
-------- ------- -------- ----- ----------------------------------------
TOMIAK   KETCSC  10/31/93 21:48 Project: DB2???
                                CHREQ# 00000
                                SOFTWARE WAS IMPLEMENTED FROM THE TARGET
                                ZONE TDB2M, DB2M.TARGET.*, TO THE
                                ACTIVE ZONE DB2M, DB2M.*
-------- ------- -------- ----- ----------------------------------------
TOMIAK   KETCSC  10/31/93 21:43 Project: DB2???
                                TDB2M, WAS CLONED FROM A LEVEL 14
                                TV2R3 ZONE VIA IMPLEMENTATION DIALOG
-------- ------- -------- ----- ----------------------------------------
TOMIAK ( DMV0016 10/31/93 21:31 Project: DB2???
                                DB2M, WAS CLONED FROM A LEVEL 13
                                TDB2M ZONE VIA IMPLEMENTATION DIALOG
-------- ------- -------- ----- ----------------------------------------
TOMIAK ( DMV0016 10/31/93 21:19 Project: DB2???
                                DB2M, WAS CLONED FROM A LEVEL 13
                                TDB2M ZONE VIA IMPLEMENTATION DIALOG
-------- ------- -------- ----- ----------------------------------------
TOMIAK ( DMV0016 10/31/93 21:10 Project: DB2???
                                TDB2M, WAS CLONED FROM A LEVEL 13
                                DB2X ZONE VIA IMPLEMENTATION DIALOG
-------- ------- -------- ----- ----------------------------------------
TOMIAK ( DMV0016 10/29/93 21:38 Project: DB2???
                                THE DB2M ZONE HAS BEEN RESTORED FROM
                                IT'S BACKUP, BDB2M. REFER TO THE
                                LVL TRCKING BOARD TO VERIFY LVL BACKOUT
-------- ------- -------- ----- ----------------------------------------
TOMIAK ( DMV0016 10/29/93 21:25 Project: DB2???
                                CHREQ# 00000
                                SOFTWARE WAS IMPLEMENTED FROM THE TARGET
                                ZONE TDB2M, DB2M.TARGET.*, TO THE
                                ACTIVE ZONE DB2M, DB2M.*
-------- ------- -------- ----- ----------------------------------------
TOMIAK   KETCSC  10/29/93 21:02 Project: DB2???
                                TDB2M, WAS CLONED FROM A LEVEL 14
                                TV2R3 ZONE VIA IMPLEMENTATION DIALOG
-------- ------- -------- ----- ----------------------------------------
TOMIAK   KETCSC  10/29/93 11:06 Project: DB2???
                                TDB2M, WAS CLONED FROM A LEVEL 14
                                TV2R3 ZONE VIA IMPLEMENTATION DIALOG
-------- ------- -------- ----- ----------------------------------------
TOMIAK   KETCSC  10/27/93 15:40 Project: DB2???
                                CHREQ# 00000
                                SOFTWARE WAS IMPLEMENTED FROM THE TARGET
                                ZONE TDB2M, DB2M.TARGET.*, TO THE
                                ACTIVE ZONE DB2M, DB2M.*
-------- ------- -------- ----- ----------------------------------------
TOMIAK   KETCSC  10/22/93 13:33 Project: DB2???
                                TDB2M, WAS CLONED FROM A LEVEL 13
                                TV2R3 ZONE VIA IMPLEMENTATION DIALOG
-------- ------- -------- ----- ----------------------------------------
Soppitt  DB2CSC  09/03/93 17:20 Project: DB2F01
                                Package DSNQCATV.DSNQVROO rebound as
                                required after implementation of Lvl-11
                                maintenance.
                                Job in 'XDBS.DB2M.CNTL(LVL11ACT)'
-------- ------- -------- ----- ----------------------------------------
Soppitt  PETE    07/30/93 14:30 Execute Install Clist to turn on ACCTG
                                Class-2 trace at subsystem start-up.
                                Asm/Link DSNZPARM using
                                    'XDBS.DB2M.CNTL(DSN3ZPRM)'
                                Old module renamed OLDZPARM on DSNEXIT.
-------- ------- -------- ----- ----------------------------------------
Tomiak   KETCSC  07/07/93 08:45 XDBS.DB2M.CNTL(DBATIVP)
                                Execute test of database attach
-------- ------- -------- ----- ----------------------------------------
Tomiak   KETCSC  07/07/93 08:45 XDBS.DB2M.CNTL(DBATPSWD)
                                Assemble new password
                                DBAPARM PASSWORD=465JETE71GU0U64J,
                                        CPUID=010216,
                                        EXPDATE=94212,
                                        SYSTEM=DB2M
-------- ------- -------- ----- ----------------------------------------
-------- ------- -------- ----- ----------------------------------------
PRISCIAN MANN    07/06/93 10:00 XDBS.DB2M.CNTL(PLATBIND)
                                BIND PLATINUM PLANS.
-------- ------- -------- ----- ----------------------------------------
PRISCIAN MANN    07/06/93 09:35 XDBS.DB2M.CNTL(PLATRULE)
                                LOAD THE DEFAULT RULES FOR PLAN ANALZER.
-------- ------- -------- ----- ----------------------------------------
PRISCIAN MANN    07/06/93 09:00 XDBS.DB2M.CNTL(PLATCOPY)
                                COPY PLATINUM DATASETS.
                                PLAN ANALYZER & UTILITES.
-------- ------- -------- ----- ----------------------------------------
PRISCIAN MANN    06/15/93 10:00 Updated PLATINUM passwords:
                                XDBS.DB2M.CNTL(PLATPSWU)
-------- ------- -------- ----- ----------------------------------------
TOMIAK ( KETCSC  06/10/93 21:19 SOFTWARE WAS IMPLEMENTED FROM THE TARGET
                                ZONE TDB2M, DB2M.TARGET.*, TO THE
                                ACTIVE ZONE DB2M, DB2M.*
-------- ------- -------- ----- ----------------------------------------
TOMIAK ( KETCSC  06/10/93 17:33 TDB2M, WAS CLONED FROM A LEVEL 11
                                TV2R3 ZONE VIA IMPLEMENTATION DIALOG
-------- ------- -------- ----- ----------------------------------------
PRISCIAN MANN    05/14/93 14:30 Test recovery of image copies:
                                XDBS.DB2M.CNTL(PLATRECV) RECOVER
                                XDBS.DB2M.CNTL(PLATDSN1) DSN1COPY RECOVE
-------- ------- -------- ----- ----------------------------------------
PRISCIAN MANN    05/03/93 11:30 Invoke PLATINUM products clist
                                'INVKPLAT DB2M' and create jobs
                                XDBS.DB2M.CNTL(PLATRIVP) RAPID REORG
                                XDBS.DB2M.CNTL(PLATQIVP) QUICK COPY full
                                XDBS.DB2M.CNTL(PLATICPY) QUICK COPY Incr
-------- ------- -------- ----- ----------------------------------------
PRISCIAN MANN    04/30/93 10:30 Invoke customization clist
                                'INVKQKIN DB2M'.


 PIPM  R01.00 ---- PLATINUM Installation Processor Main Menu ---- 93/05/
 COMMAND ===>
              _


                        QUICK INSTALL OPTIONS:

   0   Profile           - Setup Profile Options

   1   Selective Install - Install selected PLATINUM DB2 products

   2   Complete Install  - Install ALL PLATINUM DB2 products

   3   Resume            - Continue an install option at a previous loca

 > 4   Individual Steps  - Perform single steps of Quick Install

   X   Exit              - Exit Platinum Quick Install

 Select an option and press Enter to begin the installation process.

 Press PF1 for Help or PF3 to Exit the installation processor.


  --- Copyright  1992   PLATINUM technology inc.  All Rights Reserved --


 PIPVOL   R01.00 ------------- PIP - Volume Serial -------------  93/05/
 COMMAND ===>
              _

   Type the information in the fields below.  Then press Enter.

      Volume serial number of
      current installation tape ........ P209AA     (required)



   If the fields below are NOT blank, verify that both are correct.

      High level qualifier of previously
      installed PLATINUM products  ..... DB2M.PLATINUM


      Volume serial number of
      previous installation tape ....... P209AA



 Press PF1 for Help or PF3 to return to the installation main menu.




 PIPROD  R01.00 --- PLATINUM Product Selection ---  93/05/04  11:0  ROW
 COMMAND ===>                                                  SCROLL ==
              _

 Choose the products that you wish to install by typing an S in the sele
 field.  Then press Enter to register your selections.  After all select
 have been made press PF3 to continue processing.

 Products are unloaded from the P209AA installation tape.

 Select   Product Name           Release level         Status

 (   )    RC/UPDATE              V3.1, PRODUCTION
 (   )    RC/MIGRATOR            V3.1, PRODUCTION
 (   )    RC/QUERY               V3.2, PRODUCTION
 (   )    RC/SECURE              V2.3, PRODUCTION
 (   )    DATABASE ANALYZER      V2.0, PRODUCTION
 (   )    PUT                    V2.0, PRODUCTION      INSTALLING
 (   )    PIPELINE               V2.1, PRODUCTION
 (   )    PG/O                   V2.2, PRODUCTION
 (   )    SQL/EASE               V1.3, PRODUCTION
 (   )    PLAN ANALYZER          V1.3, PRODUCTION
 (   )    QQF                    V3.5, PRODUCTION
 (   )    PACKAGE/IT             V1.0, PRODUCTION
 (   )    GOVERNOR FACILITY      V1.0, PRODUCTION


 PIPINDV  R01.00 -------- Installation Individual Steps  -------  93/05/
 COMMAND ===>
              _

  Select an option by typing the letter. Then Press Enter.  After all se
  have been processed, type END or press PF3 to return to the main menu.

         1.  LINK          - Link products
       > 2.  PARMLIB       - Edit PARMLIB members
         3.  PASSWORD      - Enter passwords
         4.  OBJECTS       - Create PLATINUM DB2 objects
         5.  BIND          - Bind PLATINUM products
         6.  PPA/SQL-EASE  - Additional PPA/SQL-EASE steps
         7.  CUSTOMIZATION - Product customization
         8.  MODEL         - Model library customization
         9.  PGF           - Governor Facility Conversions.
        10.  FIXES         - Display Product Fixes applied
        11.  VERIFY        - Verify PLATINUM products

         A.  ALL STEPS     - All steps, in order

         B   Backup to last Menu.
         Q   Quit, saving current location.
         C   Cancel, without saving current location.
  Press PF1 for Help.


 PIPPRML  R01.00 ------------ PLATINUM PARMLIB Menu ------------  93/05/
 COMMAND ===>
              _


  Select an option by typing a number.  Then press Enter.  After all sel
  have been processed, type End or press PF3 to continue.



           > 1.  Edit Parmlib members to set parameters.

             B.  Backup, display previous menu.

             Q.  Quit, saving current location.

             C.  Cancel, without saving current location.




  Press PF1 for Help.





 PIPDBSED  R01.00 ------------ PIP - Parmlib(SETUP) ------------  93/05/
 COMMAND ===>
              _

   Type the information in the fields below.  Then press Enter.

      Company Name..............> CDCSA/NYC
      Work Unit Name............> SYSDA
      Display all products .....> NO       (YES or NO)

  National Language Settings:

      Vertical Bar Character....> 
      Decimal Point Character...> .        (. or ,)
      Mixed DBCS/SBCS data......> NO       (YES or NO)
      Date Format ..............> YY/MM/DD
      Time Delimiter ...........> :        (ie : , . )
      Display Seconds ..........> NO       (YES or NO)

 Press PF1 for Help                   Press PF3 to skip editing of SETUP







 PIPDBSEM  R01.00 ------------ PIP - Parmlib(SETUP) ------------  93/05/
 COMMAND ===>
              _

   DB2 subsystem ............> DB2M
   VSAM Catalog Alias .......> DB2M
   DB2 load libraries .......> DB2M.DSNEXIT
                      .......> DB2M.DSNLOAD
                      .......>
                      .......>
   SYSADM ...................> DB2CSC
   SYSADM2 ..................> CSCDB2

   Location ...>                    Locations Subsystem ID ...>
   Location ...>                    Locations Subsystem ID ...>
   Location ...>                    Locations Subsystem ID ...>
   Location ...>                    Locations Subsystem ID ...>
   Location ...>                    Locations Subsystem ID ...>
   Location ...>                    Locations Subsystem ID ...>
   Location ...>                    Locations Subsystem ID ...>
   Location ...>                    Locations Subsystem ID ...>

  Press Enter for additional subsystems.
  Press PF3 (END) when information for all subsystems is complete



 EDIT ---- DB2M.PLATINUM.PARMLIB(SETUP) - 01.08 --------------- COLUMNS
 COMMAND ===>                                                  SCROLL ==
              _
 PI021I CURRENTLY EDITING PARMLIB MEMBER 1 OF 3
 000100 COMPANY  (CDCSA/NYC)                /* YOUR COMPANY'S NAME
 000200 WORKUNIT (SYSDA)                    /* WORK UNIT FOR ALLOCATIONS
 000210 STATUS   (PROD)                     /* BETA STATUS
 000220 FULLMENU (NO)                       /* DISPLAY ALL PRODUCTS
 000221 VERTBAR  ()                        /* VERTICAL BAR FOR DISPLAY
 000222 DECPOINT (.)                        /* DECIMAL POINT CHARACTER
 000223 CASEMIX  (NO)                       /* MIXED CASE INDICATOR
 000224 DATEFORM (YY/MM/DD)                 /* FORMAT OF DATE TO USE
 000225 TIMEFORM (HH:MM)                    /* FORMAT OF TIME TO USE
 000226
 000227 /*--------------------------------------------------------------
 000228 /* THE FOLLOWING SECTION SHOULD BE REPEATED FOR EACH DB2 SUBSYST
 000229 /*--------------------------------------------------------------
 000230 SSID     (DB2M)
 000240 LOADLIBS (
 000250           DB2M.DSNEXIT
 000260           DB2M.DSNLOAD
 000270          )
 000280 SYSADM   (DB2CSC)
 000290 SYSADM2  (CSCDB2)
 000300 CATALIAS (DB2M)


 PIPDBUTE  R01.00 ------------ PIP - Parmlib(UTIL)  ------------  93/05/
 COMMAND ===>
              _

   Type the information in the fields below.  Then press Enter.

      Syscopy Authorization .........> OFF       ON or OFF
      Utility Mode ..................> SWAP      NS or SWAP
      Update TS PQTY and SQTY .......> YES       NO or YES
      Sort Limit ....................> 2M        num, numK, or numM
      Syscopy Update Control.........> YES       NO, YES, or USER
      Modify Bits Updated During Copy> YES       NO, or YES
      DFP level .....................> 3.2       ie 3.2
      RACF Authorized ID ............> NO        NO, or USERID
      SYSCOPY volser for Non-SMS.....> YES       NO, or YES
      Default number of Buffers......> 030       Numeric
      Check Duplicates in SYSCOPY....> NO        NO, or YES
      Restart-retry for -911 errors..> 05        Numeric


 Press PF1 for Help         Press PF3 to skip editing of UTIL member






 EDIT ---- DB2M.PLATINUM.PARMLIB(UTIL) - 01.10 ---------------- COLUMNS
 COMMAND ===>                                                  SCROLL ==
              _
 PI021I CURRENTLY EDITING PARMLIB MEMBER 2 OF 3
 000100 SYSCOPYAUTH (OFF)      /* SYSCOPY AUTH CONTROL (ON) OR (OFF)
 000200 MODE (SWAP)            /* UTILITY MODE (SWAP) OR (SWAP)
 000300 UPDTSQTY (YES)         /* UPDATE TS PQTY AND SQTY (NO) OR (YES)
 000400 SORTLIMIT (2M)         /* SORT MAX LIMIT (#), (#K) OR (#M)
 000500 SYSCOPY (YES)          /* SYSCOPY UPDATE CONTROL (NO),(YES),(USE
 000600 MODIFYBITS (YES)       /* DEFAULT: MODBITS UPDATED DURING COPY Y
 000700 DFPLEVEL (3.2)         /* DFP LEVEL (X.X) (< 3.X, NO QSAM IF EXT
 000800 RACF-AUTHID (NO)       /* DEFAULT SECURITY AUTH ID (USER ID), (N
 000900 NEWPASS-VOLSER (YES)   /* FOR(NEW,PASS)NON-SMS DS,SYSCOPY VOLSER
 001000 COPY-BUFFERS (030)     /* DEFAULT #OF BUFFERS IF NOT IN SYNTAX
 001100 CHECK-DUPLICATES (NO)  /* WHETHER TO CHECK FOR DUPLICATES IN SYS
 001200 RESTART-RETRY (05)     /* IF -911 ACCESSING RESTART TABLE= #RETR
 001300 COPY-MODE (INLINE)     /* INLINE/NO-INLINE DETERMINES WHEN COPY
 001400 SORT-APPLSIZE (256K)   /* MINIMUM SORT SIZE REQUIRED BY SORT PAC
 001500 SORT-VARABOVE (YES)    /* ALLOCATE SORT INPUT BUFFERS ABOVE THE
 001600 CHKPEND-TS (YES)       /* SET CHECK PENDING FLAG FOR RI TABLES
 001700 CHKPEND-UPDCAT (YES)   /* UPDATE SYSTEM CATALOG WITH CHECK PENDI
 001800 VSAM-PURGE (YES)       /* INCLUDE PURGE PARM FOR VSAM DELETE
 001900 DISCARD-ERROR (NONE)   /* ACTION TAKEN WHEN DISCARDS FOUND DURIN
 002000                        /* FAST LOAD:  (NONE), (ABEND) OR (RC21)
 002100 ABEND-TASK (NO)        /* ABEND IF RETURN CODE > 4  (YES) OR (NO


 PIPDBPDA  R01.00 ------------- PIP - Parmlib(PDA)  ------------  93/05/
 COMMAND ===>
              _

   Type the information in the fields below.  Then press Enter.

      High level identifier ....: DB2M.PLATINUM

      Times to Retry insert to stats tables.> 000500
      Retry interval (in 1/100 seconds) ....> 000020
      Number of inserts before a commit ....> 000010




   Press PF3 to skip editing of PDA member.











 EDIT ---- DB2M.PLATINUM.PARMLIB(PDA) - 01.03 ----------------- COLUMNS
 COMMAND ===>                                                  SCROLL ==
              _
 PI021I CURRENTLY EDITING PARMLIB MEMBER 3 OF 3
 000100 RETRY#   (000500)                    /* Number of times to retry
 000110 RETRYINT (000020)                    /* interval in 1/100 of a s
 000120 COMMIT   (000010)                    /* # of inserts before comm
 ****** **************************** BOTTOM OF DATA ********************

 PIPINDV  R01.00 -------- Installation Individual Steps  -------  93/05/
 COMMAND ===>
              _

  Select an option by typing the letter. Then Press Enter.  After all se
  have been processed, type END or press PF3 to return to the main menu.

         1.  LINK          - Link products
         2.  PARMLIB       - Edit PARMLIB members
         3.  PASSWORD      - Enter passwords
         4.  OBJECTS       - Create PLATINUM DB2 objects
         5.  BIND          - Bind PLATINUM products
         6.  PPA/SQL-EASE  - Additional PPA/SQL-EASE steps
       > 7.  CUSTOMIZATION - Product customization
         8.  MODEL         - Model library customization
         9.  PGF           - Governor Facility Conversions.
        10.  FIXES         - Display Product Fixes applied
        11.  VERIFY        - Verify PLATINUM products

         A.  ALL STEPS     - All steps, in order

         B   Backup to last Menu.
         Q   Quit, saving current location.
         C   Cancel, without saving current location.
  Press PF1 for Help.


 PIPCUSTM  R01.00 ----------- PLATINUM Customize Menu ----------  93/05/
 COMMAND ===>
              _

  Select an option by typing a number.  Then press Enter.  After all sel
  have been processed, type End or press PF3 to continue.

           > 1.  Update CLIST's with high level ID.
           > 2.  Update DB2M.PLATINUM.MODEL.
           > 3.  Update RSPINIT CLIST.
             4.  Convert Plan Authorizations.
             5.  Convert Existing Jcl.
             6.  Convert Existing Rapid Reorg JCL.
             7.  Convert Panel Vertical Bar.

             B.  Backup, display previous menu.
             Q.  Quit, saving the current location.
             C.  Cancel, without saving the current location.

  Press PF1 for Help.







 PIPINDV  R01.00 -------- Installation Individual Steps  -------  93/05/
 COMMAND ===>
              _

  Select an option by typing the letter. Then Press Enter.  After all se
  have been processed, type END or press PF3 to return to the main menu.

         1.  LINK          - Link products
         2.  PARMLIB       - Edit PARMLIB members
         3.  PASSWORD      - Enter passwords
         4.  OBJECTS       - Create PLATINUM DB2 objects
         5.  BIND          - Bind PLATINUM products
         6.  PPA/SQL-EASE  - Additional PPA/SQL-EASE steps
         7.  CUSTOMIZATION - Product customization
         8.  MODEL         - Model library customization
         9.  PGF           - Governor Facility Conversions.
        10.  FIXES         - Display Product Fixes applied
      > 11.  VERIFY        - Verify PLATINUM products

         A.  ALL STEPS     - All steps, in order

         B   Backup to last Menu.
         Q   Quit, saving current location.
         C   Cancel, without saving current location.
  Press PF1 for Help.


 PIPVFY  R01.00 ----------- PLATINUM Verify Products -----------  93/05/
 COMMAND ===>
              _


  Congratulations, you have successfully completed the installation proc


  Select an option by typing a number.  Then press Enter.  After all sel
  have been processed, type End or press PF3 to return to main menu.

           > 1.  Enter PLATINUM products to verify installation.




  Press PF1 for help.










 RM   R02.02 --------- PLATINUM Products Main Menu ---------  93/05/04 1
 OPTION ===>                                                   SCROLL ==
             _

 DB2 SYSTEM ID ===> DB2M  LOCATION ===> LOCAL             DB2 VERSION :
                                                          TAPE VERSION:

 DBA UTILITIES                           GENERAL FACILITIES
 U  PUT  - Utilities                     A  AUTH     - Product Authoriza
                                         M  ACM      - Alternate Catalog
                                         T  TUTORIAL - Product Tutorials
                                         V  PROFILE  - Global Profile Va
                                         X  EXIT     - Exit PLATINUM Pro










 --- Copyright (c) 1987,1992   PLATINUM technology inc.  All Rights Rese

-------- ------- -------- ----- ----------------------------------------
PRISCIAN MANN    04/27/93 13:30 XDBS.DB2M.CNTL(PLATBIND)
                                BIND PLATINUM PLANS.
-------- ------- -------- ----- ----------------------------------------
PRISCIAN MANN    04/27/93 11:30 XDBS.DB2M.CNTL(PLATOBJS)
                                CREATE DB2 OBJECTS.
-------- ------- -------- ----- ----------------------------------------
PRISCIAN MANN    04/21/93 13:30 XDBS.DB2M.CNTL(PLATCOPY)
                                COPIES PLATINUM DATASETS TO
                                DB2M.PLATINUM.***.
-------- ------- -------- ----- ----------------------------------------
TOMIAK   KETCSC  04/04/93 08:23 TDB2M, WAS CLONED FROM A LEVEL 10
                                TV2R3 ZONE VIA IMPLEMENTATION DIALOG
-------- ------- -------- ----- ----------------------------------------
Tomiak   DB2CSC  04/02/93 10:50 XDBS.DB2M.CNTL(PANSQL#1) creates views,
                                assembles the CA-PAN/SQL Interface
                                Command Processor, and binds a plan
                                OMSMCMD2 (matches objlib member).
-------- ------- -------- ----- ----------------------------------------
-------- ------- -------- ----- ----------------------------------------
Tomiak   DB2CSC  04/02/93 16:00 XDBS.DB2M.CNTL(PANSQL#1) needed
                                extensive fixing. Return codes as shown
                                in the installation manual are wrong
                                on an initial installation.
-------- ------- -------- ----- ----------------------------------------
Tomiak   DB2CSC  04/01/93 15:50 XDBS.DB2M.CNTL(PANSQL#0) creates the
                                DB2M.PANSQL.DBRMLIB and
                                DB2M.PANSQL.OBJLIB on XDB001.
-------- ------- -------- ----- ----------------------------------------
Tomiak   DB2CSC  04/01/93 15:30 XDBS.DB2M.CNTL(PANSQL#v) DDL to create
                                views on SYSIBM tables.
-------- ------- -------- ----- ----------------------------------------
Tomiak   DB2CSC  04/01/93 15:30 XDBS.DB2M.CNTL(PANSQL#G) grants on the
                                SYSIBM tables for the CA-PAN/SQL
                                product.
-------- ------- -------- ----- ----------------------------------------
MUNDO    FMMCSC  04/01/93 11:45 XDBS.DB2M.CNTL(INFOFILE)
                                Allocates the files used by ALTER:
                                DB2M.INFOTOOL.SYSSQL
                                DB2M.INFOTOOL.REBIND
                                DB2M.INFOTOOL.SYSALTER
                                DB2M.INFOTOOL.UNLOAD
                                DB2M.INFOTOOL.RELOAD
-------- ------- -------- ----- ----------------------------------------
-------- ------- -------- ----- ----------------------------------------
LOVARI   MJLCSC  02/18/93 15:00 XDBS.DB2M.CNTL(ABNDTEST)
                                TEST ABENDAID/DB2 PROGRAM
-------- ------- -------- ----- ----------------------------------------
LOVARI   MJLCSC  02/16/93 09:15 XDBS.DB2M.CNTL(ABNDBIND)
                                BIND ABENDAID/DB2 PLAN
-------- ------- -------- ----- ----------------------------------------
LOVARI   MJLCSC  02/16/93 09:00 COPIED DBRMLIB FROM
                                X.Y.Z(MEMBER) TO
                                DB2M.DBRMLIB.DATA(MEMBER)
-------- ------- -------- ----- ----------------------------------------
-------- ------- -------- ----- ----------------------------------------
BORGES   BORGY   01/21/93 16:33 SOFTWARE WAS IMPLEMENTED FROM THE TARGET
                                ZONE TDB2M, DB2M.TARGET.*, TO THE
                                ACTIVE ZONE DB2M, DB2M.*
-------- ------- -------- ----- ----------------------------------------
BORGES   BORGY   01/21/93 16:21 TDB2M, WAS CLONED FROM A LEVEL 9
                                TV2R3 ZONE VIA IMPLEMENTATION DIALOG
-------- ------- -------- ----- ----------------------------------------
Tomiak   DMV0016 12/31/92 16:00 SYS1.PROCLIB(DB2MMSTR) on XCAM01
                                added BSDS to clean up BSDS entries.
-------- ------- -------- ----- ----------------------------------------
BORGES   DB2CSC  12/16/92 15:37 Performed bind on QMF plan after imple-
                                mentation of QMF PTF(UN11002)
                                XDBS.DB2M.CNTL(DSQ3BINJ).
-------- ------- -------- ----- ----------------------------------------
Tomiak   DMV0016 12/12/92 22:00 SYS1.PROCLIB(IRLMDB2M) on XCAM01
                                added MSGABND step if IRLM abends
-------- ------- -------- ----- ----------------------------------------
-------- ------- -------- ----- ----------------------------------------
Borges   Borgy   12/10/92 21:41 SOFTWARE WAS IMPLEMENTED FROM THE TARGET
                                ZONE TDB2M, DB2M.TARGET.*, TO THE
                                ACTIVE ZONE DB2M, DB2M.*
-------- ------- -------- ----- ----------------------------------------
BORGES   BORGY   12/10/92 17:47 TDB2M, WAS CLONED FROM A LEVEL 8
                                TV2R3 ZONE VIA IMPLEMENTATION DIALOG
-------- ------- -------- ----- ----------------------------------------
Tomiak   KETCSC  12/09/92 11:00 Moved new DYNBKUP and BIND imagsql.
-------- ------- -------- ----- ----------------------------------------
-------- ------- -------- ----- ----------------------------------------
MUNDO    FMMCSC  09/11/92 11:52 XDBS.DB2M.CNTL(ItolBIND)
                                BIND replace on Ipkmst plan.
-------- ------- -------- ----- ----------------------------------------
MUNDO    FMMCSC  09/11/92 11:26 XDBS.DB2M.CNTL(batspufi)
                                create stogroup,dtabase,tablespace,index
                                for use by infotool.
-------- ------- -------- ----- ----------------------------------------
-------- ------- -------- ----- ----------------------------------------
MUNDO    FMMCSC  09/09/92 15:05 XDBS.DB2M.CNTL(ItolIMPL)
                                Renames target to active
-------- ------- -------- ----- ----------------------------------------
MUNDO    FMMCSC  09/09/92 15:04 XDBS.DB2M.CNTL(ItoolMIG)
                                Copies INFOtool base libraries to target
-------- ------- -------- ----- ----------------------------------------
Weston   LAWCSC  09/08/92 11:21 Bind Plan 'PCSQLTST' for DB2M using
                                XDBS.DB2M.CNTL(DB2MPCCP) and Grant plan
                                public.
-------- ------- -------- ----- ----------------------------------------
Weston   LAWCSC  09/08/92 10:15 Propagated PC/SQL-Link to DB2M using
                                XDBS.DB2M.CNTL(DB2MPCCP) creating
                                DB2M.PCSQL.CNTL,DB2M.PCSQL.CLIST,
                                DB2M.PCSQL.DBRM, and DB2M.PCSQL.LOAD.
-------- ------- -------- ----- ----------------------------------------
MUNDO    FMMCSC  09/04/92 15:00 XDBS.DB2M.CNTL(IPAKBIND)
                                BIND ADD TPAKDB2 plan.
-------- ------- -------- ----- ----------------------------------------
MUNDO    FMMCSC  09/04/92 13:40 XDBS.DB2M.CNTL(IPAKIMPL)
                                Renames target to active and copies
                                DB2LINK into active DSNEXIT.
-------- ------- -------- ----- ----------------------------------------
MUNDO    FMMCSC  09/04/92 13:35 XDBS.DB2M.CNTL(IPAKMIG)
                                Copies INFOPAK base libraries to target.
-------- ------- -------- ----- ----------------------------------------
-------- ------- -------- ----- ----------------------------------------
MANNY P  MANN    08/18/92 14:35 Ran DSNTINST clist in UPDATE mode.
                                Changed DDF startup option from NO to
                                COMMAND.
                                Renamed: 'XDBS.INSTALL.CNTL(DB2MIJUZ)'
                                TO:      'XDBS.INSTALL.CNTL(DB2MIJU#)'
                                and copied new job into xdbs.install.
                                ctnl as DB2MIJUZ and executed.



                     INSTALL, UPDATE, AND MIGRATE DB2 - MAIN PANEL
 ===>
      _

 Check parameters and reenter to change:

  1  INSTALL TYPE         ===> UPDATE    Install, Update, or Migrate

 Enter the following 2 values for migration only
  2  FROM RELEASE         ===>           1.3 or 2.2
  3  DATA SET NAME(MEMBER)===>

 Enter name of your input data sets (DSNLOAD, DSNMACS, DSNSAMP, DSNCLIST
  4  PREFIX               ===> DB2M
  5  SUFFIX               ===>

 Enter to set or save panel values (by reading or writing the named memb
  6  INPUT MEMBER NAME    ===> DSNTIDMX  Enter to read old panel values
  7  OUTPUT MEMBER NAME   ===> DSNTIDMX  Enter to write new panel values




 PRESS:  ENTER to continue   RETURN to exit   HELP for more information



                  UPDATE DB2 - DATA SET NAMES PANEL 1
 ===>
      _
 DSNT434I Warning,data sets marked with asterisks exist and will be over
 Data sets allocated by the installation CLIST for edited output:
   1  TEMP CLIST LIBRARY ===> DB2M.TARGET.NEW.DSNTEMP
   2  CLIST LIBRARY      ===> DB2M.TARGET.NEW.DSNCLIST
 * 3  SAMPLE LIBRARY     ===> DB2M.DSNSAMP.TEMP

 Data sets allocated by the installation jobs:
   4  DBRM LIBRARY       ===> DB2M.TARGET.DBRMLIB.DATA
   5  APPLICATION LOAD   ===> DB2M.TARGET.RUNLIB.LOAD
   6  DECLARATION LIBRARY===> DB2M.TARGET.SRCLIB.DATA

 Data sets allocated by SMP/E and other methods:
   7  LINK LIST LIBRARY  ===> DB2M.TARGET.DSNLINK
   8  LOAD LIBRARY       ===> DB2M.TARGET.DSNLOAD
   9  MACRO LIBRARY      ===> DB2M.TARGET.DSNMACS
  10  LOAD DISTRIBUTION  ===> DB2M.TARGET.DSNALOAD
  11  EXIT LIBRARY       ===> DB2M.TARGET.DSNEXIT



 PRESS:  ENTER to continue   RETURN to exit   HELP for more information



                  UPDATE DB2 - SELECTION MENU
 ===>
      _

  Select one of the following:

  1  DATA PARAMETERS                     12  IRLM PANEL 1 *
  2  SYSTEM RESOURCE DATA SET NAMES      13  IRLM PANEL 2
  3  DATA SET NAMES PANEL 1              14  PROTECTION
  4  DATA SET NAMES PANEL 2 *            15  MVS PARMLIB UPDATES *
  5  DATA SET NAMES PANEL 3 *            16  ACTIVE LOG DATA SET PARAMET
  6  CICS *                              17  ARCHIVE LOG DATA SET PARAME
  7  SIZES *                             18  DATABASES TO START AUTOMATI
  8  STORAGE SIZES                       19  DISTRIBUTED DATA FACILITY
  9  TRACING                             20  DATA DEFINITION CONTROL SUP
 10  OPERATOR FUNCTIONS                  21  JOB EDITING
 11  APPLICATION PROGRAMMING DEFAULTS




 * None of the fields on these panels can be updated.

 PRESS:  ENTER to continue   RETURN to exit   HELP for more information



                  UPDATE DB2 - DISTRIBUTED DATA FACILITY
 ===>
      _

 Enter data below:

  1 DDF STARTUP OPTION   ===> COMMAND   NO (DDF not startable),
                                        AUTO (automatic start up), or
                                        COMMAND (start by command)
  2 DB2 LOCATION NAME    ===> DB2M              The name other DB2s use
                                                refer to this DB2
  3 DB2 NETWORK LUNAME   ===> MVSXDB2M  The name VTAM uses to refer to t
  4 DB2 NETWORK PASSWORD ===> MVSXDB2M  Password for connecting to other
  5 RLST ACCESS ERROR    ===> NOLIMIT   Action on non-local RLST access
                                        NOLIMIT   - Run without limit
                                        NORUN     - Do not run at all
                                        1-5000000 - Limit in CPU service






 PRESS:  ENTER to continue   RETURN to exit   HELP for more information



                  UPDATE DB2 - CLIST CALCULATIONS - PANEL 1
 ===>
      _

  You may update the EDMPOOL size if necessary.

    1  DSNT485I  EDMPOOL STORAGE SIZE    =     2925  K
    2  DSNT485I  BUFFER POOL SIZE        =     4404  K
    3  DSNT485I  SORT POOL SIZE          =      440  K
    4  DSNT485I  RID POOL SIZE           =     2202  K
    5  DSNT485I  DATA SET STORAGE SIZE   =      720  K
    6  DSNT485I  CODE STORAGE SIZE       =     4200  K
    7  DSNT485I  WORKING STORAGE SIZE    =     1580  K
    8  DSNT486I  TOTAL MAIN STORAGE      =    16471  K
    9  DSNT448I  RECOMMENDED REAL STORAGE=    17496  K
   10  DSNT487I  TOTAL STORAGE BELOW 16M =      452  K (WITH SWA ABOVE 1
   11  DSNT438I  WARNING,
                 IRLM LOCK MAXIMUM SPACE =    78125  K, AVAILABLE =



 PRESS:  ENTER to continue   RETURN to exit   HELP for more information



  NAME     ID      DATE   TIME  DESCRIPTION OF CHANGE
-------- ------- -------- ----- ----------------------------------------
BORGES D BORGY   08/17/92 13:45 Ran the QMF exec DSQCLSTE(DSQ1EINS) to
                                provide information that describes the
                                QMF and DB2 environments


                          QMF INSTALLATION DIALOGS
ISPF Command ===>
                  _




   Currently working on installation into DB2 subsystem DB2M

   You can now re-specify the install parameters, tailor the installatio
   files, install QMF with the tailored files in foreground, quit and ru
   the tailored install files in batch, or quit and return here later.


   ENTER CHOICE HERE        ===> P              ("P" - INPUT PARAMETERS,
                                                 "T" - TAILOR INSTALL FI
                                                 "I" - INSTALL IN FOREGR




   PRESS:  ENTER to continue    PF13 for help    PF03  to end





                          QMF INSTALLATION DIALOGS
ISPF Command ===>
                  _

   INSTALL TYPE             ===> MIGRATION      ("I"-INITIAL, when no pr
                                                     level of QMF exists
                                                     the system.
                                                 "M"-MIGRATION, when a p
                                                     level of QMF does e
                                                     in the system.

   SCOPE OF INSTALL         ===> FULL           ("F"-FULL, when this is
                                                     first QMF V3R1 inst
                                                 "D"-DB ONLY, when insta
                                                     QMF V3R1 into anoth
                                                     database.

   PREVIOUS QMF LEVEL       ===> V2R3           ("V2R2","V2R3","V2R4","V
     (MIGRATION INSTALLS ONLY)


   PRESS:  ENTER to continue    PF13 for help    PF03  to end





                          QMF INSTALLATION DIALOGS
ISPF Command ===>
                  _


   QMF APPLICATION PLAN ID  ===> QMF310

   QMF CATALOG ALIAS        ===> DB2M

   QMF TABLES VOLUME        ===> XDB001











   PRESS:  ENTER to continue    PF13 for help    PF03  to end





                          QMF INSTALLATION DIALOGS
ISPF Command ===>
                  _

   DB2 LOAD LIBRARY         ===> DB2M.DSNLOAD

   DB2 RELEASE LEVEL        ===> 23          ('21'=V2R1,'22'=V2R2,'23'=V

   DB2 SUBSYSTEM ID         ===> DB2M

   DB2 USER CATALOG (ICF)   ===> ICAT.XCSC

   USER CATALOG PASSWORD    ===>

   TABLESPACE PASSWORD      ===>                    (For QMF control tab
     (VSAM)
   DB2 LOCATION NAME        ===>                    (DB2 V2R2 installs o

   DB2 DEFAULT PUNCTUATION  ===> .                  (',' OR '.')
     CHARACTER

   PRESS:  ENTER to continue    PF13 for help    PF03  to end





                          QMF INSTALLATION DIALOGS
ISPF Command ===>
                  _

   Modify the Job cards below to represent your installation requirement
   The "USER" and "PASSWORD" parameters must be specified in systems usi
   RACF. Use a userid with the appropriate authority for the database. S
   the "QUERY MANAGEMENT FACILITY: INSTALLATION GUIDE FOR MVS" publicati
   for more detail.


   If you will be performing the installation in foreground and do not w
   the JCL files to be tailored, enter an 'X' here.  ===>


   JOB STATEMENT INFORMATION:
   ===> //DB2CSCQ JOB (A006,SYTM),10DB2DPB,
   ===> //          CLASS=S,MSGCLASS=V,MSGLEVEL=(1,1),
   ===> //*         USER=Q,PASSWORD=Q
   ===> //*

   PRESS:  ENTER to continue    PF13 for help    PF03  to end





                          QMF INSTALLATION DIALOGS
ISPF Command ===>
                  _




   Currently working on installation into DB2 subsystem DB2M

   You can now re-specify the install parameters, tailor the installatio
   files, install QMF with the tailored files in foreground, quit and ru
   the tailored install files in batch, or quit and return here later.


   ENTER CHOICE HERE        ===> T              ("P" - INPUT PARAMETERS,
                                                 "T" - TAILOR INSTALL FI
                                                 "I" - INSTALL IN FOREGR




   PRESS:  ENTER to continue    PF13 for help    PF03  to end





-------------------------  TSO COMMAND PROCESSOR  ----------------------
ENTER TSO COMMAND, CLIST, OR REXX EXEC BELOW:

===>
     _
-------- ------- -------- ----- ----------------------------------------
BORGES D BORGY   08/12/92 10:48 Changed install sysadms from BORGY and
                                PETE to DB2CSC and CSCDB2 respectively
-------- ------- -------- ----- ----------------------------------------
TOMIAK G DB2CSC  08/07/92 14:19 DB2M, WAS CLONED FROM A LEVEL 5
                                TDB2M ZONE VIA IMPLEMENTATION DIALOG
-------- ------- -------- ----- ----------------------------------------
TOMIAK G DB2CSC  08/07/92 13:57 TDB2M, WAS CLONED FROM A LEVEL 5
                                TV2R3 ZONE VIA IMPLEMENTATION DIALOG
-------- ------- -------- ----- ----------------------------------------
TOMIAK G DB2CSC  08/06/92 15:47 TDB2M, WAS CLONED FROM A LEVEL 5
                                TV2R3 ZONE VIA IMPLEMENTATION DIALOG
-------- ------- -------- ----- ----------------------------------------
Weston   LAWCSC  07/23/92 09:49 XDBS.INSTALL.CNTL(DB2MABND)
                                Rebind PLAN(DBAMONRP) on DB2M.
-------- ------- -------- ----- ----------------------------------------
Weston   LAWCSC  07/22/92 10:15 Assembled DBAPARMS to include the DB2M
                                subsystem. XDBS.INSTALL.CNTL(DB2MAASM)
-------- ------- -------- ----- ----------------------------------------
Weston   LAWCSC  07/21/92 09:15 Propagated DB2 Attach to DB2M using
                                panel 3.2 (create DS) and 3.3 (copy)
                                DB2M.DB2ATCH.CNTL and DB2M.DB2ATCH.LOAD
-------- ------- -------- ----- ----------------------------------------
BORGES   BORGY   06/23/92 10:09 SOFTWARE WAS IMPLEMENTED FROM THE TARGET
                                ZONE TDB2M, DB2M.TARGET.*, TO THE
                                ACTIVE ZONE DB2M, DB2M.*
-------- ------- -------- ----- ----------------------------------------
BORGES   BORGY   06/23/92 10:07 SOFTWARE WAS IMPLEMENTED FROM THE TARGET
                                ZONE TDB2M, DB2M.TARGET.*, TO THE
                                ACTIVE ZONE DB2M, DB2M.*
-------  ------- -------- ----- ----------------------------------------
BORGES   BORGY   06/17/92 14:56 THE DB2M ZONE HAS BE RESTORED FROM
                                IT'S BACKUP, BDB2M. REFER TO THE
                                LVL TRCKING BOARD TO VERIFY LVL BACKOUT
-------- ------- -------- ----- ----------------------------------------
BORGES    BORGY   06/17/92  1:56 Ran fallback release job (DSNTIJFV)
                                to convert BSDS to prior release format
-------- ------- -------- ----- ----------------------------------------
BORGES   BORGY   06/04/92 16:20 SOFTWARE WAS IMPLEMENTED FROM THE TARGET
                                ZONE TDB2M, DB2M.TARGET.*, TO THE
                                ACTIVE ZONE DB2M, DB2M.*
-------- ------- -------- ----- ----------------------------------------

                     INSTALL, UPDATE, AND MIGRATE DB2 - MAIN PANEL
 ===>
      _

 Check parameters and reenter to change:

  1  INSTALL TYPE         ===> MIGRATE   Install, Update, or Migrate

 Enter the following 2 values for migration only
  2  FROM RELEASE         ===> 2.2       1.3 or 2.2
  3  DATA SET NAME(MEMBER)===> DBST.TARGET.DSNSAMP(DSNTIDMX)

 Enter name of your input data sets (DSNLOAD, DSNMACS, DSNSAMP, DSNCLIST
  4  PREFIX               ===> DB2M.TARGET
  5  SUFFIX               ===>

 Enter to set or save panel values (by reading or writing the named memb
  6  INPUT MEMBER NAME    ===> DSNTIDXA  Enter to read old panel values
  7  OUTPUT MEMBER NAME   ===> DSNTIDDB  Enter to write new panel values




 PRESS:  ENTER to continue   RETURN to exit   HELP for more information



                 MIGRATE DB2 - DATA PARAMETERS
 ===>
      _

 Check parameters and reenter to change:

  1  CATALOG ALIAS       ===> DB2M                  Alias of MVS catalog
                                                    DB2 subsystem data s
  2  DEFINE CATALOG      ===> NO                    YES or NO
  3  VOLUME SERIAL 1     ===> XDB001                CLIST allocation
  4  VOLUME SERIAL 2     ===> XDB001                Non-VSAM data
  5  VOLUME SERIAL 3     ===> XDB001                Default, temporary d
  6  VOLUME SERIAL 4     ===> XDB001                Directory, catalog d
  7  VOLUME SERIAL 5     ===> XDB001                Directory, catalog i
  8  VOLUME SERIAL 6     ===> XDB001                Log copy 1, BSDS 2
  9  VOLUME SERIAL 7     ===> XDB001                Log copy 2, BSDS 1
 10  PERMANENT UNIT NAME ===> 3390                  Device type for MVS
                                                    and partitioned data
 11  TEMPORARY UNIT NAME ===> SYSDA                 Device type for
                                                    temporary data sets



 PRESS:  ENTER to continue   RETURN to exit   HELP for more information



                 MIGRATE DB2 - SYSTEM RESOURCE DATA SET NAMES
 ===>
      _

 Enter data below:

 Bootstrap Data Sets (BSDS):
   1 COPY 1 NAME         ===> MVSX.DB2M.BSDS01
   2 COPY 2 NAME         ===> MVSX.DB2M.BSDS02

 Active Logs:
   3 NUMBER OF COPIES    ===> 2        2 or 1.  Number of active log cop
   4 COPY 1 PREFIX       ===> MVSX.DB2M.LOGCOPY1
   5 COPY 2 PREFIX       ===> MVSX.DB2M.LOGCOPY2

 Archive Logs:
   6 NUMBER OF COPIES    ===> 2        2 or 1.  Number of archive log co
   7 COPY 1 PREFIX       ===> MVSX.DB2M.ARCHLOG1
   8 COPY 2 PREFIX       ===> MVSX.DB2M.ARCHLOG2
   9 TIMESTAMP ARCHIVES  ===> NO       YES or NO



 PRESS:  ENTER to continue   RETURN to exit   HELP for more information



                 MIGRATE DB2 - DATA SET NAMES PANEL 1
 ===>
      _

 Data sets allocated by the installation CLIST for edited output:
   1  TEMP CLIST LIBRARY ===> DB2M.TARGET.NEW.DSNTEMP
   2  CLIST LIBRARY      ===> DB2M.TARGET.NEW.DSNCLIST
   3  SAMPLE LIBRARY     ===> DB2M.TARGET.NEW.DSNSAMP

 Data sets allocated by the installation jobs:
   4  DBRM LIBRARY       ===> DB2M.TARGET.DBRMLIB.DATA
   5  APPLICATION LOAD   ===> DB2M.TARGET.RUNLIB.LOAD
   6  DECLARATION LIBRARY===> DB2M.TARGET.SRCLIB.DATA

 Data sets allocated by SMP/E and other methods:
   7  LINK LIST LIBRARY  ===> DB2M.TARGET.DSNLINK
   8  LOAD LIBRARY       ===> DB2M.TARGET.DSNLOAD
   9  MACRO LIBRARY      ===> DB2M.TARGET.DSNMACS
  10  LOAD DISTRIBUTION  ===> DB2M.TARGET.DSNALOAD
  11  EXIT LIBRARY       ===> DB2M.TARGET.DSNEXIT



 PRESS:  ENTER to continue   RETURN to exit   HELP for more information



                 MIGRATE DB2 - DATA SET NAMES PANEL 2
 ===>
      _

 Enter data set names below:
  1  ASSEMBLER            ===>
  2  C COMPILER           ===> EDC.V1R1M0.SEDCCOMP
  3  C COMPILER MESSAGES  ===> EDC.V1R1M0.SEDCMSGS
  4  C LIBRARY HEADERS    ===> EDC.V1R1M0.SEDCHDRS
  5  C LINK EDIT STUBS    ===> EDC.V1R1M0.SEDCBASE
  6  C DYNAMIC RUNTIME    ===> EDC.V1R1M0.SEDCLINK
  7  COBOL COMPILER       ===>
  8  COBOL LINK EDIT      ===> SYS1.COBLIB
  9  VS COBOL II COMPILER ===>
 10  VS COBOL II LINK     ===> SYS1.V1R3.COB2LIB
 11  COMMON LINK EDIT     ===> PLI.V2R2M0.SIBMBASE
 12  COMMON DYNAMIC       ===> PLI.V2R2M0.SIBMLINK
 13  FORTRAN COMPILER     ===>
 14  FORTRAN LINK EDIT    ===> SYS1.VFORTLIB
 15  PL/I COMPILER        ===>
 16  PL/I LINK EDIT       ===> SYS1.PLIBASE


 PRESS:  ENTER to continue   RETURN to exit   HELP for more information



                 MIGRATE DB2 - DATA SET NAMES PANEL 3
 ===>
      _

 Enter data set names below:
  1  SYSTEM MACLIB        ===> SYS1.MACLIB
  2  SYSTEM PROCEDURES    ===> XDBS.MVSX.PROCLIB
  3  SORT LIBRARY         ===> SYS1.SORTLIB
  4  IMS RESLIB           ===> IMSVS.RESLIB
  5  ISPF ISPLINK MODULE  ===> ISP.V2R3M0.ISPLOAD













 PRESS:  ENTER to continue   RETURN to exit   HELP for more information



                 MIGRATE DB2 - CICS                        ENTER REQUIRE
 ===>
      _

 Enter data below:

  1 CICS RELEASE         ===> 3         0 = not using CICS
                                        1 = CICS/OS/VS 1.7.0
                                        2 = CICS/MVS 2.1
                                        3 = CICS/ESA 3.1.1 or 3.2

  2 CICS COBOL LIBRARY   ===> CICS170.COBLIB
  3 CICS COBOL II LIBRARY===> SYS1.COB2CICS
  4 CICS PL/I  LIBRARY   ===> CICS170.PL1LIB
  5 CICS LOADLIB         ===> CICS170.LOADLIB

 The following fields are required if option 3 was selected in field 1;
 they are optional if option 2 was selected in field 1:
  6 CSD NAME (FOR RDO)   ===> CIVS.TEST.DFHCSD
  7 GROUP NAME           ===> DB2GRP    CICS RDO group name
  8 NEW GROUP            ===> YES       YES or NO
  9 LIST NAME            ===> TESTAUTO  CICS RDO list name

 PRESS:  ENTER to continue   RETURN to exit   HELP for more information



                 MIGRATE DB2 - SIZES
 ===>
      _

 Check numbers and reenter to change:

  1  DATABASES          ===> 20         In this subsystem
  2  TABLES             ===> 10         Per database (average)
  3  COLUMNS            ===> 10         Per table (average)
  4  VIEWS              ===> 3          Per table (average)
  5  TABLE SPACES       ===> 10         Per database (average)
  6  PLANS              ===> 200        In this subsystem
  7  PLAN STATEMENTS    ===> 30         SQL statements per plan (average
  8  PACKAGES           ===> 300        In this subsystem
  9  PACKAGE STATEMENTS ===> 10         SQL statements per package (aver
 10  PACKAGE LIST SIZE  ===> 2          Package lists per plan (average)
 11  EXECUTED STMTS     ===> 15         SQL statements executed (average
 12  TABLES IN STMT     ===> 2          Tables per SQL statement (averag
 13  TEMP 4K SPACE      ===> 16777216   Bytes of 4K-page work space
 14  TEMP 4K DATA SETS  ===> 1          Number of data sets for 4K data
 15  TEMP 32K SPACE     ===> 4194304    Bytes of 32K-page work space
 16  TEMP 32K DATA SETS ===> 1          Number of data sets for 32K data

 PRESS:  ENTER to continue   RETURN to exit   HELP for more information



                 MIGRATE DB2 - STORAGE SIZES
 ===>
      _

 Check numbers and reenter to change:

  1  DATABASES         ===> 20         Concurrently in use
  2  MAX USERS         ===> 30         Concurrently running in DB2
  3  MAX REMOTE        ===> 2          Remotely accessing data in DB2
  4  MAX TSO CONNECT   ===> 100        Users on QMF or in DSN command
  5  MAX BATCH CONNECT ===> 20         Users in DSN command or utilities
  6  MIN BP0 BUFFERS   ===> 1000       Minimum number of buffers in BP0
  7  MAX BP0 BUFFERS   ===> 1000       Maximum number of buffers in BP0
  8  MIN BP1 BUFFERS   ===> 5          Minimum number of buffers in BP1
  9  MAX BP1 BUFFERS   ===> 5          Maximum number of buffers in BP1
 10  MIN BP2 BUFFERS   ===> 0          Minimum number of buffers in BP2
 11  MAX BP2 BUFFERS   ===> 0          Maximum number of buffers in BP2
 12  MIN BP32K BUFFERS ===> 12         Minimum number of buffers in BP32
 13  MAX BP32K BUFFERS ===> 12         Maximum number of buffers in BP32




 PRESS:  ENTER to continue   RETURN to exit   HELP for more information



                 MIGRATE DB2 - TRACING
 ===>
      _

 Enter data below:

  1  AUDIT TRACE      ===> NO          Audit classes to start. NO,YES,li

  2  TRACE AUTO START ===> NO          Global classes to start. YES, NO,
  3  TRACE SIZE       ===> 65536       Trace table size in bytes.  4K-39

  4  SMF ACCOUNTING   ===> 1           Accounting classes to start. NO,Y
  5  SMF STATISTICS   ===> YES         Statistics classes to start. NO,Y
  6  STATISTICS TIME  ===> 30          Time interval in minutes.  1-1440

  7  MONITOR TRACE    ===> NO          Monitor classes to start. NO, YES
  8  MONITOR SIZE     ===> 8192        Default monitor buffer size. 8K-1

  9  CHECKPOINT FREQ  ===> 1000        Number of log records per checkpo




 PRESS:  ENTER to continue   RETURN to exit   HELP for more information



                 MIGRATE DB2 - OPERATOR FUNCTIONS
 ===>
      _

 Enter data below:

  1  WTO ROUTE CODES    ===> 1
                                        Routing codes for WTORs
  2  RECALL DATABASE    ===> YES        Use DFHSM automatic recall. YES
  3  RECALL DELAY       ===> 120        Seconds to wait for automatic re

  4  RLF AUTO START     ===> NO         Resource Limit Facility.  NO or
  5  RLST NAME SUFFIX   ===> 01         Resource Limit Spec. Table (RLST
  6  RLST ACCESS ERROR  ===> NOLIMIT    Action on RLST access error. Val
                                        NOLIMIT - Run without limit
                                        NORUN   - Do not run at all
                                        1-5000000 - Limit in CPU service

  7  DSNZPARM NAME      ===> DSNZPARM   Enter name of new DB2 parameter
  8  AUTO BIND          ===> YES        Use automatic bind. YES or NO
  9  SITE TYPE          ===> LOCALSITE    LOCALSITE or RECOVERYSITE


 PRESS:  ENTER to continue   RETURN to exit   HELP for more information



                 MIGRATE DB2 - APPLICATION PROGRAMMING DEFAULTS
 ===>
      _

 Enter data below:

  1  LANGUAGE DEFAULT     ===> COB2     ASM, ASMH, C, COBOL, COB2, FORTR
  2  DECIMAL POINT IS     ===> .        . or ,
  3  MINIMUM DIVIDE SCALE ===> NO       NO or YES for a minimum of 3 dig
                                        to right of decimal after divisi
  4  STRING DELIMITER     ===> DEFAULT  DEFAULT, " or ' (COBOL or COB2 o
  5  SQL STRING DELIMITER ===> DEFAULT  DEFAULT, " or '
  6  MIXED DATA           ===> NO       NO or YES for mixed DBCS data
  7  CODED CHARACTER SET  ===> 37       The CCSID of your SBCS or mixed
  8  DATE FORMAT          ===> ISO      ISO, JIS, USA, EUR, LOCAL
  9  TIME FORMAT          ===> ISO      ISO, JIS, USA, EUR, LOCAL
 10  LOCAL DATE LENGTH    ===> 0        0 (no exit), or value between 10
 11  LOCAL TIME LENGTH    ===> 0        0 (no exit), or value between  8
 12  STD SQL LANGUAGE     ===> NO       NO or 86
 13  DECIMAL ARITHMETIC   ===> DEC15    DEC15, DEC31, 15, 31



 PRESS:  ENTER to continue   RETURN to exit   HELP for more information



                 MIGRATE DB2 - IRLM PANEL 1
 ===>
      _

 Enter data below:

  1  INSTALL IRLM       ===> YES        IRLM is required for DB2. Should
                                        IRLM distributed with DB2 be ins
  2  SUBSYSTEM NAME     ===> IRLM       IRLM MVS subsystem name
  3  RESOURCE TIMEOUT   ===> 60         Seconds to wait for unavailable
  4  TIME INTERVAL      ===> 500        Milliseconds between lock proces
  5  AUTO START         ===> YES        Start IRLM if not up. YES or NO
  6  PROC NAME          ===> IRLMDB2M   Name of start procedure for IRLM
  7  TIME TO AUTOSTART  ===> 300        Time DB2 will wait for IRLM auto









 PRESS:  ENTER to continue   RETURN to exit   HELP for more information



                 MIGRATE DB2 - IRLM PANEL 2
 ===>
      _

 Enter data below:

  1  CROSS MEMORY           ===> NO        Local storage and cross memor
  2  MAXIMUM ECSA           ===> 5242880   Control block storage (1M - 9
  3  LOCKS PER TABLE(SPACE) ===> 1000      Maximum before lock escalatio
  4  LOCKS PER USER         ===> 10000     Maximum before resource unava
  5  PARTNER                ===>           VTAM name of other IRLM.  Req
                                           for intersystem communication
  6  IDENTIFIER             ===> 1         Number for this IRLM (1-8)
  7  DEADLOCK TIME          ===> 15        Detection interval in seconds
  8  DEADLOCK CYCLE         ===> 4         Number of LOCAL cycles before
  9  INTERNAL TRACE         ===> NO        Automatic start of tracing







 PRESS:  ENTER to continue   RETURN to exit   HELP for more information


                 MIGRATE DB2 - PROTECTION
 ===>
      _

 Enter data below:

  1  MVS CATALOG       ===>            MVS catalog control password
  2  BSDS PASSWORD     ===>            Bootstrap data sets password
  3  LOG PASSWORD      ===>            Active log data sets password
  4  ARCHIVE LOG PW    ===>            Archive log data sets password
  5  ARCHIVE LOG RACF  ===> NO         RACF protect archive log data set
  6  DIRECTORY/CATALOG ===>            DB2 directory and catalog passwor
  7  USE PROTECTION    ===> YES        DB2 authorization enabled.  YES o
  8  SYSTEM ADMIN 1    ===> BORGY      Authid of system administrator
  9  SYSTEM ADMIN 2    ===> PETE       Authid of system administrator
 10  SYSTEM OPERATOR 1 ===> SYSOPR     Authid of system operator
 11  SYSTEM OPERATOR 2 ===> SYSOPR     Authid of system operator
 12  UNKNOWN AUTHID    ===> UNKNOWN    Authid of default (unknown) user
 13  RESOURCE AUTHID   ===> SYSIBM     Authid of Resource Limit Table cr




 PRESS:  ENTER to continue   RETURN to exit   HELP for more information



                 MIGRATE DB2 - MVS PARMLIB UPDATES
 ===>
      _

 Check data and reenter to change:

  1  SUBSYSTEM NAME      ===> DB2M       Name for connecting to DB2
  2  SUBSYSTEM PREFIX    ===> @          One character to denote subsyst
  3  SUBSYSTEM MEMBER    ===> 00         xx in IEFSSNxx
  4  SUBSYSTEM SEQUENCE  ===> 88888888   Sequence number for insertion
  5  AUTH MEMBER         ===> 00         xx in IEAAPFxx APF member name
  6  AUTH SEQUENCE       ===> 88888888   Sequence number for insertion
  7  LINK LIST ENTRY     ===> 00         xx in LNKLSTxx for DSNLINK
  8  LINK LIST SEQUENCE  ===> 88888888   Sequence number for insertion









 PRESS:  ENTER to continue   RETURN to exit   HELP for more information



                 MIGRATE DB2 - ACTIVE LOG DATA SET PARAMETERS
 ===>
      _

 Enter data below:

   1 NUMBER OF LOGS    ===> 3        Number data sets per active log cop
   2 INPUT BUFFER      ===> 28672    Size in bytes (28K-60K)
   3 OUTPUT BUFFER     ===> 409600   Size in bytes (40K-4000K)
   4 WRITE THRESHOLD   ===> 20       Buffers filled before write (1-256)
   5 ARCHIVE LOG FREQ  ===> 6        Hours per archive run
   6 UPDATE RATE       ===> 5        Updates, inserts, and deletes per h











 PRESS:  ENTER to continue   RETURN to exit   HELP for more information



                 MIGRATE DB2 - ARCHIVE LOG DATA SET PARAMETERS
 ===>
      _

 Enter data below:

   1  ALLOCATION UNITS ===> BLK       Blk, Trk, or Cyl
   2  PRIMARY QUANTITY ===>           Primary space allocation
   3  SECONDARY QTY.   ===>           Secondary space allocation
   4  CATALOG DATA     ===> YES       YES or NO to catalog archive data
   5  DEVICE TYPE      ===> SYSDA     Unit name for archive logs
   6  BLOCK SIZE       ===> 28672     Rounded up to 4096 multiple
   7  MAX CONCURRENT   ===> 3         Number of input volumes allocated
   8  RECORDING MAX    ===> 500       Number of data sets recorded in BS
   9  MSVGP 1          ===>           Mass storage volume group (MSVGP)
  10  MSVGP 2          ===>           MSVGP for second archive copy
  11  WRITE TO OPER    ===> NO        Issue WTOR before mount for archiv
  12  WTOR ROUTE CODE  ===> 1,3,4
                                      Routing codes for archive WTORs
  13  RETENTION PERIOD ===> 14        Days to retain archive log data se
  14  QUIESCE PERIOD   ===> 5         Maximum quiesce interval (1-999)
  15  COMPACT DATA     ===> NO        YES or NO for data compaction

 PRESS:  ENTER to continue   RETURN to exit   HELP for more information



                 MIGRATE DB2 - DATABASES AND SPACES TO START AUTOMATICAL
 ===>
      _

 Enter data below:

  1  ===> RESTART       RESTART or DEFER the objects named below.
     The objects to restart or defer may be ALL in item 2, a database
     name, or database name.space name.

  2  ==> ALL               14  ==>                   26  ==>
  3  ==>                   15  ==>                   27  ==>
  4  ==>                   16  ==>                   28  ==>
  5  ==>                   17  ==>                   29  ==>
  6  ==>                   18  ==>                   30  ==>
  7  ==>                   19  ==>                   31  ==>
  8  ==>                   20  ==>                   32  ==>
  9  ==>                   21  ==>                   33  ==>
 10  ==>                   22  ==>                   34  ==>
 11  ==>                   23  ==>                   35  ==>
 12  ==>                   24  ==>                   36  ==>
 13  ==>                   25  ==>                   37  ==>

 PRESS:  ENTER to continue   RETURN to exit   HELP for more information




                 MIGRATE DB2 - DISTRIBUTED DATA FACILITY
 ===>
      _

 Enter data below:

  1 DDF STARTUP OPTION   ===> NO        NO (DDF not startable),
                                        AUTO (automatic start up), or
                                        COMMAND (start by command)
  2 DB2 LOCATION NAME    ===> DB2M              The name other DB2s use
                                                refer to this DB2
  3 DB2 NETWORK LUNAME   ===> MVSXDB2M  The name VTAM uses to refer to t
  4 DB2 NETWORK PASSWORD ===> MVSXDB2M  Password for connecting to other
  5 RLST ACCESS ERROR    ===> NOLIMIT   Action on non-local RLST access
                                        NOLIMIT   - Run without limit
                                        NORUN     - Do not run at all
                                        1-5000000 - Limit in CPU service






 PRESS:  ENTER to continue   RETURN to exit   HELP for more information



                 MIGRATE DB2 - DATA DEFINITION CONTROL SUPPORT
 ===>
      _

 Enter data below:

  1 INSTALL DD CONTROL SUPT. ===> NO        YES - activate the support
                                            NO  - omit DD control suppor
  2 CONTROL ALL APPLICATIONS ===> NO        YES or NO
  3 REQUIRE FULL NAMES       ===> YES       YES or NO
  4 UNREGISTERED DDL DEFAULT ===> ACCEPT    Action for unregistered DDL:
                                            ACCEPT - allow it
                                            REJECT - prohibit it
                                            APPL   - consult ART

  5 REGISTRATION OWNER       ===> DSNRGCOL          Qualifier for ART an
  6 REGISTRATION DATABASE    ===> DSNRGFDB          Database name
  7 APPL REGISTRATION TABLE  ===> DSN_REGISTER_APPL Table name
  8 OBJT REGISTRATION TABLE  ===> DSN_REGISTER_OBJT Table name

 Note: ART = Application Registration Table
       ORT = Object      Registration Table

 PRESS:  ENTER to continue   RETURN to exit   HELP for more information



                 MIGRATE DB2 - JOB EDITING
 ===>
      _

 Enter data below:

  1  REMOTE LOCATION   ===> DB2X             Remote location for COBOL
                                             organization application
  2  COBOL TYPE        ===> COBOL            COBOL for sample applicatio
                                             (COBOL OR COB2)

 Enter job card information for install and sample jobs:

  3 ===> //BORGYV JOB (A006,SYTM,99,99),'10DB2DPB',CLASS=S,MSGCLASS=V,
  4 ===> // REGION=4M
  5 ===>
  6 ===>






 PRESS:  ENTER to continue   RETURN to exit   HELP for more information



                 MIGRATE DB2 - CLIST CALCULATIONS - PANEL 1
 ===>
      _

  You may update the EDMPOOL size if necessary.

    1  DSNT485I  EDMPOOL STORAGE SIZE    =     2925  K
    2  DSNT485I  BUFFER POOL SIZE        =     4404  K
    3  DSNT485I  SORT POOL SIZE          =      440  K
    4  DSNT485I  RID POOL SIZE           =     2202  K
    5  DSNT485I  DATA SET STORAGE SIZE   =      720  K
    6  DSNT485I  CODE STORAGE SIZE       =     4200  K
    7  DSNT485I  WORKING STORAGE SIZE    =     1580  K
    8  DSNT486I  TOTAL MAIN STORAGE      =    16471  K
    9  DSNT448I  RECOMMENDED REAL STORAGE=    17496  K
   10  DSNT487I  TOTAL STORAGE BELOW 16M =      452  K (WITH SWA ABOVE 1
   11  DSNT438I  WARNING,
                 IRLM LOCK MAXIMUM SPACE =    78125  K, AVAILABLE =



 PRESS:  ENTER to continue   RETURN to exit   HELP for more information



-------- ------- -------- ----- ----------------------------------------
BORGES   BORGY   06/02/92 10:03 TDB2M, WAS CLONED FROM A LEVEL 4
                                TV2R3 ZONE VIA IMPLEMENTATION DIALOG
-------- ------- -------- ----- ----------------------------------------
SOPPITT  DB2CSC  05/29/92 15:00 Execute RUNSTATS on DB2M catalog.
-------- ------- -------- ----- ----------------------------------------
SOPPITT  DB2CSC  05/26/92 13:30 Job DB2MQRCL executed to recluster sel-
                                ected catlg/directory tablespaces after
                                maintenance applied.
-------- ------- -------- ----- ----------------------------------------
TOMIAK G DB2CSC  05/22/92 16:24 SOFTWARE WAS IMPLEMENTED FROM THE TARGET
                                ZONE TDB2M, DB2M.TARGET.*, TO THE
                                ACTIVE ZONE DB2M, DB2M.*
-------- ------- -------- ----- ----------------------------------------
TOMIAK G DB2CSC  05/22/92 15:39 TDB2M, WAS CLONED FROM A LEVEL 2
                                TDBST ZONE VIA IMPLEMENTATION DIALOG
-------- ------- -------- ----- ----------------------------------------
TOMIAK   DMV0016 12/04/91 15:45 LEVEL 02 DB2M.TARGET.*
                                CLONE FROM DBST
-------- ------- -------- ----- ----------------------------------------
-------- ------- -------- ----- ----------------------------------------
Soppitt  PETE    11/05/91 16:00 Test sample CICS/DB2 applications in
                                CICSPRDR/DB2M on MVSX:-
                                 D8CS - Abend ASRA
                                 D8PP - Abend APCP
                                 D8ps - Abend APLE
-------- ------- -------- ----- ----------------------------------------
Soppitt  PETE    11/05/91 15:45 Run Job DB2MEJ5C - Install sample CICS
                                application for PL/I.
-------- ------- -------- ----- ----------------------------------------
Soppitt  PETE    11/04/91 16:35 Run Job DB2MEJ5C - Install sample CICS
                                application for COBOL.
-------- ------- -------- ----- ----------------------------------------
Soppitt  PETE    11/04/91 13:46 Run Job DB2MEJ2P - Test PL/1 program
                                Preparation procedures.
-------- ------- -------- ----- ----------------------------------------
Soppitt  PETE    11/04/91 13:21 Run Job DB2MEJ2C - Test COBOL program
                                Preparation procedures.
-------- ------- -------- ----- ----------------------------------------
Soppitt  PETE    11/04/91 12:45 Run Job DB2MEJ2A - Test ASM program
                                Preparation procedures.
-------- ------- -------- ----- ----------------------------------------
Soppitt  PETE    11/04/91 11:10 Run Job DB2MEJ1P - BIND Plan DSNTEP22
                                & execute prog. DSNTEP2.
-------- ------- -------- ----- ----------------------------------------
Soppitt  PETE    11/01/91 17:05 Run Job DB2MEJ1 - Initial IVP job.
                                creates/loads sample tables.
-------- ------- -------- ----- ----------------------------------------
Soppitt  PETE    11/01/91 16:14 Run Job DB2MEJ0 to clean up stuff from
                                DB2MEJ1.
-------- ------- -------- ----- ----------------------------------------
Soppitt  PETE    11/01/91 15:43 Edit 'XDBS.MVSX.PROCLIB' to correct
                                precompiler procs.
-------- ------- -------- ----- ----------------------------------------
Soppitt  PETE    11/01/91 14:54 Run Job DB2MEJ1 - Initial IVP job.
                                creates/loads sample tables.  Abended
                                because of bad precomp. procs.
-------- ------- -------- ----- ----------------------------------------
Soppitt  PETE    11/01/91 13:38 Run Job DB2MIJIC to image-copy all db2
                                catlg/drctry tblspcs (to disk).
 ------- ------- -------- ----- ----------------------------------------
Soppitt  PETE    11/01/91 13:20 Run Job DB2MIJSG (see job for process'g)
-------- ------- -------- ----- ----------------------------------------
Soppitt  PETE    11/01/91 12:25 Run Job DB2MIJTM to create temporary
                                database, DSNDB07.
-------- ------- -------- ----- ----------------------------------------
Soppitt  PETE    11/01/91 11:05 @START DB2
                                DB2M started successfully for 1st time!
-------- ------- -------- ----- ----------------------------------------
Soppitt  DD20001 11/01/91 10:50 Run Job DB2MIJUZ to assemble DSNZPARM
                                DSNHEDCP modules.
-------- ------- -------- ----- ----------------------------------------
Soppitt  PETE    11/01/91 10:05 Run Job DB2MIJID to load catlg/directory
                                Tablespaces.
-------- ------- -------- ----- ----------------------------------------
Soppitt  DD20001 10/31/91 17:30 edit precompiler proc's in library
                                'XDBS.MVSX.PROCLIB' to change high-level
                                qualifier of DB2 libraries to symbolic
                                parameter.
-------- ------- -------- ----- ----------------------------------------
Soppitt  DD20001 10/31/91 16:50 Run Job DB2MIJMV to load DB2 startup,
                                precompiler and utility proc's to
                                'XDBS.MVSX.PROCLIB'.  Step to update
                                PARMLIB members was removed.
-------- ------- -------- ----- ----------------------------------------
Soppitt  DD20001 10/31/91 12:01 Run Job DB2MIJIN to define bsds/logs &
                                catalog/directory clusters.
-------- ------- -------- ----- ----------------------------------------
Soppitt  DD20010 10/30/91 17:20 Execute IPOUPDTE to update library
                                'MVSX.DB2M.SAMPLIB' replacing string
                                'DBSETGT.DSN220' with 'DB2M' in all
                                members.
-------- ------- -------- ----- ----------------------------------------
Soppitt  DD20010 10/30/91 12:00 Using SMP/E Target Libraries with 9102
                                Putlevel, executed DSNTINST Clist and
                                chose initial values. See below:



                     INSTALL, UPDATE, AND MIGRATE DB2 - MAIN PANEL
 ===>
      _

 Check parameters and reenter to change:

  1  INSTALL TYPE         ===> INSTALL   Install, Update, or Migrate

 Enter the following 2 values for migration only
  2  FROM RELEASE         ===>           1.3 or 2.1
  3  DATA SET NAME(MEMBER)===>

 Enter name of your input data sets (DSNLOAD, DSNMACS, DSNSAMP, DSNCLIST
  4  PREFIX               ===> DBSETGT.DSN220
  5  SUFFIX               ===>

 Enter to set or save panel values (by reading or writing the named memb
  6  INPUT MEMBER NAME    ===> DSNTIDXA  Enter to read old panel values
  7  OUTPUT MEMBER NAME   ===> DSNTIDMX  Enter to write new panel values

 Enter name to create edited JCL and CLIST output:
  8  DATA SET NAME PREFIX ===> MVSX.DB2M

 PRESS:  ENTER to continue   END to exit   HELP for more information



                 INSTALL DB2 - DATA PARAMETERS
 ===>
      _

 Check parameters and reenter to change:

  1  CATALOG ALIAS       ===> DB2M                  Alias of ICF catalog
                                                    DB2 subsystem data s
  2  DEFINE CATALOG      ===> NO                    YES or NO
  3  VOLUME SERIAL 1     ===> XDB001                Volume 1 for DB2 dat
  4  VOLUME SERIAL 2     ===>                       Volume 2 for DB2 dat
  5  VOLUME SERIAL 3     ===>                       Volume 3 for DB2 dat
  6  VOLUME SERIAL 4     ===>                       Volume 4 for DB2 dat
  7  VOLUME SERIAL 5     ===>                       Volume 5 for DB2 dat
  8  VOLUME SERIAL 6     ===>                       Volume 6 for DB2 dat
  9  PERMANENT UNIT NAME ===> 3390                  Device type for ICF
                                                    and partitioned data
 10  TEMPORARY UNIT NAME ===> SYSDA                 Device type for
                                                    temporary data sets




 PRESS:  ENTER to continue   END to exit   HELP for more information



                 INSTALL DB2 - SIZES
 ===>
      _

 Check numbers and reenter to change:

  1  DATABASES          ===> 20         In this subsystem
  2  TABLES             ===> 10         Per database (average)
  3  COLUMNS            ===> 10         Per table (average)
  4  VIEWS              ===> 3          Per table (average)
  5  TABLE SPACES       ===> 10         Per database (average)
  6  PLANS              ===> 200        In this subsystem
  7  PLAN STATEMENTS    ===> 30         SQL statements per plan (average
  8  EXECUTED STMTS     ===> 15         SQL statements executed (average
  9  TABLES IN STMT     ===> 2          Tables per SQL statement (averag
 10  TEMP 4K SPACE      ===> 16M        Bytes of 4K-page work space
 11  TEMP 4K DATA SETS  ===> 1          Number of data sets for 4K data
 12  TEMP 32K SPACE     ===> 4M         Bytes of 32K-page work space
 13  TEMP 32K DATA SETS ===> 1          Number of data sets for 32K data
 14  ARCHIVE LOG FREQ   ===> 6          Hours per archive run
 15  UPDATE RATE        ===> 5          Updates, inserts, and deletes pe


 PRESS:  ENTER to continue   END to exit   HELP for more information



                 INSTALL DB2 - STORAGE SIZES
 ===>
      _

 Check numbers and reenter to change:

  1  DATABASES         ===> 20         Concurrently in use
  2  MAX USERS         ===> 30         Concurrently running in DB2
  3  MAX REMOTE        ===> 2          Remotely accessing data in DB2
  4  MAX TSO CONNECT   ===> 100        Users on QMF or in DSN command
  5  MAX BATCH CONNECT ===> 20         Users in DSN command or utilities
  6  MIN BP0 BUFFERS   ===> 1000       Minimum number of buffers in BP0
  7  MAX BP0 BUFFERS   ===> 1000       Maximum number of buffers in BP0
  8  MIN BP1 BUFFERS   ===> 5          Minimum number of buffers in BP1
  9  MAX BP1 BUFFERS   ===> 5          Maximum number of buffers in BP1
 10  MIN BP2 BUFFERS   ===> 0          Minimum number of buffers in BP2
 11  MAX BP2 BUFFERS   ===> 0          Maximum number of buffers in BP2
 12  MIN BP32K BUFFERS ===> 12         Minimum number of buffers in BP32
 13  MAX BP32K BUFFERS ===> 12         Maximum number of buffers in BP32




 PRESS:  ENTER to continue   END to exit   HELP for more information



                 INSTALL DB2 - TRACING
 ===>
      _

 Enter data below:

  1  AUDIT TRACE      ===> NO          Audit classes to start. NO,YES,li

  2  TRACE AUTO START ===> NO          Global classes to start. YES, NO,
  3  TRACE SIZE       ===> 64K         Trace table size in bytes.  4K-39

  4  SMF ACCOUNTING   ===> 1           Accounting classes to start. NO,Y
  5  SMF STATISTICS   ===> YES         Statistics classes to start. NO,Y
  6  STATISTICS TIME  ===> 30          Time interval in minutes.  1-1440

  7  MONITOR TRACE    ===> NO          Monitor classes to start. NO, YES
  8  MONITOR SIZE     ===> 8K          Default monitor buffer size. 8K-1

  9  CHECKPOINT FREQ  ===> 1000        Number of log records per checkpo




 PRESS:  ENTER to continue   END to exit   HELP for more information



                 INSTALL DB2 - OPERATOR FUNCTIONS
 ===>
      _

 Enter data below:

  1  WTO ROUTE CODES    ===> 1
                                        Routing codes for WTORs
  2  RECALL DATABASE    ===> YES        Use HSM automatic recall. YES or
  3  RECALL DELAY       ===> 120        Seconds to wait for automatic re

  4  RLF AUTO START     ===> NO         Resource Limit Facility.  NO or
  5  RLST NAME SUFFIX   ===> 01         Resource Limit Spec. Table (RLST
  6  RLST ACCESS ERROR  ===> NOLIMIT    Action on RLST access error. Val
                                        NOLIMIT - Run without limit
                                        NORUN   - Do not run at all
                                        1-5000000 - Limit in CPU service

  7  DSNZPARM NAME      ===> DSNZPARM   Enter name of new DB2 parameter



 PRESS:  ENTER to continue   END to exit   HELP for more information




                 INSTALL DB2 - APPLICATION PROGRAMMING DEFAULTS
 ===>
      _

 Enter data below:

  1  LANGUAGE DEFAULT     ===> COB2     ASM, ASMH, C, COBOL, COB2, FORTR
  2  DECIMAL POINT IS     ===> .        . or ,
  3  MINIMUM DIVIDE SCALE ===> NO       NO or YES for a minimum of 3 dig
                                        to right of decimal after divisi
  4  STRING DELIMITER     ===> DEFAULT  DEFAULT, " or '
  5  SQL STRING DELIMITER ===> DEFAULT  DEFAULT, " or '
  6  MIXED DATA           ===> NO       NO or YES for mixed DBCS data
  7  CHARACTER SET        ===> ALPHANUM ALPHANUM or KATAKANA
  8  DATE FORMAT          ===> ISO      ISO, JIS, USA, EUR, LOCAL
  9  TIME FORMAT          ===> ISO      ISO, JIS, USA, EUR, LOCAL
 10  LOCAL DATE LENGTH    ===> 0        0 (no exit), or value between 10
 11  LOCAL TIME LENGTH    ===> 0        0 (no exit), or value between  8
 12  STD SQL LANGUAGE     ===> NO       NO or 86



 PRESS:  ENTER to continue   END to exit   HELP for more information




                 INSTALL DB2 - IRLM PANEL 1
 ===>
      _

 Enter data below:

  1  INSTALL IRLM       ===> YES        IRLM is required for DB2. Should
                                        IRLM distributed with DB2 be ins
  2  SUBSYSTEM NAME     ===> IRLM       IRLM MVS subsystem name
  3  RESOURCE TIMEOUT   ===> 60         Seconds to wait for unavailable
  4  TIME INTERVAL      ===> 500        Milliseconds between lock proces
  5  AUTO START         ===> YES        Start IRLM if not up. YES or NO
  6  PROC NAME          ===> IRLMDB2M   Name of start procedure for IRLM
  7  TIME TO AUTOSTART  ===> 300        Time DB2 will wait for IRLM auto









 PRESS:  ENTER to continue   END to exit   HELP for more information



                 INSTALL DB2 - IRLM PANEL 2
 ===>
      _

 Enter data below:

  1  CROSS MEMORY           ===> NO        Local storage and cross memor
  2  MAXIMUM ECSA           ===> 5M        Control block storage (1M - 9
  3  LOCKS PER TABLE(SPACE) ===> 1000      Maximum before lock escalatio
  4  LOCKS PER USER         ===> 10000     Maximum before resource unava
  5  PARTNER                ===>           VTAM name of other IRLM.  Req
                                           for intersystem communication
  6  IDENTIFIER             ===> 1         Number for this IRLM (1-8)
  7  DEADLOCK TIME          ===> 15        Detection interval in seconds
  8  DEADLOCK CYCLE         ===> 4         Number of LOCAL cycles before
  9  INTERNAL TRACE         ===> YES       Automatic start of tracing







 PRESS:  ENTER to continue   END to exit   HELP for more information



                 INSTALL DB2 - PROTECTION
 ===>
      _

 Enter data below:

  1  ICF CATALOG       ===>            ICF catalog control password
  2  BSDS PASSWORD     ===>            Bootstrap data sets password
  3  LOG PASSWORD      ===>            Active log data sets password
  4  ARCHIVE LOG PW    ===>            Archive log data sets password
  5  ARCHIVE LOG RACF  ===> NO         RACF protect archive log data set
  6  DIRECTORY/CATALOG ===>            DB2 directory and catalog passwor
  7  USE PROTECTION    ===> YES        DB2 authorization enabled.  YES o
  8  SYSTEM ADMIN 1    ===> PETE       Authid of system administrator
  9  SYSTEM ADMIN 2    ===> BORGY      Authid of system administrator
 10  SYSTEM OPERATOR 1 ===> SYSOPR     Authid of system operator
 11  SYSTEM OPERATOR 2 ===> SYSOPR     Authid of system operator
 12  UNKNOWN AUTHID    ===> UNKNOWN    Authid of default (unknown) user
 13  RESOURCE AUTHID   ===> SYSIBM     Authid of Resource Limit Table cr




 PRESS:  ENTER to continue   END to exit   HELP for more information



                 INSTALL DB2 - MVS PARMLIB UPDATES
 ===>
      _

 Check data and reenter to change:

  1  SUBSYSTEM NAME      ===> DB2M       Name for connecting to DB2
  2  SUBSYSTEM PREFIX    ===> @          One character to denote subsyst
  3  SUBSYSTEM MEMBER    ===> 00         xx in IEFSSNxx
  4  SUBSYSTEM SEQUENCE  ===> 88888888   Sequence number for insertion
  5  AUTH MEMBER         ===> 00         xx in IEAAPFxx APF member name
  6  AUTH SEQUENCE       ===> 88888888   Sequence number for insertion
  7  LINK LIST ENTRY     ===> 00         xx in LNKLSTxx for DSNLINK
  8  LINK LIST SEQUENCE  ===> 88888888   Sequence number for insertion









 PRESS:  ENTER to continue   END to exit   HELP for more information



                 INSTALL DB2 - LOG DATA SETS
 ===>
      _

 Enter data below:

  1  NUMBER OF COPIES  ===> 2        2 or 1.  Number of active log copie
  2  DATA SET PREFIX 1 ===> MVSX.DB2M.LOGCOPY1
  3  DATA SET PREFIX 2 ===> MVSX.DB2M.LOGCOPY2
  4  NUMBER OF LOGS    ===> 3        Number data sets per active log cop
  5  INPUT BUFFER      ===> 28K      Size in bytes (28K-60K)
  6  OUTPUT BUFFER     ===> 400K     Size in bytes (40K-4000K)
  7  WRITE THRESHOLD   ===> 20       Buffers filled before write (1-256)
  8  BOOTSTRAP NAME 1  ===> MVSX.DB2M.BSDS01
  9  BOOTSTRAP NAME 2  ===> MVSX.DB2M.BSDS02








 PRESS:  ENTER to continue   END to exit   HELP for more information



                 INSTALL DB2 - ARCHIVE LOG DATA SETS
 ===>
      _

 Enter data below:

  1  NUMBER OF COPIES ===> 2         2 or 1.  Number of archive log copi
  2  ARCHIVE PREFIX   ===> MVSX.DB2M.ARCHLOG1
  3   COPY 2 PREFIX   ===> MVSX.DB2M.ARCHLOG2
  4  CATALOG DATA     ===> YES       YES or NO to catalog archive data s
  5  DEVICE TYPE      ===> SYSDA     Unit name for archive logs
  6  BLOCK SIZE       ===> 28672     Rounded up to 4096 multiple
  7  MAX CONCURRENT   ===> 3         Number of input volumes allocated
  8  RECORDING MAX    ===> 500       Number of data sets recorded in BSD
  9  MSVGP 1          ===>           Mass storage volume group (MSVGP)
 10  MSVGP 2          ===>           MSVGP for second archive copy
 11  WRITE TO OPER    ===> NO        Issue WTOR before mount for archive
 12  WTOR ROUTE CODE  ===> 1,3,4
                                     Routing codes for archive WTORs
 13  RETENTION PERIOD ===> 14        Days to retain archive log data set
 14  COMPACT DATA     ===> NO        YES or NO for data compaction


 PRESS:  ENTER to continue   END to exit   HELP for more information



              INSTALL DB2 - DATABASES AND SPACES TO START AUTOMATICALLY
 ===>
      _

 Enter data below:

  1  ===> RESTART       RESTART or DEFER the objects named below.
     The objects to restart or defer may be ALL in item 2, a database
     name, or database name.space name.

  2  ==> ALL               14  ==>                   26  ==>
  3  ==>                   15  ==>                   27  ==>
  4  ==>                   16  ==>                   28  ==>
  5  ==>                   17  ==>                   29  ==>
  6  ==>                   18  ==>                   30  ==>
  7  ==>                   19  ==>                   31  ==>
  8  ==>                   20  ==>                   32  ==>
  9  ==>                   21  ==>                   33  ==>
 10  ==>                   22  ==>                   34  ==>
 11  ==>                   23  ==>                   35  ==>
 12  ==>                   24  ==>                   36  ==>
 13  ==>                   25  ==>                   37  ==>

 PRESS:  ENTER to continue   END to exit   HELP for more information



                 INSTALL DB2  DISTRIBUTED DATA FACILITY
 ===>
      _

 Enter data below:

  1 DDF STARTUP OPTION   ===> NO        NO (DDF not startable),
                                        AUTO (automatic start up), or
                                        COMMAND (start by command)
  2 DB2 LOCATION NAME    ===> DB2M              The name other DB2s use
                                                refer to this DB2
  3 DB2 NETWORK LUNAME   ===> MVSXDB2M  The name VTAM uses to refer to t
  4 DB2 NETWORK PASSWORD ===> MVSXDB2M  Password for connecting to other
  5 RLST ACCESS ERROR    ===> NOLIMIT   Action on non-local RLST access
                                        NOLIMIT   - Run without limit
                                        NORUN     - Do not run at all
                                        1-5000000 - Limit in CPU service

  6 SAMPLE TEST LOCATION ===> DB2X              Location name used in ph
                                                (DSNTEJ6) of DB2 sample
                                                applications

 PRESS:  ENTER to continue   END to exit   HELP for more information

 .  .  .  .  .  .  .  .  .  .  .  .  .  .  .  .  .  .  .  .  .  .  .  .
************************************************************************
************************************************************************
***    USE TOP-DOWN APPROACH - ADD NEW ENTRIES TO TOP OF MEMBER!!    ***
************************************************************************
************************************************************************
./ ADD NAME=DB2X     0172-91298-93355-0919-01407-00372-00000-DD20005
************************************************************************
*****                                                              *****
*****                    DATA BASE                                 *****
*****                   DB2X ON DOFX                               *****
*****                                                              *****
************************************************************************

NAME     USERID  DATE     TIME  DESCRIPTION OF CHANGE
-------- ------- -------- ----- ----------------------------------------
LOVARI   DD20005 12/21/93 09:19 Project: DB2???
                                CHREQ# 00000
                                SOFTWARE WAS IMPLEMENTED FROM THE TARGET
                                ZONE TDB2X, DB2X.OMEGDB2.TARGET.*, TO TH
                                ACTIVE ZONE DB2X, DB2X.OMEGDB2.*
-------- ------- -------- ----- ----------------------------------------
LOVARI   DD20005 12/21/93 09:04 OMEGAMON II FOR DB2 SOFTWARE
                                TDB2X, WAS CLONED FROM A LEVEL 2
                                TOMGDB2 ZONE VIA IMPLEMENTATION DIALOG
-------- ------- -------- ----- ----------------------------------------
LOVARI   DD20005 12/21/93 08:17 OMEGAMON II FOR DB2 SOFTWARE
                                TDB2X, WAS CLONED FROM A LEVEL 2
                                TOMGDB2 ZONE VIA IMPLEMENTATION DIALOG
-------- ------- -------- ----- ----------------------------------------
TOMIAK   DD20008 10/08/93 10:41 Project: DB2???
                                DB2X, WAS CLONED FROM A LEVEL 13
                                TV2R3 ZONE VIA IMPLEMENTATION DIALOG
-------- ------- -------- ----- ----------------------------------------
Soppitt  DD20010 09/03/93 16:20 Project: DB2F01
                                Package DSNQCATV.DSNQVROO rebound as
                                required after implementation of Lvl-11
                                maintenance.
                                Job in 'XDBS.DB2X.CNTL(LVL11ACT)'
-------- ------- -------- ----- ----------------------------------------
LOVARI   DD20005 09/01/93 14:29 Project: DB2???
                                SOFTWARE WAS IMPLEMENTED FROM THE TARGET
                                ZONE TDB2X, DB2X.TARGET.*, TO THE
                                ACTIVE ZONE DB2X, DB2X.*
-------- ------- -------- ----- ----------------------------------------
LOVARI   DD20005 09/01/93 12:25 Project: DB2???
                                TDB2X, WAS CLONED FROM A LEVEL 13
                                TV2R3 ZONE VIA IMPLEMENTATION DIALOG
-------- ------- -------- ----- ----------------------------------------
Tomiak   DD20008 08/18/93 08:30 XDBS.DB2X.CNTL(DYNBIND)
                                BIND IMAGSQL plan
-------- ------- -------- ----- ----------------------------------------
Soppitt  DD20001 07/30/93 14:30 Execute Install Clist to turn on ACCTG
                                Class-2 trace at subsystem start-up.
                                Asm/Link DSNZPARM using
                                    'XDBS.DB2X.CNTL(DSN3ZPRM)'
                                Old module renamed OLDZPARM on DSNEXIT.
-------- ------- -------- ----- ----------------------------------------
MUNDO    FMMCSC  04/01/93 11:55 XDBS.DB2X.CNTL(INFOFILE)
                                Allocates the files used by ALTER:
                                DB2X.INFOTOOL.SYSSQL
                                DB2X.INFOTOOL.REBIND
                                DB2X.INFOTOOL.SYSALTER
                                DB2X.INFOTOOL.UNLOAD
                                DB2X.INFOTOOL.RELOAD
-------- ------- -------- ----- ----------------------------------------
TOMIAK   KETCSC  03/31/93 08:12 SOFTWARE WAS IMPLEMENTED FROM THE TARGET
                                ZONE TDB2X, DB2X.TARGET.*, TO THE
                                ACTIVE ZONE DB2X, DB2X.*
-------- ------- -------- ----- ----------------------------------------
TOMIAK   KETCSC  03/31/93 08:08 TAPE ARCHIVE OF BDB2X WAS CREATED.
                                OUTPUT TAPE DSN = DB2X.BACKUP.LVL8
-------- ------- -------- ----- ----------------------------------------
TOMIAK   KETCSC  03/31/93 07:54 TDB2X, WAS CLONED FROM A LEVEL 10
                                TV2R3 ZONE VIA IMPLEMENTATION DIALOG
-------- ------- -------- ----- ----------------------------------------
-------- ------- -------- ----- ----------------------------------------
MUNDO    FMMCSC  03/25/93 11:10 XDBS.DB2X.CNTL(IPAKBIND)
                                BIND ADD TPAKDB2 plan.
-------- ------- -------- ----- ----------------------------------------
MUNDO    FMMCSC  03/25/93 11:01 XDBS.DB2X.CNTL(IPAKIMPL)
                                Renames target to active and copies
                                DB2LINK into active DSNEXIT.
-------- ------- -------- ----- ----------------------------------------
MUNDO    FMMCSC  03/25/93 11:00 XDBS.DB2X.CNTL(IPAKMIG)
                                Copies INFOPAK base libraries to target.
-------- ------- -------- ----- ----------------------------------------
-------- ------- -------- ----- ----------------------------------------
BORGES   DD20002 01/20/93 17:47 SOFTWARE WAS IMPLEMENTED FROM THE TARGET
                                ZONE TDB2X, DB2X.TARGET.*, TO THE
                                ACTIVE ZONE DB2X, DB2X.*
-------- ------- -------- ----- ----------------------------------------
BORGES   DD20002 01/20/93 17:37 TAPE ARCHIVE OF BDB2X WAS CREATED.
                                OUTPUT TAPE DSN = DB2X.BACKUP.LVL7
-------- ------- -------- ----- ----------------------------------------
BORGES   DD20002 01/20/93 16:08 TDB2X, WAS CLONED FROM A LEVEL 9
                                TV2R3 ZONE VIA IMPLEMENTATION DIALOG
-------- ------- -------- ----- ----------------------------------------
BORGES   DD20002 12/17/92 10:26 SOFTWARE WAS IMPLEMENTED FROM THE TARGET
                                ZONE TDB2X, DB2X.TARGET.*, TO THE
                                ACTIVE ZONE DB2X, DB2X.*
-------- ------- -------- ----- ----------------------------------------
BORGES   BORGY   12/16/92 16:00 TDB2X, WAS CLONED FROM A LEVEL 8
                                TV2R3 ZONE VIA IMPLEMENTATION DIALOG
-------- ------- -------- ----- ----------------------------------------
Tomiak   KETCSC  12/09/92 11:00 Moved new DYNBKUP.
-------- ------- -------- ----- ----------------------------------------
-------- ------- -------- ----- ----------------------------------------
MUNDO    FMMCSC  12/02/92 11:15 XDBS.DB2X.CNTL(IPKPLIB)
                                Links ipkmst for automatic location
                                of the INFOTEL parmlib.
-------- ------- -------- ----- ----------------------------------------
MUNDO    FMMCSC  12/02/92 11:05 XDBS.DB2X.CNTL(ITOLBIND)
                                BIND replace on Ipkmst plan.
-------- ------- -------- ----- ----------------------------------------
MUNDO    FMMCSC  12/02/92 10:55 XDBS.DB2X.CNTL(BATSPUFI)
                                create stogroup,dtabase,tablespace,index
                                for use by infotool.
-------- ------- -------- ----- ----------------------------------------
MUNDO    FMMCSC  12/02/92 10:48 XDBS.DB2X.CNTL(ITOLIMPL)
                                Renames target to active
-------- ------- -------- ----- ----------------------------------------
MUNDO    FMMCSC  12/02/92 10:46 XDBS.DB2X.CNTL(ITOOLMIG)
                                Copies INFOtool base libraries to target
-------- ------- -------- ----- ----------------------------------------
-------- ------- -------- ----- ----------------------------------------
TOMIAK   DB2CSC  10/01/92 11:12 SOFTWARE WAS IMPLEMENTED FROM THE TARGET
                                ZONE TDB2X, DB2X.TARGET.*, TO THE
                                ACTIVE ZONE DB2X, DB2x.*
-------- ------- -------- ----- ----------------------------------------
TOMIAK   DB2CSC  10/01/92 10:54 TDB2X, WAS CLONED FROM A LEVEL 7
                                TV2R3 ZONE VIA IMPLEMENTATION DIALOG
-------- ------- -------- ----- ----------------------------------------
Weston   LAWCSC  09/22/92 10:38 Bind Plan 'PCSQLTST' for DB2X using
                                XDBS.DB2X.CNTL(DB2XPCCP) and Grant plan
                                public.
-------- ------- -------- ----- ----------------------------------------
Weston   LAWCSC  09/22/92 09:42 Propagated PC/SQL-Link to DB2X using
                                XDBS.DB2X.CNTL(DB2XPCCP) creating
                                DB2X.PCSQL.CNTL,DB2X.PCSQL.CLIST,
                                DB2X.PCSQL.LIBRARY, and DB2X.PCSQL.LOAD.
-------- ------- -------- ----- ----------------------------------------
-------- ------- -------- ----- ----------------------------------------
Soppitt  DD20010 08/28/92 16:00 QMF migration jobs executed.  See
                                'XDBS.DB2X.CNTL($INDEX)' for details.
-------- ------- -------- ----- ----------------------------------------
Soppitt  DD20010 08/28/92 15:30 QMF Installation clist DSQ1EINS, was
                                executed in migration mode to migrate
                                QMF from V2.4 to V3.1.  Input as below:




                          QMF INSTALLATION DIALOGS
ISPF Command ===>
                  _

   INSTALL TYPE             ===> MIGRATION      ("I"-INITIAL, when no pr
                                                     level of QMF exists
                                                     the system.
                                                 "M"-MIGRATION, when a p
                                                     level of QMF does e
                                                     in the system.

   SCOPE OF INSTALL         ===> D              ("F"-FULL, when this is
                                                     first QMF V3R1 inst
                                                 "D"-DB ONLY, when insta
                                                     QMF V3R1 into anoth
                                                     database.

   PREVIOUS QMF LEVEL       ===> V2R3           ("V2R2","V2R3","V2R4","V
     (MIGRATION INSTALLS ONLY)


   PRESS:  ENTER to continue    PF13 for help    PF03  to end





                          QMF INSTALLATION DIALOGS
ISPF Command ===>
                  _


   QMF APPLICATION PLAN ID  ===> QMF310

   QMF CATALOG ALIAS        ===> DB2X

   QMF TABLES VOLUME        ===> XDB001











   PRESS:  ENTER to continue    PF13 for help    PF03  to end





                          QMF INSTALLATION DIALOGS
ISPF Command ===>
                  _

   DB2 LOAD LIBRARY         ===> DB2X.DSNLOAD

   DB2 RELEASE LEVEL        ===> 23          ('21'=V2R1,'22'=V2R2,'23'=V

   DB2 SUBSYSTEM ID         ===> DB2X

   DB2 USER CATALOG (ICF)   ===> ICAT.XDOF

   USER CATALOG PASSWORD    ===>

   TABLESPACE PASSWORD      ===>                    (For QMF control tab
     (VSAM)
   DB2 LOCATION NAME        ===>                    (DB2 V2R2 installs o

   DB2 DEFAULT PUNCTUATION  ===> .                  (',' OR '.')
     CHARACTER

   PRESS:  ENTER to continue    PF13 for help    PF03  to end





                          QMF INSTALLATION DIALOGS
ISPF Command ===>
                  _

   Modify the Job cards below to represent your installation requirement
   The "USER" and "PASSWORD" parameters must be specified in systems usi
   RACF. Use a userid with the appropriate authority for the database. S
   the "QUERY MANAGEMENT FACILITY: INSTALLATION GUIDE FOR MVS" publicati
   for more detail.


   If you will be performing the installation in foreground and do not w
   the JCL files to be tailored, enter an 'X' here.  ===>


   JOB STATEMENT INFORMATION:
   ===> //DD20010  JOB (A006,SYTM),'10DB2PXS',
   ===> //             CLASS=L,MSGCLASS=X,
   ===> //             NOTIFY=DD20010
   ===> /*JOBPARM  SYSAFF=DOFX

   PRESS:  ENTER to continue    PF13 for help    PF03  to end





                          QMF INSTALLATION DIALOGS
ISPF Command ===>
                  _




   Currently working on installation into DB2 subsystem DB2M

   You can now re-specify the install parameters, tailor the installatio
   files, install QMF with the tailored files in foreground, quit and ru
   the tailored install files in batch, or quit and return here later.


   ENTER CHOICE HERE        ===> T              ("P" - INPUT PARAMETERS,
                                                 "T" - TAILOR INSTALL FI
                                                 "I" - INSTALL IN FOREGR




   PRESS:  ENTER to continue    PF13 for help    PF03  to end


-------- ------- -------- ----- ----------------------------------------
Soppitt  DD20010 08/28/92       Install. verification jobs executed. See
                                'XDBS.DB2X.CNTL($INDEX)' for details.
-------- ------- -------- ----- ----------------------------------------
Soppitt  DD20010 08/20/92 13:30 Installation jobs executed. Image-copy
                                taken of migrated Dircty/Catlg.
-------- ------- -------- ----- ----------------------------------------
Soppitt  DB2CSC  08/17/92 15:00 Installation clist, DSNTINST, was run
                                (via opt. 5.D) against the active zone,
                                DB2X, to migrate to V2.3.
                                Panel values given below:-


                     INSTALL, UPDATE, AND MIGRATE DB2 - MAIN PANEL
 ===>
      _

 Check parameters and reenter to change:

  1  INSTALL TYPE         ===> MIGRATE   Install, Update, or Migrate

 Enter the following 2 values for migration only
  2  FROM RELEASE         ===> 2.2       1.3 or 2.2
  3  DATA SET NAME(MEMBER)===> XDBS.DSNTID.SOURCE(DSNTIDDX)

 Enter name of your input data sets (DSNLOAD, DSNMACS, DSNSAMP, DSNCLIST
  4  PREFIX               ===> DB2X
  5  SUFFIX               ===>

 Enter to set or save panel values (by reading or writing the named memb
  6  INPUT MEMBER NAME    ===> DSNTIDXA  Enter to read old panel values
  7  OUTPUT MEMBER NAME   ===> DSNTIDDX  Enter to write new panel values




 PRESS:  ENTER to continue   RETURN to exit   HELP for more information
 .  .  .  .  .  .  .  .  .  .  .  .  .  .  .  .  .  .  .  .  .  .  .  .


                 MIGRATE DB2 - DATA PARAMETERS
 ===>
      _

 Check parameters and reenter to change:

  1  CATALOG ALIAS       ===> DB2X                  Alias of MVS catalog
                                                    DB2 subsystem data s
  2  DEFINE CATALOG      ===> NO                    YES or NO
  3  VOLUME SERIAL 1     ===> XDB001                CLIST allocation
  4  VOLUME SERIAL 2     ===> XDB001                Non-VSAM data
  5  VOLUME SERIAL 3     ===> XDB001                Default, temporary d
  6  VOLUME SERIAL 4     ===> XDB001                Directory, catalog d
  7  VOLUME SERIAL 5     ===> XDB001                Directory, catalog i
  8  VOLUME SERIAL 6     ===> XDB001                Log copy 1, BSDS 2
  9  VOLUME SERIAL 7     ===> XDB001                Log copy 2, BSDS 1
 10  PERMANENT UNIT NAME ===> 3390                  Device type for MVS
                                                    and partitioned data
 11  TEMPORARY UNIT NAME ===> SYSDA                 Device type for
                                                    temporary data sets



 PRESS:  ENTER to continue   RETURN to exit   HELP for more information
 .  .  .  .  .  .  .  .  .  .  .  .  .  .  .  .  .  .  .  .  .  .  .  .


                 MIGRATE DB2 - SYSTEM RESOURCE DATA SET NAMES
 ===>
      _

 Enter data below:

 Bootstrap Data Sets (BSDS):
   1 COPY 1 NAME         ===> DOFX.DB2X.BSDS01
   2 COPY 2 NAME         ===> DOFX.DB2X.BSDS02

 Active Logs:
   3 NUMBER OF COPIES    ===> 2        2 or 1.  Number of active log cop
   4 COPY 1 PREFIX       ===> DOFX.DB2X.LOGCOPY1
   5 COPY 2 PREFIX       ===> DOFX.DB2X.LOGCOPY2

 Archive Logs:
   6 NUMBER OF COPIES    ===> 2        2 or 1.  Number of archive log co
   7 COPY 1 PREFIX       ===> DOFX.DB2X.ARCHLOG1
   8 COPY 2 PREFIX       ===> DOFX.DB2X.ARCHLOG2
   9 TIMESTAMP ARCHIVES  ===> NO       YES or NO



 PRESS:  ENTER to continue   RETURN to exit   HELP for more information
 .  .  .  .  .  .  .  .  .  .  .  .  .  .  .  .  .  .  .  .  .  .  .  .


                 MIGRATE DB2 - DATA SET NAMES PANEL 1
 ===>
      _

 Data sets allocated by the installation CLIST for edited output:
   1  TEMP CLIST LIBRARY ===> DB2X.NEW.DSNTEMP
   2  CLIST LIBRARY      ===> DB2X.NEW.DSNCLIST
   3  SAMPLE LIBRARY     ===> DB2X.NEW.DSNSAMP

 Data sets allocated by the installation jobs:
   4  DBRM LIBRARY       ===> DB2X.DBRMLIB.DATA
   5  APPLICATION LOAD   ===> DB2X.RUNLIB.LOAD
   6  DECLARATION LIBRARY===> DB2X.SRCLIB.DATA

 Data sets allocated by SMP/E and other methods:
   7  LINK LIST LIBRARY  ===> DB2X.DSNLINK
   8  LOAD LIBRARY       ===> DB2X.DSNLOAD
   9  MACRO LIBRARY      ===> DB2X.DSNMACS
  10  LOAD DISTRIBUTION  ===> DB2X.DSNALOAD
  11  EXIT LIBRARY       ===> DB2X.DSNEXIT



 PRESS:  ENTER to continue   RETURN to exit   HELP for more information
 .  .  .  .  .  .  .  .  .  .  .  .  .  .  .  .  .  .  .  .  .  .  .  .


                 MIGRATE DB2 - DATA SET NAMES PANEL 2
 ===>
      _

 Enter data set names below:
  1  ASSEMBLER            ===>
  2  C COMPILER           ===> EDC.V1R1M1.SEDCCOMP
  3  C COMPILER MESSAGES  ===> EDC.V1R1M1.SEDCMSGS
  4  C LIBRARY HEADERS    ===> EDC.V1R1M1.SEDCHDRS
  5  C LINK EDIT STUBS    ===> EDC.V1R1M1.SEDCBASE
  6  C DYNAMIC RUNTIME    ===> EDC.V1R1M1.SEDCLINK
  7  COBOL COMPILER       ===>
  8  COBOL LINK EDIT      ===> SYS1.COBLIB
  9  VS COBOL II COMPILER ===>
 10  VS COBOL II LINK     ===> SYS1.COB2LIB
 11  COMMON LINK EDIT     ===> PLI.V2R2M0.SIBMBASE
 12  COMMON DYNAMIC       ===> PLI.V2R2M0.SIBMLINK
 13  FORTRAN COMPILER     ===> SYS1.VSF2FORT
 14  FORTRAN LINK EDIT    ===> SYS1.VSF2FORT
 15  PL/I COMPILER        ===> PLI.V2R2M0.PLICOMP
 16  PL/I LINK EDIT       ===> PLI.V2R2M0.PLIBASE


 PRESS:  ENTER to continue   RETURN to exit   HELP for more information
 .  .  .  .  .  .  .  .  .  .  .  .  .  .  .  .  .  .  .  .  .  .  .  .


                 MIGRATE DB2 - DATA SET NAMES PANEL 3
 ===>
      _

 Enter data set names below:
  1  SYSTEM MACLIB        ===> SYS1.MACLIB
  2  SYSTEM PROCEDURES    ===> XDBS.DOFX.PROCLIB
  3  SORT LIBRARY         ===> SYS1.SORTLIB
  4  IMS RESLIB           ===> DB2X.RLRESLIB
  5  ISPF ISPLINK MODULE  ===> ISP.ISPLOAD













 PRESS:  ENTER to continue   RETURN to exit   HELP for more information
 .  .  .  .  .  .  .  .  .  .  .  .  .  .  .  .  .  .  .  .  .  .  .  .


                 MIGRATE DB2 - CICS
 ===>
      _

 Enter data below:

  1 CICS RELEASE         ===> 2         0 = not using CICS
                                        1 = CICS/OS/VS 1.7.0
                                        2 = CICS/MVS 2.1
                                        3 = CICS/ESA 3.1.1 or 3.2

  2 CICS COBOL LIBRARY   ===> XCICS.TC212X2.COBLIB
  3 CICS COBOL II LIBRARY===> SYS1.COB2CICS
  4 CICS PL/I  LIBRARY   ===> XCICS.TC212X2.PL1LIB
  5 CICS LOADLIB         ===> XCICS.TC212X2.LOADLIB

 The following fields are required if option 3 was selected in field 1;
 they are optional if option 2 was selected in field 1:
  6 CSD NAME (FOR RDO)   ===>
  7 GROUP NAME           ===>           CICS RDO group name
  8 NEW GROUP            ===>           YES or NO
  9 LIST NAME            ===>           CICS RDO list name

 PRESS:  ENTER to continue   RETURN to exit   HELP for more information
 .  .  .  .  .  .  .  .  .  .  .  .  .  .  .  .  .  .  .  .  .  .  .  .


                 MIGRATE DB2 - SIZES
 ===>
      _

 Check numbers and reenter to change:

  1  DATABASES          ===> 20         In this subsystem
  2  TABLES             ===> 10         Per database (average)
  3  COLUMNS            ===> 10         Per table (average)
  4  VIEWS              ===> 3          Per table (average)
  5  TABLE SPACES       ===> 10         Per database (average)
  6  PLANS              ===> 200        In this subsystem
  7  PLAN STATEMENTS    ===> 30         SQL statements per plan (average
  8  PACKAGES           ===> 300        In this subsystem
  9  PACKAGE STATEMENTS ===> 10         SQL statements per package (aver
 10  PACKAGE LIST SIZE  ===> 2          Package lists per plan (average)
 11  EXECUTED STMTS     ===> 15         SQL statements executed (average
 12  TABLES IN STMT     ===> 2          Tables per SQL statement (averag
 13  TEMP 4K SPACE      ===> 16777216   Bytes of 4K-page work space
 14  TEMP 4K DATA SETS  ===> 1          Number of data sets for 4K data
 15  TEMP 32K SPACE     ===> 4194304    Bytes of 32K-page work space
 16  TEMP 32K DATA SETS ===> 1          Number of data sets for 32K data

 PRESS:  ENTER to continue   RETURN to exit   HELP for more information
 .  .  .  .  .  .  .  .  .  .  .  .  .  .  .  .  .  .  .  .  .  .  .  .


                 MIGRATE DB2 - STORAGE SIZES
 ===>
      _

 Check numbers and reenter to change:

  1  DATABASES         ===> 20         Concurrently in use
  2  MAX USERS         ===> 30         Concurrently running in DB2
  3  MAX REMOTE        ===> 2          Remotely accessing data in DB2
  4  MAX TSO CONNECT   ===> 100        Users on QMF or in DSN command
  5  MAX BATCH CONNECT ===> 20         Users in DSN command or utilities
  6  MIN BP0 BUFFERS   ===> 1000       Minimum number of buffers in BP0
  7  MAX BP0 BUFFERS   ===> 1000       Maximum number of buffers in BP0
  8  MIN BP1 BUFFERS   ===> 5          Minimum number of buffers in BP1
  9  MAX BP1 BUFFERS   ===> 5          Maximum number of buffers in BP1
 10  MIN BP2 BUFFERS   ===> 5          Minimum number of buffers in BP2
 11  MAX BP2 BUFFERS   ===> 5          Maximum number of buffers in BP2
 12  MIN BP32K BUFFERS ===> 12         Minimum number of buffers in BP32
 13  MAX BP32K BUFFERS ===> 12         Maximum number of buffers in BP32




 PRESS:  ENTER to continue   RETURN to exit   HELP for more information
 .  .  .  .  .  .  .  .  .  .  .  .  .  .  .  .  .  .  .  .  .  .  .  .


                 MIGRATE DB2 - TRACING
 ===>
      _

 Enter data below:

  1  AUDIT TRACE      ===> NO          Audit classes to start. NO,YES,li

  2  TRACE AUTO START ===> NO          Global classes to start. YES, NO,
  3  TRACE SIZE       ===> 65536       Trace table size in bytes.  4K-39

  4  SMF ACCOUNTING   ===> 1           Accounting classes to start. NO,Y
  5  SMF STATISTICS   ===> YES         Statistics classes to start. NO,Y
  6  STATISTICS TIME  ===> 15          Time interval in minutes.  1-1440

  7  MONITOR TRACE    ===> NO          Monitor classes to start. NO, YES
  8  MONITOR SIZE     ===> 8192        Default monitor buffer size. 8K-1

  9  CHECKPOINT FREQ  ===> 1000        Number of log records per checkpo




 PRESS:  ENTER to continue   RETURN to exit   HELP for more information
 .  .  .  .  .  .  .  .  .  .  .  .  .  .  .  .  .  .  .  .  .  .  .  .


                 MIGRATE DB2 - OPERATOR FUNCTIONS
 ===>
      _

 Enter data below:

  1  WTO ROUTE CODES    ===> 1
                                        Routing codes for WTORs
  2  RECALL DATABASE    ===> YES        Use DFHSM automatic recall. YES
  3  RECALL DELAY       ===> 120        Seconds to wait for automatic re

  4  RLF AUTO START     ===> NO         Resource Limit Facility.  NO or
  5  RLST NAME SUFFIX   ===> 01         Resource Limit Spec. Table (RLST
  6  RLST ACCESS ERROR  ===> NOLIMIT    Action on RLST access error. Val
                                        NOLIMIT - Run without limit
                                        NORUN   - Do not run at all
                                        1-5000000 - Limit in CPU service

  7  DSNZPARM NAME      ===> DSNZPARM   Enter name of new DB2 parameter
  8  AUTO BIND          ===> YES        Use automatic bind. YES or NO
  9  SITE TYPE          ===> LOCALSITE    LOCALSITE or RECOVERYSITE


 PRESS:  ENTER to continue   RETURN to exit   HELP for more information
 .  .  .  .  .  .  .  .  .  .  .  .  .  .  .  .  .  .  .  .  .  .  .  .


                 MIGRATE DB2 - APPLICATION PROGRAMMING DEFAULTS
 ===>
      _

 Enter data below:

  1  LANGUAGE DEFAULT     ===> COB2     ASM, ASMH, C, COBOL, COB2, FORTR
  2  DECIMAL POINT IS     ===> .        . or ,
  3  MINIMUM DIVIDE SCALE ===> NO       NO or YES for a minimum of 3 dig
                                        to right of decimal after divisi
  4  STRING DELIMITER     ===> DEFAULT  DEFAULT, " or ' (COBOL or COB2 o
  5  SQL STRING DELIMITER ===> DEFAULT  DEFAULT, " or '
  6  MIXED DATA           ===> NO       NO or YES for mixed DBCS data
  7  CODED CHARACTER SET  ===> 500      The CCSID of your SBCS or mixed
  8  DATE FORMAT          ===> ISO      ISO, JIS, USA, EUR, LOCAL
  9  TIME FORMAT          ===> ISO      ISO, JIS, USA, EUR, LOCAL
 10  LOCAL DATE LENGTH    ===> 0        0 (no exit), or value between 10
 11  LOCAL TIME LENGTH    ===> 0        0 (no exit), or value between  8
 12  STD SQL LANGUAGE     ===> NO       NO or 86
 13  DECIMAL ARITHMETIC   ===> DEC15    DEC15, DEC31, 15, 31



 PRESS:  ENTER to continue   RETURN to exit   HELP for more information
 .  .  .  .  .  .  .  .  .  .  .  .  .  .  .  .  .  .  .  .  .  .  .  .


                 MIGRATE DB2 - IRLM PANEL 1
 ===>
      _

 Enter data below:

  1  INSTALL IRLM       ===> YES        IRLM is required for DB2. Should
                                        IRLM distributed with DB2 be ins
  2  SUBSYSTEM NAME     ===> IRLM       IRLM MVS subsystem name
  3  RESOURCE TIMEOUT   ===> 60         Seconds to wait for unavailable
  4  TIME INTERVAL      ===> 500        Milliseconds between lock proces
  5  AUTO START         ===> YES        Start IRLM if not up. YES or NO
  6  PROC NAME          ===> IRLMDB2X   Name of start procedure for IRLM
  7  TIME TO AUTOSTART  ===> 300        Time DB2 will wait for IRLM auto









 PRESS:  ENTER to continue   RETURN to exit   HELP for more information
 .  .  .  .  .  .  .  .  .  .  .  .  .  .  .  .  .  .  .  .  .  .  .  .


                 MIGRATE DB2 - IRLM PANEL 2
 ===>
      _

 Enter data below:

  1  CROSS MEMORY           ===> NO        Local storage and cross memor
  2  MAXIMUM ECSA           ===> 5242880   Control block storage (1M - 9
  3  LOCKS PER TABLE(SPACE) ===> 1000      Maximum before lock escalatio
  4  LOCKS PER USER         ===> 10000     Maximum before resource unava
  5  PARTNER                ===>           VTAM name of other IRLM.  Req
                                           for intersystem communication
  6  IDENTIFIER             ===> 1         Number for this IRLM (1-8)
  7  DEADLOCK TIME          ===> 15        Detection interval in seconds
  8  DEADLOCK CYCLE         ===> 4         Number of LOCAL cycles before
  9  INTERNAL TRACE         ===> NO        Automatic start of tracing







 PRESS:  ENTER to continue   RETURN to exit   HELP for more information
 .  .  .  .  .  .  .  .  .  .  .  .  .  .  .  .  .  .  .  .  .  .  .  .


                 MIGRATE DB2 - PROTECTION
 ===>
      _

 Enter data below:

  1  MVS CATALOG       ===>            MVS catalog control password
  2  BSDS PASSWORD     ===>            Bootstrap data sets password
  3  LOG PASSWORD      ===>            Active log data sets password
  4  ARCHIVE LOG PW    ===>            Archive log data sets password
  5  ARCHIVE LOG RACF  ===> NO         RACF protect archive log data set
  6  DIRECTORY/CATALOG ===>            DB2 directory and catalog passwor
  7  USE PROTECTION    ===> YES        DB2 authorization enabled.  YES o
  8  SYSTEM ADMIN 1    ===> DD20010    Authid of system administrator
  9  SYSTEM ADMIN 2    ===> SYSADM     Authid of system administrator
 10  SYSTEM OPERATOR 1 ===> SYSOPR     Authid of system operator
 11  SYSTEM OPERATOR 2 ===> SYSOPR     Authid of system operator
 12  UNKNOWN AUTHID    ===> UNKNOWN    Authid of default (unknown) user
 13  RESOURCE AUTHID   ===> SYSIBM     Authid of Resource Limit Table cr




 PRESS:  ENTER to continue   RETURN to exit   HELP for more information
 .  .  .  .  .  .  .  .  .  .  .  .  .  .  .  .  .  .  .  .  .  .  .  .


                 MIGRATE DB2 - MVS PARMLIB UPDATES
 ===>
      _

 Check data and reenter to change:

  1  SUBSYSTEM NAME      ===> DB2X       Name for connecting to DB2
  2  SUBSYSTEM PREFIX    ===> ^          One character to denote subsyst
  3  SUBSYSTEM MEMBER    ===> 00         xx in IEFSSNxx
  4  SUBSYSTEM SEQUENCE  ===> 88888888   Sequence number for insertion
  5  AUTH MEMBER         ===> 00         xx in IEAAPFxx APF member name
  6  AUTH SEQUENCE       ===> 88888888   Sequence number for insertion
  7  LINK LIST ENTRY     ===> 00         xx in LNKLSTxx for DSNLINK
  8  LINK LIST SEQUENCE  ===> 88888888   Sequence number for insertion









 PRESS:  ENTER to continue   RETURN to exit   HELP for more information
 .  .  .  .  .  .  .  .  .  .  .  .  .  .  .  .  .  .  .  .  .  .  .  .


                 MIGRATE DB2 - ACTIVE LOG DATA SET PARAMETERS
 ===>
      _

 Enter data below:

   1 NUMBER OF LOGS    ===> 3        Number data sets per active log cop
   2 INPUT BUFFER      ===> 28672    Size in bytes (28K-60K)
   3 OUTPUT BUFFER     ===> 409600   Size in bytes (40K-4000K)
   4 WRITE THRESHOLD   ===> 20       Buffers filled before write (1-256)
   5 ARCHIVE LOG FREQ  ===> 6        Hours per archive run
   6 UPDATE RATE       ===> 5        Updates, inserts, and deletes per h











 PRESS:  ENTER to continue   RETURN to exit   HELP for more information
 .  .  .  .  .  .  .  .  .  .  .  .  .  .  .  .  .  .  .  .  .  .  .  .


                 MIGRATE DB2 - ARCHIVE LOG DATA SET PARAMETERS
 ===>
      _

 Enter data below:

   1  ALLOCATION UNITS ===> BLK       Blk, Trk, or Cyl
   2  PRIMARY QUANTITY ===>           Primary space allocation
   3  SECONDARY QTY.   ===>           Secondary space allocation
   4  CATALOG DATA     ===> YES       YES or NO to catalog archive data
   5  DEVICE TYPE      ===> SYSDA     Unit name for archive logs
   6  BLOCK SIZE       ===> 28672     Rounded up to 4096 multiple
   7  MAX CONCURRENT   ===> 3         Number of input volumes allocated
   8  RECORDING MAX    ===> 500       Number of data sets recorded in BS
   9  MSVGP 1          ===>           Mass storage volume group (MSVGP)
  10  MSVGP 2          ===>           MSVGP for second archive copy
  11  WRITE TO OPER    ===> NO        Issue WTOR before mount for archiv
  12  WTOR ROUTE CODE  ===> 1,3,4
                                      Routing codes for archive WTORs
  13  RETENTION PERIOD ===> 14        Days to retain archive log data se
  14  QUIESCE PERIOD   ===> 5         Maximum quiesce interval (1-999)
  15  COMPACT DATA     ===> NO        YES or NO for data compaction

 PRESS:  ENTER to continue   RETURN to exit   HELP for more information
 .  .  .  .  .  .  .  .  .  .  .  .  .  .  .  .  .  .  .  .  .  .  .  .


                 MIGRATE DB2 - DATABASES AND SPACES TO START AUTOMATICAL
 ===>
      _

 Enter data below:

  1  ===> RESTART       RESTART or DEFER the objects named below.
     The objects to restart or defer may be ALL in item 2, a database
     name, or database name.space name.

  2  ==> ALL               14  ==>                   26  ==>
  3  ==>                   15  ==>                   27  ==>
  4  ==>                   16  ==>                   28  ==>
  5  ==>                   17  ==>                   29  ==>
  6  ==>                   18  ==>                   30  ==>
  7  ==>                   19  ==>                   31  ==>
  8  ==>                   20  ==>                   32  ==>
  9  ==>                   21  ==>                   33  ==>
 10  ==>                   22  ==>                   34  ==>
 11  ==>                   23  ==>                   35  ==>
 12  ==>                   24  ==>                   36  ==>
 13  ==>                   25  ==>                   37  ==>

 PRESS:  ENTER to continue   RETURN to exit   HELP for more information
 .  .  .  .  .  .  .  .  .  .  .  .  .  .  .  .  .  .  .  .  .  .  .  .


                 MIGRATE DB2 - DISTRIBUTED DATA FACILITY
 ===>
      _

 Enter data below:

  1 DDF STARTUP OPTION   ===> COMMAND   NO (DDF not startable),
                                        AUTO (automatic start up), or
                                        COMMAND (start by command)
  2 DB2 LOCATION NAME    ===> DB2X              The name other DB2s use
                                                refer to this DB2
  3 DB2 NETWORK LUNAME   ===> DOFXDB2X  The name VTAM uses to refer to t
  4 DB2 NETWORK PASSWORD ===> DOFXDB2X  Password for connecting to other
  5 RLST ACCESS ERROR    ===> NOLIMIT   Action on non-local RLST access
                                        NOLIMIT   - Run without limit
                                        NORUN     - Do not run at all
                                        1-5000000 - Limit in CPU service






 PRESS:  ENTER to continue   RETURN to exit   HELP for more information
 .  .  .  .  .  .  .  .  .  .  .  .  .  .  .  .  .  .  .  .  .  .  .  .


                 MIGRATE DB2 - DATA DEFINITION CONTROL SUPPORT
 ===>
      _

 Enter data below:

  1 INSTALL DD CONTROL SUPT. ===> NO        YES - activate the support
                                            NO  - omit DD control suppor
  2 CONTROL ALL APPLICATIONS ===> NO        YES or NO
  3 REQUIRE FULL NAMES       ===> YES       YES or NO
  4 UNREGISTERED DDL DEFAULT ===> ACCEPT    Action for unregistered DDL:
                                            ACCEPT - allow it
                                            REJECT - prohibit it
                                            APPL   - consult ART

  5 REGISTRATION OWNER       ===> DSNRGCOL          Qualifier for ART an
  6 REGISTRATION DATABASE    ===> DSNRGFDB          Database name
  7 APPL REGISTRATION TABLE  ===> DSN_REGISTER_APPL Table name
  8 OBJT REGISTRATION TABLE  ===> DSN_REGISTER_OBJT Table name

 Note: ART = Application Registration Table
       ORT = Object      Registration Table

 PRESS:  ENTER to continue   RETURN to exit   HELP for more information
 .  .  .  .  .  .  .  .  .  .  .  .  .  .  .  .  .  .  .  .  .  .  .  .


                 MIGRATE DB2 - JOB EDITING
 ===>
      _

 Enter data below:

  1  REMOTE LOCATION   ===> DB2M             Remote location for COBOL
                                             organization application
  2  COBOL TYPE        ===> COB2             COBOL for sample applicatio
                                             (COBOL OR COB2)

 Enter job card information for install and sample jobs:

  3 ===>
  4 ===>
  5 ===>
  6 ===>






 PRESS:  ENTER to continue   RETURN to exit   HELP for more information
 .  .  .  .  .  .  .  .  .  .  .  .  .  .  .  .  .  .  .  .  .  .  .  .


                 MIGRATE DB2 - CLIST CALCULATIONS - PANEL 1
 ===>

-------- ------- -------- ----- ----------------------------------------
Soppitt  DB2CSC  08/14/92 12:57 SOFTWARE WAS IMPLEMENTED FROM THE TARGET
                                ZONE TDB2X, DB2X.TARGET.*, TO THE
                                ACTIVE ZONE DB2X, DB2X.*
-------- ------- -------- ----- ----------------------------------------
Soppitt  DB2CSC  08/14/92 12:51 TAPE ARCHIVE OF BDB2X WAS CREATED.
                                OUTPUT TAPE DSN = DB2X.BACKUP.LVL2
-------- ------- -------- ----- ----------------------------------------
TOMIAK G DB2CSC  08/14/92 12:33 TDB2X, WAS CLONED FROM A LEVEL 6
                                TV2R3 ZONE VIA IMPLEMENTATION DIALOG
-------- ------- -------- ----- ----------------------------------------
SOPPITT  DD20010 05/27/92 16:00 Job DB2XQRCL executed to recluster sel-
                                ected catlg/directory tablespaces after
                                maintenance applied.
-------- ------- -------- ----- ----------------------------------------
SOPPITT  DD20010 05/27/92 15:00 SOFTWARE WAS IMPLEMENTED FROM THE TARGET
                                ZONE TDB2X, DB2X.TARGET.*, TO THE
                                ACTIVE ZONE DB2X, DB2X.*
-------- ------- -------- ----- ----------------------------------------
SOPPITT  DD20010 05/27/92 14:44 TAPE ARCHIVE OF BDB2X WAS CREATED.
                                OUTPUT TAPE DSN = DB2X.BACKUP.LVL1
-------- ------- -------- ----- ----------------------------------------
soppitt  DB2CSC  05/26/92 17:55 TDB2X, WAS CLONED FROM A LEVEL 3
                                TDBST ZONE VIA IMPLEMENTATION DIALOG
-------- ------- -------- ----- ----------------------------------------
BORGES   BORGY   04/01/92 10:16 SOFTWARE WAS IMPLEMENTED FROM THE TARGET
                                ZONE TDB2X, DB2X.TARGET.*, TO THE
                                ACTIVE ZONE DB2X, DB2X.*
-------- ------- -------- ----- ----------------------------------------
BORGES   BORGY   03/31/92 14:00 TDB2X, WAS CLONED FROM A LEVEL 2
                                TDBST ZONE VIA IMPLEMENTATION DIALOG
-------- ------- -------- ----- ----------------------------------------
TOMIAK   DMV0016 12/04/91 15:00 LEVEL 02
                                Implemented
-------- ------- -------- ----- ----------------------------------------
TOMIAK   DMV0016 12/04/91 14:45 LEVEL 02 DB2X.TARGET.*
                                CLONE FROM DBST
-------- ------- -------- ----- ----------------------------------------
-------- ------- -------- ----- ----------------------------------------
TOMIAK   DMV0016 11/11/91 13:05 UPDATED  DB2X.OMEGDB2.DATA(VTPOOL)
                          13:10 EXECUTED DB2X.OMEGDB2.DATA(VTPOOLJB)
                          13:15 UPDATED  DB2X.OMEGDB2.DATA(OMEGDB2)
                          13:15 UPDATED  DB2X.OMEGDB2.DATA(DOFXODB2)
                          13:18 EXECUTED DB2X.OMEGDB2.DATA(O2BIND)
                          13:20 ADDED SYS2.DOFX.PROCLIB(OMEGDB2)
                          13:20 TAILORED DOFX.USER.SYSPROC(O2CLIST)
                          13:25 UPDATED SYS1.PARMLIB(IEAAPF00)
                          13:30 UPDATED NETVIEW/ACO FOR OMEGDB2
-------- ------- -------- ----- ----------------------------------------
TOMIAK   DMV0016 11/11/91 13:00 CLONED OMEG/DB2 ONTO DOFX
-------- ------- -------- ----- ----------------------------------------
-------- ------- -------- ----- ----------------------------------------
TOMIAK   DD20010 10/29/91 15:45 Executed CLIST and tested the CAF
                                COBOL and PL/1 applications.
-------- ------- -------- ----- ----------------------------------------
TOMIAK   DD20010 10/29/91 15:40 Setup CLIST to handle PL/1 and
                                VS COBOL II from ISPLLIB on LIBDEF.
-------- ------- -------- ----- ----------------------------------------
TOMIAK   DD20010 10/29/91 15:36 XDBS.INSTALL.CNTL(DB2XEJ3P)
                                PL/1 SAMPLE PROGRAMS WITH CAF
-------- ------- -------- ----- ----------------------------------------
TOMIAK   DD20010 10/29/91 15:28 XDBS.INSTALL.CNTL(DB2XEJ2P)
                                PL/1 SAMPLE PROGRAMS
-------- ------- -------- ----- ----------------------------------------
TOMIAK   DD20010 10/29/91 15:21 XDBS.INSTALL.CNTL(DB2XEJ2F)
                                FORTRAN SAMPLE PROGRAMS
-------- ------- -------- ----- ----------------------------------------
TOMIAK   DD20010 10/28/91 15:00 EDITED XDBS.IVP.PROCLIB(DSNHFOR)
                                TO ACCESS SYSTEM LIBRARIES.
                                  FORTRAN
-------- ------- -------- ----- ----------------------------------------
-------- ------- -------- ----- ----------------------------------------
TOMIAK   DD20010 10/28/91 15:14 XDBS.INSTALL.CNTL(DB2XEJ3C)
                                VS COBOL II PROGRAMS WITH CAF
-------- ------- -------- ----- ----------------------------------------
TOMIAK   DD20010 10/28/91 15:20 TEST SPUFI USING:
                                DB2X.DSNSAMP(DSNTESA)
                                DB2X.DSNSAMP(DSNTESC)
                                DB2X.DSNSAMP(DSNTESE)
-------- ------- -------- ----- ----------------------------------------
TOMIAK   DD20010 10/28/91 15:14 XDBS.INSTALL.CNTL(DB2XEJ2C)
                                VS COBOL II SAMPLE PROGRAMS
-------- ------- -------- ----- ----------------------------------------
TOMIAK   DD20010 10/28/91 15:03 XDBS.INSTALL.CNTL(DB2XEJ2A)
                                ASM SAMPLE PROGRAM UNLOAD
-------- ------- -------- ----- ----------------------------------------
TOMIAK   DD20010 10/28/91 14:52 XDBS.INSTALL.CNTL(DB2XEJ1P)
                                PL/1 SAMPLE PROGRAM AND SELECTS
-------- ------- -------- ----- ----------------------------------------
TOMIAK   DD20010 10/28/91 10:45 EDITED XDBS.IVP.PROCLIB(DSN*)
                                TO ACCESS SYSTEM LIBRARIES.
                                  PL/1 FORTRAN CICS IMS ISPF
-------- ------- -------- ----- ----------------------------------------
TOMIAK   DD20010 10/28/91 10:50 XDBS.INSTALL.CNTL(DB2XEJ1)
                                CREATE SAMPLE TABLES AND VIEWS
-------- ------- -------- ----- ----------------------------------------
TOMIAK   DD20010 10/28/91 10:45 EDITED XDBS.IVP.PROCLIB(DSNUPROC)
                                FOR LIB='DB2X.DSNLOAD'
-------- ------- -------- ----- ----------------------------------------
TOMIAK   DD20010 10/28/91 10:45 EDITED XDBS.IVP.PROCLIB(DSNHASMH)
                                TO ACCESS IMS, CICS, AND ISPF LIBRARIES.
-------- ------- -------- ----- ----------------------------------------
TOMIAK   DD20010 10/28/91 10:50 XDBS.INSTALL.CNTL(DB2XIJIC)
                                IMAGCOPY SYSIBM TABLESPACES
-------- ------- -------- ----- ----------------------------------------
TOMIAK   DD20010 10/28/91 11:15 RECYCLED DB2
-------- ------- -------- ----- ----------------------------------------
TOMIAK   DD20010 10/28/91 10:50 XDBS.INSTALL.CNTL(DB2XIJSG)
                                CHANGED DSNESPRR TO HAVE ISOLATION(CS)
-------- ------- -------- ----- ----------------------------------------
TOMIAK   DD20010 10/28/91 10:50 XDBS.INSTALL.CNTL(DB2XIJTM)
                                REQUIRES INSTALL SYSADM
-------- ------- -------- ----- ----------------------------------------
TOMIAK   DMV0016 10/28/91 10:30 XDBS.INSTALL.CNTL(DB2XIJTM)
                                ASM/LKED/BIND DSNTIAD
                                CREATE/DEFINE DSNDB07
-------- ------- -------- ----- ----------------------------------------
TOMIAK   DMV0016 10/28/91 10:05 EDITED XDBS.IVP.PROCLIB(DSNHASMH)
                                TO INCLUDE DB2SID - THE HIGH-LEVEL
                                QUALIFIER THAT MUST BE PASSED TO REFLECT
                                THE DB2 SUBSYSTEM ID BEING USED.
-------- ------- -------- ----- ----------------------------------------
TOMIAK   DMV0016 10/28/91 10:00 XDBS.INSTALL.CNTL(DB2XIJMV) WAS
                                UPDATED TO JUST ADD THE COMPILE AND
                                UTILITY PROCS TO:
                                  XDBS.IVP.PROCLIB
-------- ------- -------- ----- ----------------------------------------
TOMIAK   DMV0016 10/28/91 09:39 ^START DB2
-------- ------- -------- ----- ----------------------------------------
-------- ------- -------- ----- ----------------------------------------
TOMIAK   DMV0016 10/25/91 16:05 ^START DB2
-------- ------- -------- ----- ----------------------------------------
TOMIAK   DMV0016 10/25/91 15:48 XDBS.INSTALL.CNTL(DB2XIJUZ)
                                ASSEMBLES AND LINKS DB2 DSNZPARM AND
                                OTHER DEFAULTS.
-------- ------- -------- ----- ----------------------------------------
TOMIAK   DMV0016 10/25/91 15:37 XDBS.INSTALL.CNTL(DB2XIJID) WAS
                                EXECUTED TO LOAD THE
                                SYSIBM TABLESPACES.
-------- ------- -------- ----- ----------------------------------------
TOMIAK   DMV0016 10/25/91 15:30 XDBS.INSTALL.CNTL(DB2XIJIN) WAS
                                EXECUTED TO DEFINE THE CLUSTERS FOR
                                SYSIBM TABLESPACES.
-------- ------- -------- ----- ----------------------------------------
TOMIAK   DMV0016 10/25/91 15:23 XDBS.INSTALL.CNTL(DB2XIPOU) WAS
                                EXECUTED TO CHANGE DBSETGT.DSN220 TO
                                DB2X.
-------- ------- -------- ----- ----------------------------------------
TOMIAK   DMV0016 10/25/91 15:20 XDBS.INSTALL.CNTL(DB2XIJMV) WAS
                                COPIED FROM TAILORED OUTPUT. AS A DB2X
                                PREVIOUSLY EXISTED ON DOFX IT WAS NOT
                                RUN.
-------- ------- -------- ----- ----------------------------------------
TOMIAK   DMV0016 10/25/91 13:00 EXECUTED DSNTINST CLIST AND CHOSE
                                INITIAL VALUES. SEE BELOW:


                     INSTALL, UPDATE, AND MIGRATE DB2 - MAIN PANEL
 ===>
      _

 Check parameters and reenter to change:

  1  INSTALL TYPE         ===> INSTALL   Install, Update, or Migrate

 Enter the following 2 values for migration only
  2  FROM RELEASE         ===>           1.3 or 2.1
  3  DATA SET NAME(MEMBER)===>

 Enter name of your input data sets (DSNLOAD, DSNMACS, DSNSAMP, DSNCLIST
  4  PREFIX               ===> DBSETGT.DSN220
  5  SUFFIX               ===>

 Enter to set or save panel values (by reading or writing the named memb
  6  INPUT MEMBER NAME    ===> DSNTIDXA  Enter to read old panel values
  7  OUTPUT MEMBER NAME   ===> DSNTIDDX  Enter to write new panel values

 Enter name to create edited JCL and CLIST output:
  8  DATA SET NAME PREFIX ===> DOFX.DB2X



                 INSTALL DB2 - DATA PARAMETERS
 ===>
      _

 Check parameters and reenter to change:

  1  CATALOG ALIAS       ===> DB2X                  Alias of ICF catalog
                                                    DB2 subsystem data s
  2  DEFINE CATALOG      ===> NO                    YES or NO
  3  VOLUME SERIAL 1     ===> XDB001                Volume 1 for DB2 dat
  4  VOLUME SERIAL 2     ===>                       Volume 2 for DB2 dat
  5  VOLUME SERIAL 3     ===>                       Volume 3 for DB2 dat
  6  VOLUME SERIAL 4     ===>                       Volume 4 for DB2 dat
  7  VOLUME SERIAL 5     ===>                       Volume 5 for DB2 dat
  8  VOLUME SERIAL 6     ===>                       Volume 6 for DB2 dat
  9  PERMANENT UNIT NAME ===> 3390                  Device type for ICF
                                                    and partitioned data
 10  TEMPORARY UNIT NAME ===> SYSDA                 Device type for
                                                    temporary data sets






                 INSTALL DB2 - SIZES
 ===>
      _

 Check numbers and reenter to change:

  1  DATABASES          ===> 20         In this subsystem
  2  TABLES             ===> 10         Per database (average)
  3  COLUMNS            ===> 10         Per table (average)
  4  VIEWS              ===> 3          Per table (average)
  5  TABLE SPACES       ===> 10         Per database (average)
  6  PLANS              ===> 200        In this subsystem
  7  PLAN STATEMENTS    ===> 30         SQL statements per plan (average
  8  EXECUTED STMTS     ===> 15         SQL statements executed (average
  9  TABLES IN STMT     ===> 2          Tables per SQL statement (averag
 10  TEMP 4K SPACE      ===> 16M        Bytes of 4K-page work space
 11  TEMP 4K DATA SETS  ===> 1          Number of data sets for 4K data
 12  TEMP 32K SPACE     ===> 4M         Bytes of 32K-page work space
 13  TEMP 32K DATA SETS ===> 1          Number of data sets for 32K data
 14  ARCHIVE LOG FREQ   ===> 6          Hours per archive run
 15  UPDATE RATE        ===> 5          Updates, inserts, and deletes pe




                 INSTALL DB2 - STORAGE SIZES
 ===>
      _

 Check numbers and reenter to change:

  1  DATABASES         ===> 20         Concurrently in use
  2  MAX USERS         ===> 30         Concurrently running in DB2
  3  MAX REMOTE        ===> 2          Remotely accessing data in DB2
  4  MAX TSO CONNECT   ===> 100        Users on QMF or in DSN command
  5  MAX BATCH CONNECT ===> 20         Users in DSN command or utilities
  6  MIN BP0 BUFFERS   ===> 1000       Minimum number of buffers in BP0
  7  MAX BP0 BUFFERS   ===> 1000       Maximum number of buffers in BP0
  8  MIN BP1 BUFFERS   ===> 5          Minimum number of buffers in BP1
  9  MAX BP1 BUFFERS   ===> 5          Maximum number of buffers in BP1
 10  MIN BP2 BUFFERS   ===> 5          Minimum number of buffers in BP2
 11  MAX BP2 BUFFERS   ===> 5          Maximum number of buffers in BP2
 12  MIN BP32K BUFFERS ===> 12         Minimum number of buffers in BP32
 13  MAX BP32K BUFFERS ===> 12         Maximum number of buffers in BP32






                 INSTALL DB2 - TRACING
 ===>
      _

 Enter data below:

  1  AUDIT TRACE      ===> NO          Audit classes to start. NO,YES,li

  2  TRACE AUTO START ===> NO          Global classes to start. YES, NO,
  3  TRACE SIZE       ===> 64K         Trace table size in bytes.  4K-39

  4  SMF ACCOUNTING   ===> 1           Accounting classes to start. NO,Y
  5  SMF STATISTICS   ===> YES         Statistics classes to start. NO,Y
  6  STATISTICS TIME  ===> 15          Time interval in minutes.  1-1440

  7  MONITOR TRACE    ===> NO          Monitor classes to start. NO, YES
  8  MONITOR SIZE     ===> 8K          Default monitor buffer size. 8K-1

  9  CHECKPOINT FREQ  ===> 1000        Number of log records per checkpo






                 INSTALL DB2 - OPERATOR FUNCTIONS
 ===>
      _

 Enter data below:

  1  WTO ROUTE CODES    ===> 1
                                        Routing codes for WTORs
  2  RECALL DATABASE    ===> YES        Use HSM automatic recall. YES or
  3  RECALL DELAY       ===> 120        Seconds to wait for automatic re

  4  RLF AUTO START     ===> NO         Resource Limit Facility.  NO or
  5  RLST NAME SUFFIX   ===> 01         Resource Limit Spec. Table (RLST
  6  RLST ACCESS ERROR  ===> NOLIMIT    Action on RLST access error. Val
                                        NOLIMIT - Run without limit
                                        NORUN   - Do not run at all
                                        1-5000000 - Limit in CPU service

  7  DSNZPARM NAME      ===> DSNZPARM   Enter name of new DB2 parameter



 PRESS:  ENTER to continue   END to exit   HELP for more information


                 INSTALL DB2 - APPLICATION PROGRAMMING DEFAULTS
 ===>
      _

 Enter data below:

  1  LANGUAGE DEFAULT     ===> COB2     ASM, ASMH, C, COBOL, COB2, FORTR
  2  DECIMAL POINT IS     ===> .        . or ,
  3  MINIMUM DIVIDE SCALE ===> NO       NO or YES for a minimum of 3 dig
                                        to right of decimal after divisi
  4  STRING DELIMITER     ===> DEFAULT  DEFAULT, " or '
  5  SQL STRING DELIMITER ===> DEFAULT  DEFAULT, " or '
  6  MIXED DATA           ===> NO       NO or YES for mixed DBCS data
  7  CHARACTER SET        ===> ALPHANUM ALPHANUM or KATAKANA
  8  DATE FORMAT          ===> ISO      ISO, JIS, USA, EUR, LOCAL
  9  TIME FORMAT          ===> ISO      ISO, JIS, USA, EUR, LOCAL
 10  LOCAL DATE LENGTH    ===> 0        0 (no exit), or value between 10
 11  LOCAL TIME LENGTH    ===> 0        0 (no exit), or value between  8
 12  STD SQL LANGUAGE     ===> NO       NO or 86



 PRESS:  ENTER to continue   END to exit   HELP for more information


                 INSTALL DB2 - IRLM PANEL 1
 ===>
      _

 Enter data below:

  1  INSTALL IRLM       ===> YES        IRLM is required for DB2. Should
                                        IRLM distributed with DB2 be ins
  2  SUBSYSTEM NAME     ===> IRLM       IRLM MVS subsystem name
  3  RESOURCE TIMEOUT   ===> 60         Seconds to wait for unavailable
  4  TIME INTERVAL      ===> 500        Milliseconds between lock proces
  5  AUTO START         ===> YES        Start IRLM if not up. YES or NO
  6  PROC NAME          ===> IRLMDB2X   Name of start procedure for IRLM
  7  TIME TO AUTOSTART  ===> 300        Time DB2 will wait for IRLM auto











                 INSTALL DB2 - IRLM PANEL 2
 ===>
      _

 Enter data below:

  1  CROSS MEMORY           ===> NO        Local storage and cross memor
  2  MAXIMUM ECSA           ===> 5M        Control block storage (1M - 9
  3  LOCKS PER TABLE(SPACE) ===> 1000      Maximum before lock escalatio
  4  LOCKS PER USER         ===> 10000     Maximum before resource unava
  5  PARTNER                ===>           VTAM name of other IRLM.  Req
                                           for intersystem communication
  6  IDENTIFIER             ===> 1         Number for this IRLM (1-8)
  7  DEADLOCK TIME          ===> 15        Detection interval in seconds
  8  DEADLOCK CYCLE         ===> 4         Number of LOCAL cycles before
  9  INTERNAL TRACE         ===> YES       Automatic start of tracing









                 INSTALL DB2 - PROTECTION
 ===>
      _

 Enter data below:

  1  ICF CATALOG       ===>            ICF catalog control password
  2  BSDS PASSWORD     ===>            Bootstrap data sets password
  3  LOG PASSWORD      ===>            Active log data sets password
  4  ARCHIVE LOG PW    ===>            Archive log data sets password
  5  ARCHIVE LOG RACF  ===> NO         RACF protect archive log data set
  6  DIRECTORY/CATALOG ===>            DB2 directory and catalog passwor
  7  USE PROTECTION    ===> YES        DB2 authorization enabled.  YES o
  8  SYSTEM ADMIN 1    ===> DD20010    Authid of system administrator
  9  SYSTEM ADMIN 2    ===> SYSADM     Authid of system administrator
 10  SYSTEM OPERATOR 1 ===> SYSOPR     Authid of system operator
 11  SYSTEM OPERATOR 2 ===> SYSOPR     Authid of system operator
 12  UNKNOWN AUTHID    ===> UNKNOWN    Authid of default (unknown) user
 13  RESOURCE AUTHID   ===> SYSIBM     Authid of Resource Limit Table cr






                 INSTALL DB2 - MVS PARMLIB UPDATES
 ===>
      _

 Check data and reenter to change:

  1  SUBSYSTEM NAME      ===> DB2X       Name for connecting to DB2
  2  SUBSYSTEM PREFIX    ===> ^          One character to denote subsyst
  3  SUBSYSTEM MEMBER    ===> 00         xx in IEFSSNxx
  4  SUBSYSTEM SEQUENCE  ===> 88888888   Sequence number for insertion
  5  AUTH MEMBER         ===> 00         xx in IEAAPFxx APF member name
  6  AUTH SEQUENCE       ===> 88888888   Sequence number for insertion
  7  LINK LIST ENTRY     ===> 00         xx in LNKLSTxx for DSNLINK
  8  LINK LIST SEQUENCE  ===> 88888888   Sequence number for insertion











                 INSTALL DB2 - LOG DATA SETS
 ===>
      _

 Enter data below:

  1  NUMBER OF COPIES  ===> 2        2 or 1.  Number of active log copie
  2  DATA SET PREFIX 1 ===> DOFX.DB2X.LOGCOPY1
  3  DATA SET PREFIX 2 ===> DOFX.DB2X.LOGCOPY2
  4  NUMBER OF LOGS    ===> 3        Number data sets per active log cop
  5  INPUT BUFFER      ===> 28K      Size in bytes (28K-60K)
  6  OUTPUT BUFFER     ===> 400K     Size in bytes (40K-4000K)
  7  WRITE THRESHOLD   ===> 20       Buffers filled before write (1-256)
  8  BOOTSTRAP NAME 1  ===> DOFX.DB2X.BSDS01
  9  BOOTSTRAP NAME 2  ===> DOFX.DB2X.BSDS02










                 INSTALL DB2 - ARCHIVE LOG DATA SETS
 ===>
      _

 Enter data below:

  1  NUMBER OF COPIES ===> 2         2 or 1.  Number of archive log copi
  2  ARCHIVE PREFIX   ===> DOFX.DB2X.ARCHLOG1
  3   COPY 2 PREFIX   ===> DOFX.DB2X.ARCHLOG2
  4  CATALOG DATA     ===> YES       YES or NO to catalog archive data s
  5  DEVICE TYPE      ===> SYSDA     Unit name for archive logs
  6  BLOCK SIZE       ===> 28672     Rounded up to 4096 multiple
  7  MAX CONCURRENT   ===> 3         Number of input volumes allocated
  8  RECORDING MAX    ===> 500       Number of data sets recorded in BSD
  9  MSVGP 1          ===>           Mass storage volume group (MSVGP)
 10  MSVGP 2          ===>           MSVGP for second archive copy
 11  WRITE TO OPER    ===> NO        Issue WTOR before mount for archive
 12  WTOR ROUTE CODE  ===> 1,3,4
                                     Routing codes for archive WTORs
 13  RETENTION PERIOD ===> 14        Days to retain archive log data set
 14  COMPACT DATA     ===> NO        YES or NO for data compaction




 BROWSE -- SYS2.VTAMLST(A05DB2X) - 01.01 ------------ LINE 00000000 COL
                 INSTALL DB2  DISTRIBUTED DATA FACILITY
 ===>
      _

 Enter data below:

  1 DDF STARTUP OPTION   ===> AUTO      NO (DDF not startable),
                                        AUTO (automatic start up), or
                                        COMMAND (start by command)
  2 DB2 LOCATION NAME    ===> DB2X              The name other DB2s use
                                                refer to this DB2
  3 DB2 NETWORK LUNAME   ===> DOFXDB2X  The name VTAM uses to refer to t
  4 DB2 NETWORK PASSWORD ===> DOFXDB2X  Password for connecting to other
  5 RLST ACCESS ERROR    ===> NOLIMIT   Action on non-local RLST access
                                        NOLIMIT   - Run without limit
                                        NORUN     - Do not run at all
                                        1-5000000 - Limit in CPU service

  6 SAMPLE TEST LOCATION ===> DB2M              Location name used in ph
                                                (DSNTEJ6) of DB2 sample
                                                applications

 PRESS:  ENTER to continue   END to exit   HELP for more information
-------- ------- -------- ----- ----------------------------------------
-------- ------- -------- ----- ----------------------------------------
TOMIAK   DMV0016 10/24/91 09:00 DECIDED TO START OVER, DELETED ALL
                                EXISTING LIBRARIES AND CLONED WITH
                                9102 MAINTENANCE. UPDATED APF AND PROCS.
-------- ------- -------- ----- ----------------------------------------
-------- ------- -------- ----- ----------------------------------------
TOMIAK   DMV0016 10/15/91 09:00 LEVEL 01
                                CLONE FROM DBSTGT
-------- ------- -------- ----- ----------------------------------------
-------- ------- -------- ----- ----------------------------------------
TOMIAK   DMV0016 08/01/91 09:00 CREATED INITIAL DB2X SUBSYSTEM
-------- ------- -------- ----- ----------------------------------------
./ ADD NAME=DDB2     0186-90313-94023-0806-01070-00082-00000-DD20005
************************************************************************
*****                                                              *****
*****         CCCC   DDDD     CCCC    SSS      A                   *****
*****        C       D   D   C       S        A A                  *****
*****        C       D   D   C        SSS    AAAAA                 *****
*****        C       D   D   C           S   A   A                 *****
*****         CCCC   DDDD     CCCC    SSS    A   A                 *****
*****                                                              *****
*****        DOF Development 1                                     *****
*****                                                              *****
************************************************************************

NAME      USERID   DATE   TIME  DESCRIPTION OF CHANGE
-------- ------- -------- ----- ----------------------------------------
LOVARI   DD20005 01/23/94 08:05 Project: DB2???
                                CHREQ# 00000
                                SOFTWARE WAS IMPLEMENTED FROM THE TARGET
                                ZONE TDDB2, DDB2.OMEGDB2.TARGET.*, TO TH
                                ACTIVE ZONE DDB2, DDB2.OMEGDB2.*
-------- ------- -------- ----- ----------------------------------------
SOPPITT  DD20001 01/23/94 07:50 Project: F94625
                                CHREQ# 32915
                                SOFTWARE WAS IMPLEMENTED FROM THE TARGET
                                ZONE TDDB2, DDB2.TARGET.*, TO THE
                                ACTIVE ZONE DDB2, DDB2.*
-------- ------- -------- ----- ----------------------------------------
Soppitt  DD20001 01/21/94 16:25 Project: F94625
                                TDDB2, WAS CLONED FROM A LEVEL 16 TV2R3
                                ZONE VIA IMPLEMENTATION DIALOG
-------- ------- -------- ----- ----------------------------------------
LOVARI   DD20005 01/18/94 15:08 OMEGAMON II FOR DB2 SOFTWARE
                                TDDB2, WAS CLONED FROM A LEVEL 2
                                TOMGDB2 ZONE VIA IMPLEMENTATION DIALOG
-------- ------- -------- ----- ----------------------------------------
tomiak   DD20008 12/06/93 14:00 Project: f94
                                CHREQ# 31243
                                free CICS AbendAid/DB2 plan CCASDB24
-------- ------- -------- ----- ----------------------------------------
WESTON   DD20007 11/21/93 12:45 Project: DB2???
                                CHREQ# 00000
                                SOFTWARE WAS IMPLEMENTED FROM THE TARGET
                                ZONE TDDB2, DDB2.TARGET.*, TO THE
                                ACTIVE ZONE DDB2, DDB2.*
-------- ------- -------- ----- ----------------------------------------
WESTON   DD20007 11/17/93 15:52 Submitted 'XDBS.DDB2.CNTL(DSN4ZPRM)'
                                to increase the threshold to 50 % and
                                increase the output buffer to 1024000.
-------- ------- -------- ----- ----------------------------------------
WESTON   DD20007 11/17/93 14:52 Project: F94614
                                TDDB2, WAS CLONED FROM A LEVEL 13A
                                DSN ZONE VIA IMPLEMENTATION DIALOG
-------- ------- -------- ----- ----------------------------------------
LOVARI   DD20005 09/06/93 11:35 Project: DB2???
                                CHREQ# 00000
                                SOFTWARE WAS IMPLEMENTED FROM THE TARGET
                                ZONE TDDB2, DDB2.TARGET.*, TO THE
                                ACTIVE ZONE DDB2, DDB2.*
-------- ------- -------- ----- ----------------------------------------
LOVARI   DD20005 09/06/93 11:27 Project: DB2???
                                TAPE ARCHIVE OF BDDB2 WAS CREATED.
                                OUTPUT TAPE DSN = DDB2.BACKUP.LVL8
-------- ------- -------- ----- ----------------------------------------
LOVARI   DD20005 09/06/93 10:59 Project: DB2???
                                TDDB2, WAS CLONED FROM A LEVEL 10A
                                DSN ZONE VIA IMPLEMENTATION DIALOG
-------- ------- -------- ----- ----------------------------------------
Soppitt  DD20001 07/30/93 14:30 Execute Install Clist to turn on ACCTG
                                Class-2 trace at subsystem start-up.
                                Asm/Link DSNZPARM using
                                    'XDBS.DDB2.CNTL(DSN3ZPRM)'
                                Old module renamed OLDZPARM on DSNEXIT.
-------- ------- -------- ----- ----------------------------------------
SOPPITT  DD20010 07/20/93 12:15 Rebind plan CWSQLPRO for PROEDIT V6.2
                                JCL in 'XDBS.DDB2.CNTL(BNDPROED)'
-------- ------- -------- ----- ----------------------------------------
MUNDO    DD20009 06/20/93 10:00 XDBS.DDB2.CNTL(ZPARMCMP)
                                ASM/LINK DSNZPARM
-------- ------- -------- ----- ----------------------------------------
MUNDO    DD20009 06/20/93 08:00 XDBS.DDB2.CNTL(IPAKBIND)
                                BIND ADD TPAKDB2 plan.
-------- ------- -------- ----- ----------------------------------------
MUNDO    DD20009 06/20/93 07:57 XDBS.DDB2.CNTL(ITOLBIND)
                                BIND replace on Ipkmst plan.
-------- ------- -------- ----- ----------------------------------------
TOMIAK   DD20008 06/20/93 07:00 SYS2.SHARE.PROCLIB()
                                Project: DB2???
                                Moved procedures from SYS2.MVSE.PROCLIB
                                (DDB2DBM1) removed infopak from STEPLIB
                                (DDB2MSTR) added STAT and BSDS steps
                                           changed COND on other steps
-------- ------- -------- ----- ----------------------------------------
-------- ------- -------- ----- ----------------------------------------
MUNDO    DD2000? 06/18/93 15:45 %invkdsnt
                                Project: DB2MON
                                Raise LOGLOAD from 1,000 to 50,000

 DSNTIPN         MIGRATE DB2 - TRACING
 ===>
      _

 Enter data below:

  1  AUDIT TRACE      ===> NO          Audit classes to start. NO,YES,li

  2  TRACE AUTO START ===> NO          Global classes to start. YES, NO,
  3  TRACE SIZE       ===> 65536       Trace table size in bytes.  4K-39

  4  SMF ACCOUNTING   ===> 1           Accounting classes to start. NO,Y
  5  SMF STATISTICS   ===> YES         Statistics classes to start. NO,Y
  6  STATISTICS TIME  ===> 30          Time interval in minutes.  1-1440

  7  MONITOR TRACE    ===> NO          Monitor classes to start. NO, YES
  8  MONITOR SIZE     ===> 8192        Default monitor buffer size. 8K-1

  9  CHECKPOINT FREQ  ===> 50000       Number of log records per checkpo




 PRESS:  ENTER to continue   RETURN to exit   HELP for more information



-------- ------- -------- ----- ----------------------------------------
-------- ------- -------- ----- ----------------------------------------
MUNDO    DD20009 06/14/93 14:42 XDBS.DDB2.CNTL(IPKPLIB)
                                Project: DB2ITL
                                Links ipkmst for automatic location
                                of the INFOTEL parmlib.
-------- ------- -------- ----- ----------------------------------------
MUNDO    DD20009 06/14/93 14:39 XDBS.DDB2.CNTL(BATSPUFI)
                                Project: DB2ITL
                                create stogroup,dtabase,tablespace,index
                                for use by infotool.
-------- ------- -------- ----- ----------------------------------------
MUNDO    DD20009 06/14/93 14:36 XDBS.DDB2.CNTL(IPAKIMPL)
                                Project: DB2ITL
                                Renames target to active and copies
                                DB2LINK into active DSNEXIT.
-------- ------- -------- ----- ----------------------------------------
MUNDO    DD20009 06/14/93 14:34 XDBS.DDB2.CNTL(IPAKMIG)
                                Project: DB2ITL
                                Copies INFOPAK base libraries to target.
-------- ------- -------- ----- ----------------------------------------
MUNDO    DD20009 06/14/93 14:33 XDBS.DDB2.CNTL(ITOLIMPL)
                                Project: DB2ITL
                                Renames target to active
-------- ------- -------- ----- ----------------------------------------
MUNDO    DD20009 06/14/93 14:30 XDBS.DDB2.CNTL(ITOOLMIG)
                                Project: DB2ITL
                                Copies INFOtool base libraries to target
-------- ------- -------- ----- ----------------------------------------
-------- ------- -------- ----- ----------------------------------------
TOMIAK   DD20008 04/04/93 09:16 SOFTWARE WAS IMPLEMENTED FROM THE TARGET
                                ZONE TDDB2, DDB2.TARGET.*, TO THE
                                ACTIVE ZONE DDB2, DDB2.*
-------- ------- -------- ----- ----------------------------------------
TOMIAK   DD20008 04/04/93 09:08 TAPE ARCHIVE OF BDDB2 WAS CREATED.
                                OUTPUT TAPE DSN = DDB2.BACKUP.LVL7
-------- ------- -------- ----- ----------------------------------------
TOMIAK   DD20008 04/04/93 07:55 CHREQ# 27676
                                Using DF/DSS moved DDB2.PROINSTL.*
                                from DB2S01 to DDBS01.
-------- ------- -------- ----- ----------------------------------------
TOMIAK   DD20008 04/02/93 22:25 TDDB2, WAS CLONED FROM A LEVEL 10
                                TV2R3 ZONE VIA IMPLEMENTATION DIALOG
-------- ------- -------- ----- ----------------------------------------
TOMIAK   DD20008 02/18/93 16:07 OMEGAMON II FOR DB2 SOFTWARE CLONED FROM
                                ZONE TDDB2, DDB2.OMEGDB2.TARGET.*, TO TH
                                ACTIVE ZONE DDB2, DDB2.OMEGDB2.*
-------- ------- -------- ----- ----------------------------------------
TOMIAK   DD20008 02/18/93 15:32 OMEGAMON II FOR DB2 SOFTWARE
                                DDB2, WAS CLONED FROM A LEVEL 2
                                OMEGTGT ZONE VIA IMPLEMENTATION DIALOG
-------- ------- -------- ----- ----------------------------------------
TOMIAK   DD20008 12/20/92 10:53 SOFTWARE WAS IMPLEMENTED FROM THE TARGET
                                ZONE TDDB2, DDB2.TARGET.*, TO THE
                                ACTIVE ZONE DDB2, DDB2.*
-------- ------- -------- ----- ----------------------------------------
TOMIAK   DD20008 12/20/92 10:43 TAPE ARCHIVE OF BDDB2 WAS CREATED.
                                OUTPUT TAPE DSN = DDB2.BACKUP.LVL3
-------- ------- -------- ----- ----------------------------------------
BORGES   DD20002 12/17/92 12:28 TDDB2, WAS CLONED FROM A LEVEL 8
                                TV2R3 ZONE VIA IMPLEMENTATION DIALOG
-------- ------- -------- ----- ----------------------------------------
Tomiak   KETCSC  12/10/92 14:00 Moved new DYNBKUP and BIND imagsql.
-------- ------- -------- ----- ----------------------------------------
-------- ------- -------- ----- ----------------------------------------
Weston   DD20007 11/24/92 14:30 Edit XDBS.DSNTID.SOURCE(DSNTIDDD) and
                                changed the IRLMMCSA parameter to 10meg.
                                Also change MAXCSA parameter in
                                SYS2.MVSE.PROCLIB(IRLMDOFE).
-------- ------- -------- ----- ----------------------------------------
Weston   DD20007 11/18/92 14:31 Bind Plan 'PCSQLTST' for DDB2 using
                                XDBS.DDB2.CNTL(DDB2PCBN) and Grant plan
                                public.
-------- ------- -------- ----- ----------------------------------------
Weston   DD20007 11/18/92 14:24 Propagated PC/SQL-Link to DDB2 using
                                XDBS.DDB2.CNTL(DDB2PCCP) creating
                                DDB2.PCSQL.CNTL,DDB2.PCSQL.CLIST,
                                DDB2.PCSQL.LIBRARY, and DDB2.PCSQL.LOAD.
-------- ------- -------- ----- ----------------------------------------
Weston   LAWCSC  11/13/92 11:28 Bind PLAN(DBAMONRP) on DDB2.
                                XDBS.DDB2.CNTL(DDB2ATBD)
-------- ------- -------- ----- ----------------------------------------
Weston   LAWCSC  11/13/92 11:22 Assembled DBAPARMS to include the DDB2
                                subsystem. XDBS.DDB2.CNTL(DDB2ATAS)
-------- ------- -------- ----- ----------------------------------------
Weston   LAWCSC  11/13/92 09:48 Propagated Database Attach to DDB2 using
                                XDBS.DDB2.CNTL(DDB2ATCP) creating
                                DDB2.DB2ATCH.CNTL and DDB2.DB2ATCH.LOAD.
-------- ------- -------- ----- ----------------------------------------
SOPPITT  DD20001 11/02/92 16:45 DSNZPARM reassembled using job in
                                XDBS.DDB2.CNTL(DSNZPARM)
-------- ------- -------- ----- ----------------------------------------
SOPPITT  DD20010 11/02/92 15:46 EZTREIVE plan, DQSMCMD, rebound for DB2
                                V2R3.
-------- ------- -------- ----- ----------------------------------------
SOPPITT  DD20010 10/31/92 11:56 QMF plan (QMF310) rebound.
-------- ------- -------- ----- ----------------------------------------
SOPPITT  DD20010 10/31/92 10:00 Following IVP job executed from
                                XDBS.DDB2.CNTL.  EJ0,EJ1,EJ1P,EJ2A
-------- ------- -------- ----- ----------------------------------------
SOPPITT  DD20010 10/31/92 09:52 Asm, Link,Bind DSNTIAD & PLANS using job
                                XDBS.DDB2.CNTL(DSN3IJTM)
-------- ------- -------- ----- ----------------------------------------
SOPPITT  DD20010 10/31/92 09:32 SPUFI, DCLGEN, DSNCV plans rebound using
                                XDBS.DDB2.CNTL(DSN3IJSG)
-------- ------- -------- ----- ----------------------------------------
SOPPITT  DD20010 10/31/92 09:28 DSNZPARM reassembled using job in
                                XDBS.DDB2.CNTL(DSN3IJUZ)
-------- ------- -------- ----- ----------------------------------------
SOPPITT  DD20010 10/31/92 09:15 BSDS's converted to V2r3 using job in
                                XDBS.DDB2.CNTL(DDB2BSDS)
-------- ------- -------- ----- ----------------------------------------
SOPPITT  DD20001 10/31/92 09:09 SOFTWARE WAS IMPLEMENTED FROM THE TARGET
                                ZONE TDDB2, DDB2.TARGET.*, TO THE
                                ACTIVE ZONE DDB2, DDB2.*
-------- ------- -------- ----- ----------------------------------------
SOPPITT  DD20001 10/30/92 15:54 TDDB2, WAS CLONED FROM A LEVEL 7
                                TV2R3 ZONE VIA IMPLEMENTATION DIALOG
-------- ------- -------- ----- ----------------------------------------
SYSADM    DD20010 10/10/92 16:16 THE DDB2 ZONE HAS BE RESTORED FROM
                                IT'S BACKUP, BDDB2. REFER TO THE
                                LVL TRCKING BOARD TO VERIFY LVL BACKOUT
-------- ------- -------- ----- ----------------------------------------
SYSADM   DD20010 10/10/92 11:53 SOFTWARE WAS IMPLEMENTED FROM THE TARGET
                                ZONE TDDB2, DDB2.TARGET.*, TO THE
                                ACTIVE ZONE DDB2, DDB2.*
-------- ------- -------- ----- ----------------------------------------
SYSADM    DD20010 10/04/92 15:51 THE DDB2 ZONE HAS BE RESTORED FROM
                                IT'S BACKUP, BDDB2. REFER TO THE
                                LVL TRCKING BOARD TO VERIFY LVL BACKOUT
-------- ------- -------- ----- ----------------------------------------
SYSADM   DD20010 10/04/92 10:42 SOFTWARE WAS IMPLEMENTED FROM THE TARGET
                                ZONE TDDB2, DDB2.TARGET.*, TO THE
                                ACTIVE ZONE DDB2, DDB2.*
-------- ------- -------- ----- ----------------------------------------
SYSADM    DD20010 09/20/92 23:11 THE DDB2 ZONE HAS BE RESTORED FROM
                                IT'S BACKUP, BDDB2. REFER TO THE
                                LVL TRCKING BOARD TO VERIFY LVL BACKOUT
-------- ------- -------- ----- ----------------------------------------
SYSADM    DD20010 09/20/92 22:44 THE DDB2 ZONE HAS BE RESTORED FROM
                                IT'S BACKUP, BDDB2. REFER TO THE
                                LVL TRCKING BOARD TO VERIFY LVL BACKOUT
-------- ------- -------- ----- ----------------------------------------
SYSADM   DD20010 09/19/92 14:11 SOFTWARE WAS IMPLEMENTED FROM THE TARGET
                                ZONE TDDB2, DDB2.TARGET.*, TO THE
                                ACTIVE ZONE DDB2, DDB2.*
-------- ------- -------- ----- ----------------------------------------
Soppitt  DD20010 09/10/92 14:00 Installation clist, INVKDSNT, was run
                                (via %XDBSALC) against the target zone,
                                DDB2.TARGET, to migrate to V2.3.
                                Panel values given below:-



 DSNTIPA1            INSTALL, UPDATE, AND MIGRATE DB2 - MAIN PANEL
 ===>
      _

 Check parameters and reenter to change:

  1  INSTALL TYPE         ===> MIGRATE   Install, Update, or Migrate

 Enter the following 2 values for migration only
  2  FROM RELEASE         ===> 2.2       1.3 or 2.2
  3  DATA SET NAME(MEMBER)===> DDB2.TARGET.DSNSAMP(DSNTIDDD)

 Enter name of your input data sets (DSNLOAD, DSNMACS, DSNSAMP, DSNCLIST
  4  PREFIX               ===> DDB2.TARGET
  5  SUFFIX               ===>

 Enter to set or save panel values (by reading or writing the named memb
  6  INPUT MEMBER NAME    ===> DSNTIDXA  Enter to read old panel values
  7  OUTPUT MEMBER NAME   ===> DSNTIDDD  Enter to write new panel values




 PRESS:  ENTER to continue   RETURN to exit   HELP for more information



 DSNTIPA2        MIGRATE DB2 - DATA PARAMETERS
 ===>
      _

 Check parameters and reenter to change:

  1  CATALOG ALIAS       ===> DDB2                  Alias of MVS catalog
                                                    DB2 subsystem data s
  2  DEFINE CATALOG      ===> NO                    YES or NO
  3  VOLUME SERIAL 1     ===> DDBS01                CLIST allocation
  4  VOLUME SERIAL 2     ===> EDB001                Non-VSAM data
  5  VOLUME SERIAL 3     ===> EDB001                Default, temporary d
  6  VOLUME SERIAL 4     ===> EDB001                Directory, catalog d
  7  VOLUME SERIAL 5     ===> EDB001                Directory, catalog i
  8  VOLUME SERIAL 6     ===> EDB001                Log copy 1, BSDS 2
  9  VOLUME SERIAL 7     ===> EDB001                Log copy 2, BSDS 1
 10  PERMANENT UNIT NAME ===> 3390                  Device type for MVS
                                                    and partitioned data
 11  TEMPORARY UNIT NAME ===> SYSDA                 Device type for
                                                    temporary data sets



 PRESS:  ENTER to continue   RETURN to exit   HELP for more information



 DSNTIPH         MIGRATE DB2 - SYSTEM RESOURCE DATA SET NAMES
 ===>
      _

 Enter data below:

 Bootstrap Data Sets (BSDS):
   1 COPY 1 NAME         ===> DDB2.BSDS01
   2 COPY 2 NAME         ===> DDB2.BSDS02

 Active Logs:
   3 NUMBER OF COPIES    ===> 2        2 or 1.  Number of active log cop
   4 COPY 1 PREFIX       ===> DDB2.LOGCOPY1
   5 COPY 2 PREFIX       ===> DDB2.LOGCOPY2

 Archive Logs:
   6 NUMBER OF COPIES    ===> 2        2 or 1.  Number of archive log co
   7 COPY 1 PREFIX       ===> DDB2.ARCHLOG1
   8 COPY 2 PREFIX       ===> DDB2.ARCHLOG2
   9 TIMESTAMP ARCHIVES  ===> NO       YES or NO



 PRESS:  ENTER to continue   RETURN to exit   HELP for more information



 DSNTIPT         MIGRATE DB2 - DATA SET NAMES PANEL 1
 ===>
      _

 Data sets allocated by the installation CLIST for edited output:
   1  TEMP CLIST LIBRARY ===> DDB2.V23.DSNTEMP
   2  CLIST LIBRARY      ===> DDB2.V23.DSNCLIST
   3  SAMPLE LIBRARY     ===> DDB2.V23.DSNSAMP

 Data sets allocated by the installation jobs:
   4  DBRM LIBRARY       ===> DDB2.V23.DBRMLIB.DATA
   5  APPLICATION LOAD   ===> DDB2.V23.RUNLIB.LOAD
   6  DECLARATION LIBRARY===> DDB2.V23.SRCLIB.DATA

 Data sets allocated by SMP/E and other methods:
   7  LINK LIST LIBRARY  ===> DDB2.TARGET.DSNLINK
   8  LOAD LIBRARY       ===> DDB2.TARGET.DSNLOAD
   9  MACRO LIBRARY      ===> DDB2.TARGET.DSNMACS
  10  LOAD DISTRIBUTION  ===> XDBS.V2R3.DSNALOAD
  11  EXIT LIBRARY       ===> DDB2.TARGET.DSNEXIT



 PRESS:  ENTER to continue   RETURN to exit   HELP for more information



 DSNTIPU         MIGRATE DB2 - DATA SET NAMES PANEL 2
 ===>
      _

 Enter data set names below:
  1  ASSEMBLER            ===>
  2  C COMPILER           ===> EDC.V1R1M1.SEDCCOMP
  3  C COMPILER MESSAGES  ===> EDC.V1R1M1.SEDCMSGS
  4  C LIBRARY HEADERS    ===> EDC.V1R1M1.SEDCHDRS
  5  C LINK EDIT STUBS    ===> EDC.V1R1M1.SEDCBASE
  6  C DYNAMIC RUNTIME    ===> EDC.V1R1M1.SEDCLINK
  7  COBOL COMPILER       ===>
  8  COBOL LINK EDIT      ===> SYS1.COBLIB
  9  VS COBOL II COMPILER ===> SYS1.COB2COMP
 10  VS COBOL II LINK     ===> SYS1.COB2LIB
 11  COMMON LINK EDIT     ===> PLI.V2R2M0.SIBMBASE
 12  COMMON DYNAMIC       ===> PLI.V2R2M0.SIBMLINK
 13  FORTRAN COMPILER     ===> SYS1.VSF2COMP
 14  FORTRAN LINK EDIT    ===> SYS1.VSF2FORT
 15  PL/I COMPILER        ===> PLI.V2R2M0.PLICOMP
 16  PL/I LINK EDIT       ===> PLI.V2R2M0.PLIBASE


 PRESS:  ENTER to continue   RETURN to exit   HELP for more information



 DSNTIPW         MIGRATE DB2 - DATA SET NAMES PANEL 3
 ===>
      _

 Enter data set names below:
  1  SYSTEM MACLIB        ===> SYS1.MACLIB
  2  SYSTEM PROCEDURES    ===> DDB2.INSTALL.PROCLIB
  3  SORT LIBRARY         ===> SYS1.SORTLIB
  4  IMS RESLIB           ===> DDB2.TARGET.RLRESLIB
  5  ISPF ISPLINK MODULE  ===> ISP.ISPLOAD













 PRESS:  ENTER to continue   RETURN to exit   HELP for more information



 DSNTIPV         MIGRATE DB2 - CICS
 ===>
      _

 Enter data below:

  1 CICS RELEASE         ===> 2         0 = not using CICS
                                        1 = CICS/OS/VS 1.7.0
                                        2 = CICS/MVS 2.1
                                        3 = CICS/ESA 3.1.1 or 3.2

  2 CICS COBOL LIBRARY   ===> XCICS.TC212D3.COBLIB
  3 CICS COBOL II LIBRARY===> SYS1.COB2CICS
  4 CICS PL/I  LIBRARY   ===> XCICS.TC212D3.PL1LIB
  5 CICS LOADLIB         ===> XCICS.TC212D3.LOADLIB

 The following fields are required if option 3 was selected in field 1;
 they are optional if option 2 was selected in field 1:
  6 CSD NAME (FOR RDO)   ===>
  7 GROUP NAME           ===>           CICS RDO group name
  8 NEW GROUP            ===>           YES or NO
  9 LIST NAME            ===>           CICS RDO list name

 PRESS:  ENTER to continue   RETURN to exit   HELP for more information



 DSNTIPD         MIGRATE DB2 - SIZES
 ===>
      _

 Check numbers and reenter to change:

  1  DATABASES          ===> 200        In this subsystem
  2  TABLES             ===> 20         Per database (average)
  3  COLUMNS            ===> 30         Per table (average)
  4  VIEWS              ===> 3          Per table (average)
  5  TABLE SPACES       ===> 20         Per database (average)
  6  PLANS              ===> 1000       In this subsystem
  7  PLAN STATEMENTS    ===> 30         SQL statements per plan (average
  8  PACKAGES           ===> 300        In this subsystem
  9  PACKAGE STATEMENTS ===> 10         SQL statements per package (aver
 10  PACKAGE LIST SIZE  ===> 2          Package lists per plan (average)
 11  EXECUTED STMTS     ===> 15         SQL statements executed (average
 12  TABLES IN STMT     ===> 2          Tables per SQL statement (averag
 13  TEMP 4K SPACE      ===> 16777216   Bytes of 4K-page work space
 14  TEMP 4K DATA SETS  ===> 3          Number of data sets for 4K data
 15  TEMP 32K SPACE     ===> 8388608    Bytes of 32K-page work space
 16  TEMP 32K DATA SETS ===> 1          Number of data sets for 32K data

 PRESS:  ENTER to continue   RETURN to exit   HELP for more information



 DSNTIPE         MIGRATE DB2 - STORAGE SIZES
 ===>
      _

 Check numbers and reenter to change:

  1  DATABASES         ===> 50         Concurrently in use
  2  MAX USERS         ===> 150        Concurrently running in DB2
  3  MAX REMOTE        ===> 0          Remotely accessing data in DB2
  4  MAX TSO CONNECT   ===> 100        Users on QMF or in DSN command
  5  MAX BATCH CONNECT ===> 20         Users in DSN command or utilities
  6  MIN BP0 BUFFERS   ===> 4000       Minimum number of buffers in BP0
  7  MAX BP0 BUFFERS   ===> 4000       Maximum number of buffers in BP0
  8  MIN BP1 BUFFERS   ===> 1000       Minimum number of buffers in BP1
  9  MAX BP1 BUFFERS   ===> 1000       Maximum number of buffers in BP1
 10  MIN BP2 BUFFERS   ===> 500        Minimum number of buffers in BP2
 11  MAX BP2 BUFFERS   ===> 500        Maximum number of buffers in BP2
 12  MIN BP32K BUFFERS ===> 48         Minimum number of buffers in BP32
 13  MAX BP32K BUFFERS ===> 48         Maximum number of buffers in BP32




 PRESS:  ENTER to continue   RETURN to exit   HELP for more information



 DSNTIPN         MIGRATE DB2 - TRACING
 ===>
      _

 Enter data below:

  1  AUDIT TRACE      ===> NO          Audit classes to start. NO,YES,li

  2  TRACE AUTO START ===> NO          Global classes to start. YES, NO,
  3  TRACE SIZE       ===> 65536       Trace table size in bytes.  4K-39

  4  SMF ACCOUNTING   ===> 1           Accounting classes to start. NO,Y
  5  SMF STATISTICS   ===> YES         Statistics classes to start. NO,Y
  6  STATISTICS TIME  ===> 30          Time interval in minutes.  1-1440

  7  MONITOR TRACE    ===> NO          Monitor classes to start. NO, YES
  8  MONITOR SIZE     ===> 8192        Default monitor buffer size. 8K-1

  9  CHECKPOINT FREQ  ===> 1000        Number of log records per checkpo




 PRESS:  ENTER to continue   RETURN to exit   HELP for more information



 DSNTIPO         MIGRATE DB2 - OPERATOR FUNCTIONS
 ===>
      _

 Enter data below:

  1  WTO ROUTE CODES    ===> 1
                                        Routing codes for WTORs
  2  RECALL DATABASE    ===> YES        Use DFHSM automatic recall. YES
  3  RECALL DELAY       ===> 120        Seconds to wait for automatic re

  4  RLF AUTO START     ===> NO         Resource Limit Facility.  NO or
  5  RLST NAME SUFFIX   ===> 01         Resource Limit Spec. Table (RLST
  6  RLST ACCESS ERROR  ===> NOLIMIT    Action on RLST access error. Val
                                        NOLIMIT - Run without limit
                                        NORUN   - Do not run at all
                                        1-5000000 - Limit in CPU service

  7  DSNZPARM NAME      ===> DSNZPARM   Enter name of new DB2 parameter
  8  AUTO BIND          ===> YES        Use automatic bind. YES or NO
  9  SITE TYPE          ===> LOCALSITE    LOCALSITE or RECOVERYSITE


 PRESS:  ENTER to continue   RETURN to exit   HELP for more information



 DSNTIPF         MIGRATE DB2 - APPLICATION PROGRAMMING DEFAULTS
 ===>
      _

 Enter data below:

  1  LANGUAGE DEFAULT     ===> COB2     ASM, ASMH, C, COBOL, COB2, FORTR
  2  DECIMAL POINT IS     ===> .        . or ,
  3  MINIMUM DIVIDE SCALE ===> NO       NO or YES for a minimum of 3 dig
                                        to right of decimal after divisi
  4  STRING DELIMITER     ===> DEFAULT  DEFAULT, " or ' (COBOL or COB2 o
  5  SQL STRING DELIMITER ===> DEFAULT  DEFAULT, " or '
  6  MIXED DATA           ===> NO       NO or YES for mixed DBCS data
  7  CODED CHARACTER SET  ===> 37       The CCSID of your SBCS or mixed
  8  DATE FORMAT          ===> ISO      ISO, JIS, USA, EUR, LOCAL
  9  TIME FORMAT          ===> ISO      ISO, JIS, USA, EUR, LOCAL
 10  LOCAL DATE LENGTH    ===> 0        0 (no exit), or value between 10
 11  LOCAL TIME LENGTH    ===> 0        0 (no exit), or value between  8
 12  STD SQL LANGUAGE     ===> NO       NO or 86
 13  DECIMAL ARITHMETIC   ===> DEC15    DEC15, DEC31, 15, 31



 PRESS:  ENTER to continue   RETURN to exit   HELP for more information



 DSNTIPI         MIGRATE DB2 - IRLM PANEL 1
 ===>
      _

 Enter data below:

  1  INSTALL IRLM       ===> YES        IRLM is required for DB2. Should
                                        IRLM distributed with DB2 be ins
  2  SUBSYSTEM NAME     ===> IRL1       IRLM MVS subsystem name
  3  RESOURCE TIMEOUT   ===> 60         Seconds to wait for unavailable
  4  TIME INTERVAL      ===> 500        Milliseconds between lock proces
  5  AUTO START         ===> YES        Start IRLM if not up. YES or NO
  6  PROC NAME          ===> IRLMDOFE   Name of start procedure for IRLM
  7  TIME TO AUTOSTART  ===> 300        Time DB2 will wait for IRLM auto









 PRESS:  ENTER to continue   RETURN to exit   HELP for more information



 DSNTIPJ         MIGRATE DB2 - IRLM PANEL 2
 ===>
      _

 Enter data below:

  1  CROSS MEMORY           ===> NO        Local storage and cross memor
  2  MAXIMUM ECSA           ===> 5242880   Control block storage (1M - 9
  3  LOCKS PER TABLE(SPACE) ===> 1000      Maximum before lock escalatio
  4  LOCKS PER USER         ===> 10000     Maximum before resource unava
  5  PARTNER                ===>           VTAM name of other IRLM.  Req
                                           for intersystem communication
  6  IDENTIFIER             ===> 1         Number for this IRLM (1-8)
  7  DEADLOCK TIME          ===> 15        Detection interval in seconds
  8  DEADLOCK CYCLE         ===> 4         Number of LOCAL cycles before
  9  INTERNAL TRACE         ===> NO        Automatic start of tracing







 PRESS:  ENTER to continue   RETURN to exit   HELP for more information



 DSNTIPP         MIGRATE DB2 - PROTECTION
 ===>
      _

 Enter data below:

  1  MVS CATALOG       ===>            MVS catalog control password
  2  BSDS PASSWORD     ===>            Bootstrap data sets password
  3  LOG PASSWORD      ===>            Active log data sets password
  4  ARCHIVE LOG PW    ===>            Archive log data sets password
  5  ARCHIVE LOG RACF  ===> NO         RACF protect archive log data set
  6  DIRECTORY/CATALOG ===>            DB2 directory and catalog passwor
  7  USE PROTECTION    ===> YES        DB2 authorization enabled.  YES o
  8  SYSTEM ADMIN 1    ===> DD20010    Authid of system administrator
  9  SYSTEM ADMIN 2    ===> DB01EP     Authid of system administrator
 10  SYSTEM OPERATOR 1 ===> OPERUSR    Authid of system operator
 11  SYSTEM OPERATOR 2 ===> SYSOPR     Authid of system operator
 12  UNKNOWN AUTHID    ===> IBMUSER    Authid of default (unknown) user
 13  RESOURCE AUTHID   ===> SYSIBM     Authid of Resource Limit Table cr




 PRESS:  ENTER to continue   RETURN to exit   HELP for more information



 DSNTIPM         MIGRATE DB2 - MVS PARMLIB UPDATES
 ===>
      _

 Check data and reenter to change:

  1  SUBSYSTEM NAME      ===> DDB2       Name for connecting to DB2
  2  SUBSYSTEM PREFIX    ===> <          One character to denote subsyst
  3  SUBSYSTEM MEMBER    ===> 00         xx in IEFSSNxx
  4  SUBSYSTEM SEQUENCE  ===> 88888888   Sequence number for insertion
  5  AUTH MEMBER         ===> 00         xx in IEAAPFxx APF member name
  6  AUTH SEQUENCE       ===> 88888888   Sequence number for insertion
  7  LINK LIST ENTRY     ===> 00         xx in LNKLSTxx for DSNLINK
  8  LINK LIST SEQUENCE  ===> 88888888   Sequence number for insertion









 PRESS:  ENTER to continue   RETURN to exit   HELP for more information



 DSNTIPL         MIGRATE DB2 - ACTIVE LOG DATA SET PARAMETERS
 ===>
      _

 Enter data below:

   1 NUMBER OF LOGS    ===> 3        Number data sets per active log cop
   2 INPUT BUFFER      ===> 28672    Size in bytes (28K-60K)
   3 OUTPUT BUFFER     ===> 409600   Size in bytes (40K-4000K)
   4 WRITE THRESHOLD   ===> 20       Buffers filled before write (1-256)
   5 ARCHIVE LOG FREQ  ===> 24       Hours per archive run
   6 UPDATE RATE       ===> 3600     Updates, inserts, and deletes per h











 PRESS:  ENTER to continue   RETURN to exit   HELP for more information



 DSNTIPA         MIGRATE DB2 - ARCHIVE LOG DATA SET PARAMETERS
 ===>
      _

 Enter data below:

   1  ALLOCATION UNITS ===> BLK       Blk, Trk, or Cyl
   2  PRIMARY QUANTITY ===>           Primary space allocation
   3  SECONDARY QTY.   ===>           Secondary space allocation
   4  CATALOG DATA     ===> NO        YES or NO to catalog archive data
   5  DEVICE TYPE      ===> TAPE3480  Unit name for archive logs
   6  BLOCK SIZE       ===> 28672     Rounded up to 4096 multiple
   7  MAX CONCURRENT   ===> 3         Number of input volumes allocated
   8  RECORDING MAX    ===> 500       Number of data sets recorded in BS
   9  MSVGP 1          ===>           Mass storage volume group (MSVGP)
  10  MSVGP 2          ===>           MSVGP for second archive copy
  11  WRITE TO OPER    ===> YES       Issue WTOR before mount for archiv
  12  WTOR ROUTE CODE  ===> 1,3,4
                                      Routing codes for archive WTORs
  13  RETENTION PERIOD ===> 0030      Days to retain archive log data se
  14  QUIESCE PERIOD   ===> 5         Maximum quiesce interval (1-999)
  15  COMPACT DATA     ===> NO        YES or NO for data compaction

 PRESS:  ENTER to continue   RETURN to exit   HELP for more information



 DSNTIPS         MIGRATE DB2 - DATABASES AND SPACES TO START AUTOMATICAL
 ===>
      _

 Enter data below:

  1  ===> RESTART       RESTART or DEFER the objects named below.
     The objects to restart or defer may be ALL in item 2, a database
     name, or database name.space name.

  2  ==> ALL               14  ==>                   26  ==>
  3  ==>                   15  ==>                   27  ==>
  4  ==>                   16  ==>                   28  ==>
  5  ==>                   17  ==>                   29  ==>
  6  ==>                   18  ==>                   30  ==>
  7  ==>                   19  ==>                   31  ==>
  8  ==>                   20  ==>                   32  ==>
  9  ==>                   21  ==>                   33  ==>
 10  ==>                   22  ==>                   34  ==>
 11  ==>                   23  ==>                   35  ==>
 12  ==>                   24  ==>                   36  ==>
 13  ==>                   25  ==>                   37  ==>

 PRESS:  ENTER to continue   RETURN to exit   HELP for more information



 DSNTIPR         MIGRATE DB2 - DISTRIBUTED DATA FACILITY
 ===>
      _

 Enter data below:

  1 DDF STARTUP OPTION   ===> COMMAND   NO (DDF not startable),
                                        AUTO (automatic start up), or
                                        COMMAND (start by command)
  2 DB2 LOCATION NAME    ===> DDB2              The name other DB2s use
                                                refer to this DB2
  3 DB2 NETWORK LUNAME   ===> DOFDDDB2  The name VTAM uses to refer to t
  4 DB2 NETWORK PASSWORD ===> DOFDDDB2  Password for connecting to other
  5 RLST ACCESS ERROR    ===> NOLIMIT   Action on non-local RLST access
                                        NOLIMIT   - Run without limit
                                        NORUN     - Do not run at all
                                        1-5000000 - Limit in CPU service






 PRESS:  ENTER to continue   RETURN to exit   HELP for more information



 DSNTIPZ         MIGRATE DB2 - DATA DEFINITION CONTROL SUPPORT
 ===>
      _

 Enter data below:

  1 INSTALL DD CONTROL SUPT. ===> NO        YES - activate the support
                                            NO  - omit DD control suppor
  2 CONTROL ALL APPLICATIONS ===> NO        YES or NO
  3 REQUIRE FULL NAMES       ===> YES       YES or NO
  4 UNREGISTERED DDL DEFAULT ===> ACCEPT    Action for unregistered DDL:
                                            ACCEPT - allow it
                                            REJECT - prohibit it
                                            APPL   - consult ART

  5 REGISTRATION OWNER       ===> DSNRGCOL          Qualifier for ART an
  6 REGISTRATION DATABASE    ===> DSNRGFDB          Database name
  7 APPL REGISTRATION TABLE  ===> DSN_REGISTER_APPL Table name
  8 OBJT REGISTRATION TABLE  ===> DSN_REGISTER_OBJT Table name

 Note: ART = Application Registration Table
       ORT = Object      Registration Table

 PRESS:  ENTER to continue   RETURN to exit   HELP for more information



 DSNTIPY         MIGRATE DB2 - JOB EDITING
 ===>
      _

 Enter data below:

  1  REMOTE LOCATION   ===>                  Remote location for COBOL
                                             organization application
  2  COBOL TYPE        ===> COB2             COBOL for sample applicatio
                                             (COBOL OR COB2)

 Enter job card information for install and sample jobs:

  3 ===>
  4 ===>
  5 ===>
  6 ===>






 PRESS:  ENTER to continue   RETURN to exit   HELP for more information



 DSNTIPC         MIGRATE DB2 - CLIST CALCULATIONS - PANEL 1
 ===>
      _

  You may update the EDMPOOL size if necessary.

    1  DSNT485I  EDMPOOL STORAGE SIZE    =    14312  K
    2  DSNT485I  BUFFER POOL SIZE        =    23536  K
    3  DSNT485I  SORT POOL SIZE          =     2353  K
    4  DSNT485I  RID POOL SIZE           =    11768  K
    5  DSNT485I  DATA SET STORAGE SIZE   =     3600  K
    6  DSNT485I  CODE STORAGE SIZE       =     4200  K
    7  DSNT485I  WORKING STORAGE SIZE    =     6300  K
    8  DSNT486I  TOTAL MAIN STORAGE      =    66069  K
    9  DSNT448I  RECOMMENDED REAL STORAGE=    60202  K
   10  DSNT487I  TOTAL STORAGE BELOW 16M =     1050  K (WITH SWA ABOVE 1
   11  DSNT438I  WARNING,
                 IRLM LOCK MAXIMUM SPACE =   366210  K, AVAILABLE =



 PRESS:  ENTER to continue   RETURN to exit   HELP for more information



-------- ------- -------- ----- ----------------------------------------
SYSADM   DD20010 09/10/92 13:26 TDDB2, WAS CLONED FROM A LEVEL 6
                                TV2R3 ZONE VIA IMPLEMENTATION DIALOG
-------- ------- -------- ----- ----------------------------------------
SOPPITT  DD20010 06/14/92 11:30 CICS ATTACHMENT MODULES RE-LINKED AS
                                PER LVL3 MAINT INSTRUCTIONS (DSNCIJSU)
-------- ------- -------- ----- ----------------------------------------
SOPPITT  DD20010 06/14/92 11:00 CATALOG TABLESPACES RECLUSTERED USING
                                JOB DSNQRCLS.  RUNSTATS PERFORMED ON
                                CATALOG AFTER RECLUSTERING.
-------- ------- -------- ----- ----------------------------------------
SYSADM   DD20010 06/14/92 10:30 SOFTWARE WAS IMPLEMENTED FROM THE TARGET
                                ZONE TDDB2, DDB2.TARGET.*, TO THE
                                ACTIVE ZONE DDB2, DDB2.*
-------- ------- -------- ----- ----------------------------------------
SYSADM   DD20010 06/14/92 10:18 TAPE ARCHIVE OF BDDB2 WAS CREATED.
                                OUTPUT TAPE DSN = DDB2.BACKUP.LVL1
-------- ------- -------- ----- ----------------------------------------
TOMIAK   DMV0016 06/13/92 10:30 DROPPED DXT240.DDB2 ALIASES
                                FIXED QMF ALIASES
                                  XDBS.INSTALL.CNTL(DDB22TME)
-------- ------- -------- ----- ----------------------------------------
SOPPITT  DD20010 06/12/92 20:15 TDDB2, WAS CLONED FROM A LEVEL 3
                                DSN ZONE VIA IMPLEMENTATION DIALOG
-------- ------- -------- ----- ----------------------------------------
TOMIAK   DMV0016 04/12/92 11:15 MOVED BSDS FROM DFX001/2 TO
                                DDB202/3
-------- ------- -------- ----- ----------------------------------------
SOPPITT  DD20001 04/12/92 11:00 MOVED ACTIVE LOGS FROM DFX001/2 TO
                                DDB202/3
-------- ------- -------- ----- ----------------------------------------
TOMIAK   DMV0016 04/12/92 10:45 DEFRAG ON DDB202
-------- ------- -------- ----- ----------------------------------------
TOMIAK   DMV0016 04/12/92 10:30 MOVED ASSORTED DATA SETS FROM DDB202/3
                                TO DFX001/2
-------- ------- -------- ----- ----------------------------------------
TOMIAK   DMV0016 04/12/92 09:00 DELETED DXT ENTRIES
                                  PLAN: DXT240
                                  TABLES: DXT.DB2STAFF
                                          DXT.DB2PROJECT
                                          DXT.DB2ORG
                                  TABLESPACE: DVR1STBB.DVR1STBT
                                  DATABASE: DVR1STBB
                                  STOGROUP: DVR1STBG
                                  VSAM: EXTLIB
                                        FDTLIB
                                        DVR*
-------- ------- -------- ----- ----------------------------------------
TOMIAK   DMV0016 04/05/92 11:51 SOFTWARE WAS IMPLEMENTED FROM THE TARGET
                                ZONE TDDB2, DDB2.TARGET.*, TO THE
                                ACTIVE ZONE DDB2, DDB2.*
-------- ------- -------- ----- ----------------------------------------
TOMIAK   DMV0016 04/03/92 12:13 TDDB2, WAS CLONED FROM A LEVEL 2
                                TDBST ZONE VIA IMPLEMENTATION DIALOG
-------- ------- -------- ----- ----------------------------------------
SOPPITT  DD20010 02/17/92 06:30 IMPLEMENT PDO9102 MAINT. LEVEL TO DDB2
                                USING ISPF MAINT. DIALOGS.  REBIND DONE
                                ON BOTH SPUFI PLANS.
-------- ------- -------- ----- ----------------------------------------
SOPPITT  DD20010 02/14/92 14:00 PROPAGATE PDO9102 MAINT. LEVEL TO DDB2
                                USING ISPF MAINT. DIALOGS (FOR SINGLE
                                IMAGE SYSTEM).  QMF, DXT AND DB2PM ALSO
                                FOLDED INTO MAINTENANCE PROCEDURE.
                                DSNZPARM REASSEMBLED IN TARGET ZONE.
-------- ------- -------- ----- ----------------------------------------
ADONE    DB01GA  01/11/91 13:00 CHG0084 - C91011B
                                REPAIR SYSIBM TABLES FOR UL74130
-------- ------- -------- ----- ----------------------------------------
JAFFE    TS01MJ  12/06/90 11:00 C90340A - CHG0052
                                (DOFEFXDV AND DOFEFXSY)
                                CHG RCTS FOR NEW FAIRTAX CASE TRACKING
                                PLANS.
                                CCSTESTN.TABLE.SOURCE(DSNCRCTD)
                                CCSTESTN.TABLE.SOURCE(FTXRCTDV)
                                CCSTESTN.TABLE.SOURCE(DSNCRCTS)
                                CCSTESTN.TABLE.SOURCE(FTXRCTSY)
-------- ------- -------- ----- ----------------------------------------
GRAVES   CP02KG  11/30/90 12:00 C90330A - CHG0037
                                CHANGE ALL FAIRTAX RCT'S TO SPECIFY
                                AUTH=(GROUP)
-------- ------- -------- ----- ----------------------------------------
-------- CHG CNTL LOGGED -------- NOVEMBER 27, 1990 ---------- 16:02:48
-------- CHG CNTL LOGGED -------- NOVEMBER 27, 1990 ---------- 16:02:48
-------- CHG CNTL LOGGED -------- NOVEMBER 27, 1990 ---------- 16:02:48
-------- CHG CNTL LOGGED -------- NOVEMBER 27, 1990 ---------- 16:02:48
-------- ------- -------- ----- ----------------------------------------
-------- CHG CNTL LOGGED -------- NOVEMBER 20, 1990 --------------------
-------- CHG CNTL LOGGED -------- NOVEMBER 20, 1990 --------------------
-------- CHG CNTL LOGGED -------- NOVEMBER 20, 1990 --------------------
-------- CHG CNTL LOGGED -------- NOVEMBER 20, 1990 --------------------
--------- ------- -------- ----- --------------------------------------
LEVITT    TS01BL  11/09/90 12:02 CXXXXXX - CHGXXXX
                                 REFRESHED INFOPAK DATASETS WITH 9021
                                 PASSWORD
-------- ------- -------- ----- ----------------------------------------
-------TRIAL MIGRATION ----------------------- TRIAL MIGRATION ---------
-------TRIAL MIGRATION ----------------------- TRIAL MIGRATION ---------
-------TRIAL MIGRATION ----------------------- TRIAL MIGRATION ---------
-------TRIAL MIGRATION ----------------------- TRIAL MIGRATION ---------
--------- ------- -------- ----- --------------------------------------
ANDERBRG  TS03KA  09/29/90 15:00 ROLL SMPE TO DDB2/QMF/DXT
--------- ------- -------- ----- --------------------------------------
TOMIAK    TS03KT  08/21/90 ??:?? APPLY UP TO 9002
--------- ------- -------- ----- --------------------------------------
SHUMSKY   TS01DS  08/17/90 15:?? RECEIVE CBPDO FROM PUT8904 TO PUT9004
--------- ------- -------- ----- --------------------------------------
LEVITT    TS01BL  07/24/90 ??:?? CONVERT SMP STRUCTURE FROM RELEASE 4
                                 TO RELEASE 5.  GLOBAL, ETGT, EDLB.
--------- ------- -------- ----- --------------------------------------
LEVITT    TS01BL  06/11/90 14:15 ADDED INFOPAK.DDB2.DB2LINK TO DDB2MSTR
                                 STEPLIB
--------- ------- -------- ----- --------------------------------------
TOMIAK    TS03KT  05/25/90 14:15 SYS2.DB2.CNTL(SMPEDDB2) AND TEST
--------- ------- -------- ----- --------------------------------------
TOMIAK    TS03KT  05/24/90 14:15 SYS2.DB2.CNTL(SMPEDSN) AND TEST
--------- ------- -------- ----- --------------------------------------
TOMIAK    TS03KT  05/23/90 17:55 APPLY PTF UL72609 AND ITS PREREQS:
                                   UL66718,UL69482
                                     UL60121,UL64920,UL64955,UL58435
                                       UL66461,UL59796
--------- ------- -------- ----- --------------------------------------
TOMIAK    TS01KT  05/01/90 12:35 APPLY PTF UL66203
--------- ------- -------- ----- --------------------------------------
LEVITT    TS01BL  03/01/90 12:35 CREATED DSN SUBSYSTEM FOR DOF
--------- ------- -------- ----- --------------------------------------
TOMIAK    TS01KT  02/18/90 12:35 MIGRATE DDB2 TO V2R2M0
--------- ------- -------- ----- --------------------------------------
IBM       IBMIIN  02/16/90 12:35 INSTALL V2R2M0 IN DBSETGT
--------- ------- -------- ----- --------------------------------------
TOMIAK    DOFN008 01/30/90 12:35 DSQ1EIVS - CREATE IVP TABLES
--------- ------- -------- ----- --------------------------------------
TOMIAK    DOFN008 01/30/90 12:31 DSQ1STGC - CREATE "SAVE DATA" BASE
--------- ------- -------- ----- --------------------------------------
TOMIAK    DOFN008 01/30/90 12:30 DSQ1BINJ - BIND QMF PLAN
--------- ------- -------- ----- --------------------------------------
TOMIAK    DOFN008 01/30/90 12:25 DSQ1TBLJ - CREATE QMF CONTROL TABLES
--------- ------- -------- ----- --------------------------------------
TOMIAK    DOFN008 01/30/90 12:20 DSQ1BSQL - BIND QMF INSTALL PLAN
--------- ------- -------- ----- --------------------------------------
TOMIAK    DOFN008 01/30/90 10:45 RAN IPOUPDTE TO CHANGE "F" TO "E"
                                 VALUES.
--------- ------- -------- ----- --------------------------------------
TOMIAK    DOFN008 01/30/90 10:20 CLONED NON-DB2 DATASETS BY RUNNING
                                 DF/DSS OF PDB2QMF.DSQ*.** FROM FDB001
                                 TO EDB001 WITH RENAME OF PDB2QMF TO
                                 DDB2QMF.
--------- ------- -------- ----- --------------------------------------
TOMIAK    DOFN008 01/25/90 12:45 CREATED SAMPLE APPLICATIONS
                           13:33 1)  $SNTEJ1  - CREATE AND LOAD TABLES
                           14:15 2)  $SNTEJ1P - PLI DSNTEP2
--------- ------- -------- ----- --------------------------------------
TOMIAK    DOFN008 01/15/90 09:00 CREATED DDB2 SUBSYSTEM
                                 1)  $SNTIJIN - CREATE DB2 DSNS
                                 2)  $SNTIJID - INITIALIZE DB2 DSNS
                                 3)  $SNTIJUZ - EXECUTION PARAMETERS
                                 4)  $SNTIJSU - LINK CICS ROUTINES
                                 5)  $SNTIJMV - MOVE IN PROCS
                                 6)  $SNTIJTM - DEFINE TEMP,BIND
                                 7)  $SNTIJSG - DEFINE STOGROUP,BIND
                                 8)  $SNTIJEX - USER AUTH EXITS
                                 9)  $SNTIJIC - IMAGE COPIES
                                 10) $GRANT   - PUBLIC PRIVILEGES
                                 11) $SYSADM  - SYSTEM ADMINISTRATOR
--------- ------- -------- ----- --------------------------------------
TOMIAK    DOFN008 01/15/90 09:00 CREATED EDB001 VOLUME FOR DDB2
--------- ------- -------- ----- --------------------------------------
TOMIAK    DOFN008 01/12/90 09:00 MOVED EDL001 DATASETS TO ECI001
TOMIAK    DOFN008 01/12/90 09:00 MOVED EDB001 DATASETS TO ECI001
--------- ------- -------- ----- --------------------------------------

!!!!!!!!!!!!!!!!!!!!!!!!!!!!!!!!!!!!!!!!!!!!!!!!!!!!!!!!!!!!!!!!!!!!!
!!!!!!!!!!!!      ADD NEW ENTRIES AT THE TOP          !!!!!!!!!!!!!!!
!!!!!!!!!!!!!!!!!!!!!!!!!!!!!!!!!!!!!!!!!!!!!!!!!!!!!!!!!!!!!!!!!!!!!

./ ADD NAME=DSN      0176-91311-94006-0831-02418-00010-00000-DD20008
************************************************************************
*****                                                              *****
*****              DATA BASE DSN (on DOFD)                         *****
*****       SINGLE SYSTEM IMAGE TARGET CHANGE LOG                  *****
*****                                                              *****
************************************************************************

NAME     USERID  DATE     TIME  DESCRIPTION OF CHANGE
-------- ------- -------- ----- ----------------------------------------
TOMIAK   DD20008 01/06/94 08:31 Project: DB2???
                                CHREQ# 00000
                                SOFTWARE WAS IMPLEMENTED FROM THE TARGET
                                ZONE TDSN, DSN.TARGET.*, TO THE
                                ACTIVE ZONE DSN, DSN.*
-------- ------- -------- ----- ----------------------------------------
LOVARI   DD20005 12/29/93 15:03 Project: DB2???
                                CHREQ# 00000
                                SOFTWARE WAS IMPLEMENTED FROM THE TARGET
                                ZONE TDSN, DSN.OMEGDB2.TARGET.*, TO THE
                                ACTIVE ZONE DSN, DSN.OMEGDB2.*
-------- ------- -------- ----- ----------------------------------------
LOVARI   DD20005 12/29/93 14:56 Project: DB2???
                                TAPE ARCHIVE OF BDSN WAS CREATED.
                                OUTPUT TAPE DSN = DSN.OMEGDB2.BACKUP.LVL
-------- ------- -------- ----- ----------------------------------------
LOVARI   DD20005 12/28/93 13:45 OMEGAMON II FOR DB2 SOFTWARE
                                TDSN, WAS CLONED FROM A LEVEL 2
                                TOMGDB2 ZONE VIA IMPLEMENTATION DIALOG
-------- ------- -------- ----- ----------------------------------------
MUNDO    DD20009 11/16/93 17:11 Project: DB2???
                                CHREQ# 00000
                                SOFTWARE WAS IMPLEMENTED FROM THE TARGET
                                ZONE TDSN, DSN.TARGET.*, TO THE
                                ACTIVE ZONE DSN, DSN.*
-------- ------- -------- ----- ----------------------------------------
TOMIAK   DD20008 11/16/93 16:04 Project: DB2???
                                TDSN, WAS CLONED FROM A LEVEL 13
                                DSN ZONE VIA IMPLEMENTATION DIALOG
-------- ------- -------- ----- ----------------------------------------
MUNDO    DD20009 11/10/93 11:42 Project: DB2???
                                CHREQ# 00000
                                SOFTWARE WAS IMPLEMENTED FROM THE TARGET
                                ZONE TDSN, DSN.TARGET.*, TO THE
                                ACTIVE ZONE DSN, DSN.*
-------- ------- -------- ----- ----------------------------------------
MUNDO    DD20009 11/10/93 11:16 Project: DB2???
                                TDSN, WAS CLONED FROM A LEVEL 13
                                DB2X ZONE VIA IMPLEMENTATION DIALOG
-------- ------- -------- ----- ----------------------------------------
LOVARI   DD20005 09/02/93 15:22 Project: DB2???
                                SOFTWARE WAS IMPLEMENTED FROM THE TARGET
                                ZONE TDSN, DSN.TARGET.*, TO THE
                                ACTIVE ZONE DSN, DSN.*
-------- ------- -------- ----- ----------------------------------------
LOVARI   MJLCSC  09/02/93 14:15 XDBS.INSTALL.CNTL(SMPEAPLY)
                                PROJECT: F94625   *** LEVEL 10A ***
                                APPLY MAINTENANCE FOR @07683
                                CORRUPTED INDEXES  -  PTF = UN33782
                                APARFIX = PN29278.
-------- ------- -------- ----- ----------------------------------------
-------LEVEL-10A-----------------------------------LEVEL-10A------------
-------LEVEL-10A-----------------------------------LEVEL-10A------------
-------LEVEL-10A-----------------------------------LEVEL-10A------------
-------- ------- -------- ----- ----------------------------------------
LOVARI   DD20005 09/02/93 11:43 Project: DB2???
                                TDSN, WAS CLONED FROM A LEVEL 10
                                DSN ZONE VIA IMPLEMENTATION DIALOG
-------- ------- -------- ----- ----------------------------------------
Soppitt  DD20001 07/30/93 14:30 Execute Install Clist to turn on ACCTG
                                Class-2 trace at subsystem start-up.
                                Asm/Link DSNZPARM using
                                    'XDBS.DSN.CNTL(DSN3ZPRM)'
                                Old module renamed OLDZPARM on DSNEXIT.
-------- ------- -------- ----- ----------------------------------------
PRISCIAN DD20006 07/02/93 11:00 XDBS.DSN.CNTL(PLATBIND)
                                BIND PLATINUM PLANS.
-------- ------- -------- ----- ----------------------------------------
PRISCIAN DD20006 07/02/93 10:37 XDBS.DSN.CNTL(PLATRULE)
                                LOAD THE DEFAULT RULES FOR PLAN ANALZER.
-------- ------- -------- ----- ----------------------------------------
PRISCIAN DD20006 07/02/93 10:30 XDBS.DSN.CNTL(PLATCOPY)
                                COPY PLATINUM DATASETS.
                                PLAN ANALYZER & UTILITES.
-------- ------- -------- ----- ----------------------------------------
PRISCIAN DD20006 06/15/93  9:40 Updated PLATINUM passwords:
                                XDBS.DSN.CNTL(PLATPSWU)
-------- ------- -------- ----- ----------------------------------------
PRISCIAN DD20006 05/20/93 11:30 Test recovery of image copies:
                                XDBS.DSN.CNTL(PLATRECV) RECOVER
                                XDBS.DSN.CNTL(PLATDSN1) DSN1COPY RECOVER
-------- ------- -------- ----- ----------------------------------------
PRISCIAN DD20006 05/20/93 10:00 Test PLATINUM products:
                                XDBS.DSN.CNTL(PLATRIVP) RAPID REORG
                                XDBS.DSN.CNTL(PLATQIVP) QUICK COPY full
                                XDBS.DSN.CNTL(PLATICPY) QUICK COPY Incre
-------- ------- -------- ----- ----------------------------------------
PRISCIAN DD20006 05/19/93 13:30 XDBS.DSN.CNTL(PLATBIND)
                                BIND PLATINUM PLANS.
-------- ------- -------- ----- ----------------------------------------
PRISCIAN DD20006 05/19/93 11:30 XDBS.DSN.CNTL(PLATOBJS)
                                CREATE DB2 OBJECTS.
-------- ------- -------- ----- ----------------------------------------
PRISCIAN DD20006 05/19/93 10:30 Invoke customization clist
                                'INVKQKIN DSN':


 PIPM  R01.00 ---- PLATINUM Installation Processor Main Menu ---- 93/05/
 COMMAND ===>
              _


                        QUICK INSTALL OPTIONS:

 > 0   Profile           - Setup Profile Options

   1   Selective Install - Install selected PLATINUM DB2 products

   2   Complete Install  - Install ALL PLATINUM DB2 products

   3   Resume            - Continue an install option at a previous loca

   4   Individual Steps  - Perform single steps of Quick Install

   X   Exit              - Exit Platinum Quick Install

 Select an option and press Enter to begin the installation process.

 Press PF1 for Help or PF3 to Exit the installation processor.


  --- Copyright  1992   PLATINUM technology inc.  All Rights Reserved --


 PIPPROF  R01.00 ----------------- PIP Profile -----------------  93/05/
 COMMAND ===>
              _


  Select an option by typing a number.  Then press Enter.   After all se
  have been processed, type End or press PF3 to continue.


                    > 1.  Global Parameters

                      2.  DB2 Parameters

                      3.  Execution Parameters

                      4.  Setup Screen Colors






  Press PF1 for Help.




 PIPPROF1  R01.00 ---------- PIP - Global  Parameters ----------  93/05/
 COMMAND ===>
              _

   Type the information in the fields below.  Then press Enter to Update
   Press PF3 or type End to return to the profile menu.

      Volume serial number of current installation tape  .... P209AA
      High level qualifier
      to be used for current installation ....... DSN.PLATINUM

      Volume serial number of previous installation tape  ...
      High level qualifier
      of previously installed products ..........













 PIPPROF  R01.00 ----------------- PIP Profile -----------------  93/05/
 COMMAND ===>
              _


  Select an option by typing a number.  Then press Enter.   After all se
  have been processed, type End or press PF3 to continue.


                      1.  Global Parameters

                    > 2.  DB2 Parameters

                      3.  Execution Parameters

                      4.  Setup Screen Colors






  Press PF1 for Help.




 PIPPROF2  R01.00 ------------ PIP - DB2 Parameters ------------  93/05/
 COMMAND ===>
              _

   Type the information in the fields below.  Then press Enter to Update
   Press PF3 or type End to return to profile menu.

      DB2 subsystem  .............. DSN

      DB2 Version  ................ V2.3

      VSAM high level VCAT  ....... DSN

      DB2 SYSADM  ................. DD20010
      DB2 SYSADM2  ................ DD20002

      DB2 load library  ........... DSN.DSNLOAD










 PIPM  R01.00 ---- PLATINUM Installation Processor Main Menu ---- 93/05/
 COMMAND ===>
              _


                        QUICK INSTALL OPTIONS:

   0   Profile           - Setup Profile Options

   1   Selective Install - Install selected PLATINUM DB2 products

   2   Complete Install  - Install ALL PLATINUM DB2 products

   3   Resume            - Continue an install option at a previous loca

 > 4   Individual Steps  - Perform single steps of Quick Install

   X   Exit              - Exit Platinum Quick Install

 Select an option and press Enter to begin the installation process.

 Press PF1 for Help or PF3 to Exit the installation processor.


  --- Copyright  1992   PLATINUM technology inc.  All Rights Reserved --


 PIPVOL   R01.00 ------------- PIP - Volume Serial -------------  93/05/
 COMMAND ===>
              _

   Type the information in the fields below.  Then press Enter.

      Volume serial number of
      current installation tape ........ P209AA     (required)



   If the fields below are NOT blank, verify that both are correct.

      High level qualifier of previously
      installed PLATINUM products  .....


      Volume serial number of
      previous installation tape .......



 Press PF1 for Help or PF3 to return to the installation main menu.




 PIPROD  R01.00 --- PLATINUM Product Selection ---  93/05/20  08:4  ROW
 COMMAND ===>                                                  SCROLL ==
              _

 Choose the products that you wish to install by typing an S in the sele
 field.  Then press Enter to register your selections.  After all select
 have been made press PF3 to continue processing.

 Products are unloaded from the P209AA installation tape.

 Select   Product Name           Release level         Status

 (   )    RC/UPDATE              V3.1, PRODUCTION
 (   )    RC/MIGRATOR            V3.1, PRODUCTION
 (   )    RC/QUERY               V3.2, PRODUCTION
 (   )    RC/SECURE              V2.3, PRODUCTION
 (   )    DATABASE ANALYZER      V2.0, PRODUCTION
 (   )    PUT                    V2.0, PRODUCTION      INSTALLING
 (   )    PIPELINE               V2.1, PRODUCTION
 (   )    PG/O                   V2.2, PRODUCTION
 (   )    SQL/EASE               V1.3, PRODUCTION
 (   )    PLAN ANALYZER          V1.3, PRODUCTION
 (   )    QQF                    V3.5, PRODUCTION
 (   )    PACKAGE/IT             V1.0, PRODUCTION
 (   )    GOVERNOR FACILITY      V1.0, PRODUCTION


 PIPINDV  R01.00 -------- Installation Individual Steps  -------  93/05/
 COMMAND ===>
              _

  Select an option by typing the letter. Then Press Enter.  After all se
  have been processed, type END or press PF3 to return to the main menu.

         1.  LINK          - Link products
       > 2.  PARMLIB       - Edit PARMLIB members
         3.  PASSWORD      - Enter passwords
         4.  OBJECTS       - Create PLATINUM DB2 objects
         5.  BIND          - Bind PLATINUM products
         6.  PPA/SQL-EASE  - Additional PPA/SQL-EASE steps
         7.  CUSTOMIZATION - Product customization
         8.  MODEL         - Model library customization
         9.  PGF           - Governor Facility Conversions.
        10.  FIXES         - Display Product Fixes applied
        11.  VERIFY        - Verify PLATINUM products

         A.  ALL STEPS     - All steps, in order

         B   Backup to last Menu.
         Q   Quit, saving current location.
         C   Cancel, without saving current location.
  Press PF1 for Help.


 PIPPRML  R01.00 ------------ PLATINUM PARMLIB Menu ------------  93/05/
 COMMAND ===>
              _


  Select an option by typing a number.  Then press Enter.  After all sel
  have been processed, type End or press PF3 to continue.



           > 1.  Edit Parmlib members to set parameters.

             B.  Backup, display previous menu.

             Q.  Quit, saving current location.

             C.  Cancel, without saving current location.




  Press PF1 for Help.





 PIPDBSED  R01.00 ------------ PIP - Parmlib(SETUP) ------------  93/05/
 COMMAND ===>
              _

   Type the information in the fields below.  Then press Enter.

      Company Name..............> CDCSA/NYC
      Work Unit Name............> SYSDA
      Display all products .....> NO       (YES or NO)

  National Language Settings:

      Vertical Bar Character....> 
      Decimal Point Character...> .        (. or ,)
      Mixed DBCS/SBCS data......> NO       (YES or NO)
      Date Format ..............> YY/MM/DD
      Time Delimiter ...........> :        (ie : , . )
      Display Seconds ..........> NO       (YES or NO)

 Press PF1 for Help                   Press PF3 to skip editing of SETUP







 PIPDBSEM  R01.00 ------------ PIP - Parmlib(SETUP) ------------  93/05/
 COMMAND ===>
              _

   DB2 subsystem ............> DSN
   VSAM Catalog Alias .......> DSN
   DB2 load libraries .......> DSN.DSNEXIT
                      .......> DSN.DSNLOAD
                      .......>
                      .......>
   SYSADM ...................> DD20010
   SYSADM2 ..................> DD20002

   Location ...>                    Locations Subsystem ID ...>
   Location ...>                    Locations Subsystem ID ...>
   Location ...>                    Locations Subsystem ID ...>
   Location ...>                    Locations Subsystem ID ...>
   Location ...>                    Locations Subsystem ID ...>
   Location ...>                    Locations Subsystem ID ...>
   Location ...>                    Locations Subsystem ID ...>
   Location ...>                    Locations Subsystem ID ...>

  Press Enter for additional subsystems.
  Press PF3 (END) when information for all subsystems is complete



 EDIT ---- DSN.PLATINUM.PARMLIB(SETUP) - 01.04 ---------------- COLUMNS
 COMMAND ===>                                                  SCROLL ==
              _
 PI021I CURRENTLY EDITING PARMLIB MEMBER 1 OF 3
 000100 COMPANY  (CDCSA/NYC)                /* YOUR COMPANY'S NAME
 000200 WORKUNIT (SYSDA)                    /* WORK UNIT FOR ALLOCATIONS
 000210 STATUS   (PROD)                     /* BETA STATUS
 000220 FULLMENU (NO)                       /* DISPLAY ALL PRODUCTS
 000221 VERTBAR  ()                        /* VERTICAL BAR FOR DISPLAY
 000222 DECPOINT (.)                        /* DECIMAL POINT CHARACTER
 000223 CASEMIX  (NO)                       /* MIXED CASE INDICATOR
 000224 DATEFORM (YY/MM/DD)                 /* FORMAT OF DATE TO USE
 000225 TIMEFORM (HH:MM)                    /* FORMAT OF TIME TO USE
 000226
 000227 /*--------------------------------------------------------------
 000228 /* THE FOLLOWING SECTION SHOULD BE REPEATED FOR EACH DB2 SUBSYST
 000229 /*--------------------------------------------------------------
 000230 SSID     (DSN)
 000240 LOADLIBS (
 000250           DSN.DSNEXIT
 000260           DSN.DSNLOAD
 000270          )
 000280 SYSADM   (DD20010)
 000290 SYSADM2  (DD20002)
 000300 CATALIAS (DSN)


 PIPDBUTE  R01.00 ------------ PIP - Parmlib(UTIL)  ------------  93/05/
 COMMAND ===>
              _

   Type the information in the fields below.  Then press Enter.

      Syscopy Authorization .........> OFF       ON or OFF
      Utility Mode ..................> SWAP      NS or SWAP
      Update TS PQTY and SQTY .......> YES       NO or YES
      Sort Limit ....................> 2M        num, numK, or numM
      Syscopy Update Control.........> YES       NO, YES, or USER
      Modify Bits Updated During Copy> YES       NO, or YES
      DFP level .....................> 3.2       ie 3.2
      RACF Authorized ID ............> NO        NO, or USERID
      SYSCOPY volser for Non-SMS.....> YES       NO, or YES
      Default number of Buffers......> 030       Numeric
      Check Duplicates in SYSCOPY....> NO        NO, or YES
      Restart-retry for -911 errors..> 05        Numeric


 Press PF1 for Help         Press PF3 to skip editing of UTIL member






 EDIT ---- DSN.PLATINUM.PARMLIB(UTIL) - 01.10 ----------------- COLUMNS
 COMMAND ===>                                                  SCROLL ==
              _
 PI021I CURRENTLY EDITING PARMLIB MEMBER 2 OF 3
 000100 SYSCOPYAUTH (OFF)      /* SYSCOPY AUTH CONTROL (ON) OR (OFF)
 000200 MODE (SWAP)            /* UTILITY MODE (SWAP) OR (SWAP)
 000300 UPDTSQTY (YES)         /* UPDATE TS PQTY AND SQTY (NO) OR (YES)
 000400 SORTLIMIT (2M)         /* SORT MAX LIMIT (#), (#K) OR (#M)
 000500 SYSCOPY (YES)          /* SYSCOPY UPDATE CONTROL (NO),(YES),(USE
 000600 MODIFYBITS (YES)       /* DEFAULT: MODBITS UPDATED DURING COPY Y
 000700 DFPLEVEL (3.2)         /* DFP LEVEL (X.X) (< 3.X, NO QSAM IF EXT
 000800 RACF-AUTHID (NO)       /* DEFAULT SECURITY AUTH ID (USER ID), (N
 000900 NEWPASS-VOLSER (YES)   /* FOR(NEW,PASS)NON-SMS DS,SYSCOPY VOLSER
 001000 COPY-BUFFERS (030)     /* DEFAULT #OF BUFFERS IF NOT IN SYNTAX
 001100 CHECK-DUPLICATES (NO)  /* WHETHER TO CHECK FOR DUPLICATES IN SYS
 001200 RESTART-RETRY (05)     /* IF -911 ACCESSING RESTART TABLE= #RETR
 001300 COPY-MODE (INLINE)     /* INLINE/NO-INLINE DETERMINES WHEN COPY
 001400 SORT-APPLSIZE (256K)   /* MINIMUM SORT SIZE REQUIRED BY SORT PAC
 001500 SORT-VARABOVE (YES)    /* ALLOCATE SORT INPUT BUFFERS ABOVE THE
 001600 CHKPEND-TS (YES)       /* SET CHECK PENDING FLAG FOR RI TABLES
 001700 CHKPEND-UPDCAT (YES)   /* UPDATE SYSTEM CATALOG WITH CHECK PENDI
 001800 VSAM-PURGE (YES)       /* INCLUDE PURGE PARM FOR VSAM DELETE
 001900 DISCARD-ERROR (NONE)   /* ACTION TAKEN WHEN DISCARDS FOUND DURIN
 002000                        /* FAST LOAD:  (NONE), (ABEND) OR (RC21)
 002100 ABEND-TASK (NO)        /* ABEND IF RETURN CODE > 4  (YES) OR (NO


 PIPDBPDA  R01.00 ------------- PIP - Parmlib(PDA)  ------------  93/05/
 COMMAND ===>
              _

   Type the information in the fields below.  Then press Enter.

      High level identifier ....: DSN.PLATINUM

      Times to Retry insert to stats tables.> 000500
      Retry interval (in 1/100 seconds) ....> 000020
      Number of inserts before a commit ....> 000010




   Press PF3 to skip editing of PDA member.











 EDIT ---- DSN.PLATINUM.PARMLIB(PDA) - 01.01 ------------------ COLUMNS
 COMMAND ===>                                                  SCROLL ==
              _
 PI021I CURRENTLY EDITING PARMLIB MEMBER 3 OF 3
 000100 RETRY#   (000500)                    /* Number of times to retry
 000110 RETRYINT (000020)                    /* interval in 1/100 of a s
 000120 COMMIT   (000010)                    /* # of inserts before comm
 ****** **************************** BOTTOM OF DATA ********************



















 PIPPRML  R01.00 ------------ PLATINUM PARMLIB Menu ------------  93/05/
 COMMAND ===>
              _


  Select an option by typing a number.  Then press Enter.  After all sel
  have been processed, type End or press PF3 to continue.
                                   ---------


             1.  Edit Parmlib members to set parameters.

             B.  Backup, display previous menu.

             Q.  Quit, saving current location.

             C.  Cancel, without saving current location.




  Press PF1 for Help.





 PIPINDV  R01.00 -------- Installation Individual Steps  -------  93/05/
 COMMAND ===>
              _

  Select an option by typing the letter. Then Press Enter.  After all se
  have been processed, type END or press PF3 to return to the main menu.

         1.  LINK          - Link products
         2.  PARMLIB       - Edit PARMLIB members
         3.  PASSWORD      - Enter passwords
         4.  OBJECTS       - Create PLATINUM DB2 objects
       > 5.  BIND          - Bind PLATINUM products
         6.  PPA/SQL-EASE  - Additional PPA/SQL-EASE steps
         7.  CUSTOMIZATION - Product customization
         8.  MODEL         - Model library customization
         9.  PGF           - Governor Facility Conversions.
        10.  FIXES         - Display Product Fixes applied
        11.  VERIFY        - Verify PLATINUM products

         A.  ALL STEPS     - All steps, in order

         B   Backup to last Menu.
         Q   Quit, saving current location.
         C   Cancel, without saving current location.
  Press PF1 for Help.


 PIPBDPM  R01.00 -------------- PLATINUM Bind Menu -------------  93/05/
 COMMAND ===>
              _


  Select an option by typing a number.  Then press Enter.  After all sel
  have been processed, type End or press PF3 to continue.



           > 1.  Generate bind control cards.

             2.  Edit bind control cards.

             3.  Generate JCL to bind PLATINUM's plans.

             B.  Backup - display previous menu.

             Q.  Quit - saving current location.

             C.  Cancel - without saving current location.


   Press PF1 for Help.



 PIPBDCPM  R01.00 -------- PIP - Bind Control Parameters -------  93/05/
 COMMAND ===>
              _

   Type the information in the fields below.  Then press Enter.

      High level identifier  ...: DSN.PLATINUM

      DB2 load library  ........: DSN.DSNLOAD

      OWNER(authid) parameter ...               (may be blank)
      DB2 SYSID ................. DSN
      DB2 version ............... V2.3  (ie. V2.1; V2.2; V2.3)


 Press PF1 for Help











 PIPBDPM  R01.00 -------------- PLATINUM Bind Menu -------------  93/05/
 COMMAND ===>
              _
 PI007I  BIND CONTROL CARDS HAVE BEEN BUILT.

  Select an option by typing a number.  Then press Enter.  After all sel
  have been processed, type End or press PF3 to continue.
                                   ---------


             1.  Generate bind control cards.

             2.  Edit bind control cards.

             3.  Generate JCL to bind PLATINUM's plans.

             B.  Backup - display previous menu.

             Q.  Quit - saving current location.

             C.  Cancel - without saving current location.


   Press PF1 for Help.



 PIPINDV  R01.00 -------- Installation Individual Steps  -------  93/05/
 COMMAND ===>
              _

  Select an option by typing the letter. Then Press Enter.  After all se
  have been processed, type END or press PF3 to return to the main menu.

         1.  LINK          - Link products
         2.  PARMLIB       - Edit PARMLIB members
         3.  PASSWORD      - Enter passwords
         4.  OBJECTS       - Create PLATINUM DB2 objects
         5.  BIND          - Bind PLATINUM products
         6.  PPA/SQL-EASE  - Additional PPA/SQL-EASE steps
       > 7.  CUSTOMIZATION - Product customization
         8.  MODEL         - Model library customization
         9.  PGF           - Governor Facility Conversions.
        10.  FIXES         - Display Product Fixes applied
        11.  VERIFY        - Verify PLATINUM products

         A.  ALL STEPS     - All steps, in order

         B   Backup to last Menu.
         Q   Quit, saving current location.
         C   Cancel, without saving current location.
  Press PF1 for Help.


 PIPCUSTM  R01.00 ----------- PLATINUM Customize Menu ----------  93/05/
 COMMAND ===>
              _

  Select an option by typing a number.  Then press Enter.  After all sel
  have been processed, type End or press PF3 to continue.

           > 1.  Update CLIST's with high level ID.
             2.  Update DSN.PLATINUM.MODEL.
             3.  Update RSPINIT CLIST.
             4.  Convert Plan Authorizations.
             5.  Convert Existing Jcl.
             6.  Convert Existing Rapid Reorg JCL.
             7.  Convert Panel Vertical Bar.

             B.  Backup, display previous menu.
             Q.  Quit, saving the current location.
             C.  Cancel, without saving the current location.

  Press PF1 for Help.







 PIPCUSTM  R01.00 ----------- PLATINUM Customize Menu ----------  93/05/
 COMMAND ===>
              _
 PI008I  CLIST'S UPDATED SUCCESSFULLY.
  Select an option by typing a number.  Then press Enter.  After all sel
  have been processed, type End or press PF3 to continue.

             1.  Update CLIST's with high level ID.
           > 2.  Update DSN.PLATINUM.MODEL.
             3.  Update RSPINIT CLIST.
             4.  Convert Plan Authorizations.
             5.  Convert Existing Jcl.
             6.  Convert Existing Rapid Reorg JCL.
             7.  Convert Panel Vertical Bar.

             B.  Backup, display previous menu.
             Q.  Quit, saving the current location.
             C.  Cancel, without saving the current location.

  Press PF1 for Help.







 PIPCUSTM  R01.00 ----------- PLATINUM Customize Menu ----------  93/05/
 COMMAND ===>
              _
 PI012I DATASET 'DSN.PLATINUM.MODEL'IS NOW CUSTOMIZED.
  Select an option by typing a number.  Then press Enter.  After all sel
  have been processed, type End or press PF3 to continue.

             1.  Update CLIST's with high level ID.
             2.  Update DSN.PLATINUM.MODEL.
           > 3.  Update RSPINIT CLIST.
             4.  Convert Plan Authorizations.
             5.  Convert Existing Jcl.
             6.  Convert Existing Rapid Reorg JCL.
             7.  Convert Panel Vertical Bar.

             B.  Backup, display previous menu.
             Q.  Quit, saving the current location.
             C.  Cancel, without saving the current location.

  Press PF1 for Help.







 EDIT ---- DSN.PLATINUM.CLIST(RSPINIT) - 01.07 ---------------- COLUMNS
 COMMAND ===>                                                  SCROLL ==
              _
 PI011J MAKE ANY CHANGES. PF3 OR END TO SAVE. CANCEL TO EXIT WITHOUT SAV
 ==MSG> -WARNING- THE UNDO COMMAND IS NOT AVAILABLE UNTIL YOU CHANGE
 ==MSG>           YOUR EDIT PROFILE USING THE COMMAND "RECOVERY ON".
 000001 /*********************************************************/
 000002 /* SYSTEM: PLATINUM PRODUCTS ISPF PROFILE INITIALIZATION */
 000003 /*-------------------------------------------------------*/
 000004 /*               ALL RIGHTS RESERVED                     */
 000005 /*    COPYRIGHT 1990,1992, PLATINUM TECHNOLOGY INC.      */
 000006 /*********************************************************/
 000007 PROC 0  FUNC()
 000008 CONTROL NOFLUSH NOMSG NOPROMPT NOLIST
 000009 ISPEXEC CONTROL ERRORS RETURN
 000010
 000011 /**************************************************************/
 000012 /* SET UP THE DEFAULT PROFILE LOAD LIBRARIES FOR ALL USERS.   */
 000013 /* THESE LIBRARIES WILL BE USED FOR GENERATING STEPLIB AND    */
 000014 /* PTILIB DD CONCATENATIONS FOR BATCH PROCESSOR JCL STREAMS.  */
 000015 /**************************************************************/
 000016  SET &ZPFCTL = &STR(USER)
 000017  SET &EPLIB1 = &STR(DSN.PLATINUM.LOADLIB)
 000018  SET &EPLIB2 = &STR(DSN.DSNLOAD)
 000019  SET &EPLIB3 = &STR()


 PIPCUSTM  R01.00 ----------- PLATINUM Customize Menu ----------  93/05/
 COMMAND ===>
              _

  Select an option by typing a number.  Then press Enter.  After all sel
  have been processed, type End or press PF3 to continue.
                                   ---------
             1.  Update CLIST's with high level ID.
             2.  Update DSN.PLATINUM.MODEL.
             3.  Update RSPINIT CLIST.
             4.  Convert Plan Authorizations.
             5.  Convert Existing Jcl.
             6.  Convert Existing Rapid Reorg JCL.
             7.  Convert Panel Vertical Bar.

             B.  Backup, display previous menu.
             Q.  Quit, saving the current location.
             C.  Cancel, without saving the current location.

  Press PF1 for Help.







 PIPINDV  R01.00 -------- Installation Individual Steps  -------  93/05/
 COMMAND ===>
              _

  Select an option by typing the letter. Then Press Enter.  After all se
  have been processed, type END or press PF3 to return to the main menu.

         1.  LINK          - Link products
         2.  PARMLIB       - Edit PARMLIB members
         3.  PASSWORD      - Enter passwords
         4.  OBJECTS       - Create PLATINUM DB2 objects
         5.  BIND          - Bind PLATINUM products
         6.  PPA/SQL-EASE  - Additional PPA/SQL-EASE steps
         7.  CUSTOMIZATION - Product customization
         8.  MODEL         - Model library customization
         9.  PGF           - Governor Facility Conversions.
        10.  FIXES         - Display Product Fixes applied
      > 11.  VERIFY        - Verify PLATINUM products

         A.  ALL STEPS     - All steps, in order

         B   Backup to last Menu.
         Q   Quit, saving current location.
         C   Cancel, without saving current location.
  Press PF1 for Help.


 PIPVFY  R01.00 ----------- PLATINUM Verify Products -----------  93/05/
 COMMAND ===>
              _


  Congratulations, you have successfully completed the installation proc


  Select an option by typing a number.  Then press Enter.  After all sel
  have been processed, type End or press PF3 to return to main menu.

           > 1.  Enter PLATINUM products to verify installation.




  Press PF1 for help.










 RM   R02.02 --------- PLATINUM Products Main Menu ---------  93/05/20 0
 OPTION ===> U                                                 SCROLL ==
             _

 DB2 SYSTEM ID ===> DSN   LOCATION ===> LOCAL             DB2 VERSION :
                                                          TAPE VERSION:

 DBA UTILITIES                           GENERAL FACILITIES
 U  PUT  - Utilities                     A  AUTH     - Product Authoriza
                                         M  ACM      - Alternate Catalog
                                         T  TUTORIAL - Product Tutorials
                                         V  PROFILE  - Global Profile Va
                                         X  EXIT     - Exit PLATINUM Pro










 --- Copyright (c) 1987,1992   PLATINUM technology inc.  All Rights Rese



 UTGL.MAIN  R02.01  ---  PLATINUM Utilities for DB2  ---        93/05/20
 COMMAND  ==>
              _

 -----------------------------------------------------------  User ID: D
          SELECT OPTION  ==>

                     Platinum Data Compressor
                         1)  Existing Table Analysis

                     Platinum DB2 Object Manager
                         2)  Tablespace Selection
                         3)  Indexspace Selection
                         4)  Table Selection

                     Miscellaneous Services
                         P)  Profile
                         X)  Exit

  TAPE VERSION: P209AA



 --- (c) Copyright -1992-     PLATINUM technology inc.   All Rights Rese

-------- ------- -------- ----- ----------------------------------------
PRISCIAN DD20006 05/19/93 10:30 XDBS.DSN.CNTL(PLATCOPY)
                                COPIES PLATINUM DATASETS TO
                                DSN.PLATINUM.***.
-------- ------- -------- ----- ----------------------------------------
MUNDO    DD20009 04/01/93 10:27 XDBS.DSN.CNTL(INFOFILE)
                                Allocates the files used by ALTER:
                                DSN.INFOTOOL.SYSSQL
                                DSN.INFOTOOL.REBIND
                                DSN.INFOTOOL.SYSALTER
                                DSN.INFOTOOL.UNLOAD
                                DSN.INFOTOOL.RELOAD
-------- ------- -------- ----- ----------------------------------------
MUNDO    DD20009 03/31/93 11:55 XDBS.DSN.CNTL(IPKPLIB)
                                Links ipkmst for automatic location
                                of the INFOTEL parmlib.
-------- ------- -------- ----- ----------------------------------------
MUNDO    DD20009 03/31/93 11:47 XDBS.DSN.CNTL(IPAKBIND)
                                BIND ADD TPAKDB2 plan.
-------- ------- -------- ----- ----------------------------------------
MUNDO    DD20009 03/31/93 11:44 XDBS.DSN.CNTL(ITOLBIND)
                                BIND replace on Ipkmst plan.
-------- ------- -------- ----- ----------------------------------------
MUNDO    DD20009 03/31/93 11:32 XDBS.DSN.CNTL(BATSPUFI)
                                create stogroup,dtabase,tablespace,index
                                for use by infotool.
-------- ------- -------- ----- ----------------------------------------
MUNDO    DD20009 03/31/93 09:24 XDBS.DSN.CNTL(IPAKMIG)
                                Copies INFOPAK base libraries to target.
-------- ------- -------- ----- ----------------------------------------
MUNDO    DD20009 03/31/93 09:22 XDBS.DSN.CNTL(IPAKIMPL)
                                Renames target to active and copies
                                DB2LINK into active DSNEXIT.
-------- ------- -------- ----- ----------------------------------------
MUNDO    DD20009 03/31/93 09:16 XDBS.DSN.CNTL(ITOLIMPL)
                                Renames target to active
-------- ------- -------- ----- ----------------------------------------
MUNDO    DD20009 03/31/93 09:14 XDBS.DSN.CNTL(ITOOLMIG)
                                Copies INFOtool base libraries to target
-------- ------- -------- ----- ----------------------------------------
-------- ------- -------- ----- ----------------------------------------
TOMIAK   DD20008 03/31/93 10:00 SOFTWARE WAS IMPLEMENTED FROM THE TARGET
                                ZONE TDSN, DSN.TARGET.*, TO THE
                                ACTIVE ZONE DSN, DSN.*
-------- ------- -------- ----- ----------------------------------------
TOMIAK   DD20008 03/31/93 09:51 TAPE ARCHIVE OF BDSN WAS CREATED.
                                OUTPUT TAPE DSN = DSN.BACKUP.LVL8
-------- ------- -------- ----- ----------------------------------------
TOMIAK   DD20008 03/31/93 09:31 TDSN, WAS CLONED FROM A LEVEL 10
                                TV2R3 ZONE VIA IMPLEMENTATION DIALOG
-------- ------- -------- ----- ----------------------------------------
TOMIAK   DD20008 02/18/93 14:46 OMEGAMON II FOR DB2 SOFTWARE CLONED FROM
                                ZONE TDSN, DSN.OMEGDB2.TARGET.*, TO THE
                                ACTIVE ZONE DSN, DSN.OMEGDB2.*
-------- ------- -------- ----- ----------------------------------------
TOMIAK   DD20008 02/18/93 14:40 TAPE ARCHIVE OF BDSN WAS CREATED.
                                OUTPUT TAPE DSN = DSN.OMEGDB2.BACKUP.LVL
-------- ------- -------- ----- ----------------------------------------
TOMIAK   DD20008 02/18/93 14:29 OMEGAMON II FOR DB2 SOFTWARE
                                TDSN, WAS CLONED FROM A LEVEL 2
                                OMEGTGT ZONE VIA IMPLEMENTATION DIALOG
-------- ------- -------- ----- ----------------------------------------
BORGES   DD20002 01/21/93 13:10 SOFTWARE WAS IMPLEMENTED FROM THE TARGET
                                ZONE TDSN, DSN.TARGET.*, TO THE
                                ACTIVE ZONE DSN, DSN.*
-------- ------- -------- ----- ----------------------------------------
BORGES   DD20002 01/21/93 12:59 TAPE ARCHIVE OF BDSN WAS CREATED.
                                OUTPUT TAPE DSN = DSN.BACKUP.LVL7
-------- ------- -------- ----- ----------------------------------------
BORGES   DD20002 01/21/93 12:31 TDSN, WAS CLONED FROM A LEVEL 9
                                TV2R3 ZONE VIA IMPLEMENTATION DIALOG
-------- ------- -------- ----- ----------------------------------------
BORGES   DD20010 12/10/92 17:59 Performed bind on QMF plan after imple-
                                mentation of QMF PTF(UN11002)
                                XDBS.DSN.CNTL(DSQ3BINJ).
-------- ------- -------- ----- ----------------------------------------
Tomiak   KETCSC  12/10/92 16:00 Moved new DYNBKUP and BIND imagsql.
-------- ------- -------- ----- ----------------------------------------
BORGES   DD20002 12/09/92 16:57 SOFTWARE WAS IMPLEMENTED FROM THE TARGET
                                ZONE TDSN, DSN.TARGET.*, TO THE
                                ACTIVE ZONE DSN, DSN.*
-------- ------- -------- ----- ----------------------------------------
-------- ------- -------- ----- ----------------------------------------
BORGES   DD20002 12/09/92 13:04 TDSN, WAS CLONED FROM A LEVEL 8
                                TV2R3 ZONE VIA IMPLEMENTATION DIALOG
-------- ------- -------- ----- ----------------------------------------
Weston   DD20007 11/09/92 14:17 Bind Plan 'PCSQLTST' for DSN using
                                XDBS.DSN.CNTL(DSNPCBN) and Grant plan
                                public.
-------- ------- -------- ----- ----------------------------------------
Weston   DD20007 11/09/92 14:10 Propagated PC/SQL-Link to DSN using
                                XDBS.DSN.CNTL(DSNPCCP) creating
                                DSN.PCSQL.CNTL,DSN.PCSQL.CLIST,
                                DSN.PCSQL.LIBRARY, and DSN.PCSQL.LOAD.
-------- ------- -------- ----- ----------------------------------------
SOPPITT  DD20001 11/04/92 17:41 SOFTWARE WAS IMPLEMENTED FROM THE TARGET
                                ZONE TDSN, DSN.TARGET.*, TO THE
                                ACTIVE ZONE DSN, DSN.*
-------- ------- -------- ----- ----------------------------------------
SOPPITT   DD20001 10/23/92 19:46 THE DSN ZONE HAS BE RESTORED FROM
                                IT'S BACKUP, BDSN. REFER TO THE
                                LVL TRCKING BOARD TO VERIFY LVL BACKOUT
-------- ------- -------- ----- ----------------------------------------
SYSADM   DD20010 10/01/92 14:51 SOFTWARE WAS IMPLEMENTED FROM THE TARGET
                                ZONE TDSN, DSN.TARGET.*, TO THE
                                ACTIVE ZONE DSN, DSN.*
-------- ------- -------- ----- ----------------------------------------
SYSADM   DD20010 10/01/92 14:18 TDSN, WAS CLONED FROM A LEVEL 7
                                TV2R3 ZONE VIA IMPLEMENTATION DIALOG
-------- ------- -------- ----- ----------------------------------------
SYSADM   DD20010 09/04/92 ??:?? Someone updated or ran the DSNTINST
                                clist

 DSNTIPA1            INSTALL, UPDATE, AND MIGRATE DB2 - MAIN PANEL
 ===>
      _

 Check parameters and reenter to change:

  1  INSTALL TYPE         ===> MIGRATE   Install, Update, or Migrate

 Enter the following 2 values for migration only
  2  FROM RELEASE         ===> 2.2       1.3 or 2.2
  3  DATA SET NAME(MEMBER)===> XDBS.DSNTID.SOURCE(DSNTIDDS)

 Enter name of your input data sets (DSNLOAD, DSNMACS, DSNSAMP, DSNCLIST
  4  PREFIX               ===> DSN.TARGET
  5  SUFFIX               ===>

 Enter to set or save panel values (by reading or writing the named memb
  6  INPUT MEMBER NAME    ===> DSNTIDXA  Enter to read old panel values
  7  OUTPUT MEMBER NAME   ===> DSNTIDDS  Enter to write new panel values


 DSNTIPA2        MIGRATE DB2 - DATA PARAMETERS
 ===>
      _

 Check parameters and reenter to change:

  1  CATALOG ALIAS       ===> DSNC220               Alias of MVS catalog
                                                    DB2 subsystem data s
  2  DEFINE CATALOG      ===> NO                    YES or NO
  3  VOLUME SERIAL 1     ===> XDB001                CLIST allocation
  4  VOLUME SERIAL 2     ===> XDB001                Non-VSAM data
  5  VOLUME SERIAL 3     ===> DDBS01                Default, temporary d
  6  VOLUME SERIAL 4     ===>                       Directory, catalog d
  7  VOLUME SERIAL 5     ===>                       Directory, catalog i
  8  VOLUME SERIAL 6     ===>                       Log copy 1, BSDS 2
  9  VOLUME SERIAL 7     ===>                       Log copy 2, BSDS 1
 10  PERMANENT UNIT NAME ===> 3390                  Device type for MVS
                                                    and partitioned data
 11  TEMPORARY UNIT NAME ===> SYSDA                 Device type for
                                                    temporary data sets


 DSNTIPH         MIGRATE DB2 - SYSTEM RESOURCE DATA SET NAMES
 ===>
      _

 Enter data below:

 Bootstrap Data Sets (BSDS):
   1 COPY 1 NAME         ===> DSNC220.BSDS01
   2 COPY 2 NAME         ===> DSNC220.BSDS02

 Active Logs:
   3 NUMBER OF COPIES    ===> 2        2 or 1.  Number of active log cop
   4 COPY 1 PREFIX       ===> DSNC220.LOGCOPY1
   5 COPY 2 PREFIX       ===> DSNC220.LOGCOPY2

 Archive Logs:
   6 NUMBER OF COPIES    ===> 2        2 or 1.  Number of archive log co
   7 COPY 1 PREFIX       ===> DSNC220.ARCHLOG1
   8 COPY 2 PREFIX       ===> DSNC220.ARCHLOG2
   9 TIMESTAMP ARCHIVES  ===> NO       YES or NO


 DSNTIPT         MIGRATE DB2 - DATA SET NAMES PANEL 1
 ===>
      _

 Data sets allocated by the installation CLIST for edited output:
   1  TEMP CLIST LIBRARY ===> DSN.TARGET.NEW.DSNTEMP
   2  CLIST LIBRARY      ===> DSN.TARGET.NEW.DSNCLIST
   3  SAMPLE LIBRARY     ===> DSN.TARGET.NEW.DSNSAMP

 Data sets allocated by the installation jobs:
   4  DBRM LIBRARY       ===> DSN.TARGET.DBRMLIB.DATA
   5  APPLICATION LOAD   ===> DSN.TARGET.RUNLIB.LOAD
   6  DECLARATION LIBRARY===> DSN.TARGET.SRCLIB.DATA

 Data sets allocated by SMP/E and other methods:
   7  LINK LIST LIBRARY  ===> DSN.TARGET.DSNLINK
   8  LOAD LIBRARY       ===> DSN.TARGET.DSNLOAD
   9  MACRO LIBRARY      ===> DSN.TARGET.DSNMACS
  10  LOAD DISTRIBUTION  ===> DSN.TARGET.DSNALOAD
  11  EXIT LIBRARY       ===> DSN.TARGET.DSNEXIT


 DSNTIPU         MIGRATE DB2 - DATA SET NAMES PANEL 2
 ===>
      _

 Enter data set names below:
  1  ASSEMBLER            ===>
  2  C COMPILER           ===> EDC.V1R1M1.SEDCCOMP
  3  C COMPILER MESSAGES  ===> EDC.V1R1M1.SEDCMSGS
  4  C LIBRARY HEADERS    ===> EDC.V1R1M1.SEDCHDRS
  5  C LINK EDIT STUBS    ===> EDC.V1R1M1.SEDCBASE
  6  C DYNAMIC RUNTIME    ===> EDC.V1R1M1.SEDCLINK
  7  COBOL COMPILER       ===>
  8  COBOL LINK EDIT      ===> SYS1.COBLIB
  9  VS COBOL II COMPILER ===>
 10  VS COBOL II LINK     ===> SYS1.COB2LIB
 11  COMMON LINK EDIT     ===> PLI.V2R2M0.SIBMBASE
 12  COMMON DYNAMIC       ===> PLI.V2R2M0.SIBMLINK
 13  FORTRAN COMPILER     ===> SYS1.VSF2COMP
 14  FORTRAN LINK EDIT    ===> SYS1.VSF2FORT
 15  PL/I COMPILER        ===> PLI.V2R2M0.PLICOMP
 16  PL/I LINK EDIT       ===> PLI.V2R2M0.PLIBASE

 DSNTIPW         MIGRATE DB2 - DATA SET NAMES PANEL 3
 ===>
      _

 Enter data set names below:
  1  SYSTEM MACLIB        ===> SYS1.MACLIB
  2  SYSTEM PROCEDURES    ===> DSN220.INSTALL.PROCLIB
  3  SORT LIBRARY         ===> SYS1.SORTLIB
  4  IMS RESLIB           ===> DSN.TARGET.RLRESLIB
  5  ISPF ISPLINK MODULE  ===> ISP.ISPLOAD












 DSNTIPV         MIGRATE DB2 - CICS
 ===>
      _

 Enter data below:

  1 CICS RELEASE         ===> 2         0 = not using CICS
                                        1 = CICS/OS/VS 1.7.0
                                        2 = CICS/MVS 2.1
                                        3 = CICS/ESA 3.1.1 or 3.2

  2 CICS COBOL LIBRARY   ===> XCICS.TC212D3.COBLIB
  3 CICS COBOL II LIBRARY===> SYS1.COB2CICS
  4 CICS PL/I  LIBRARY   ===> XCICS.TC212D3.PL1LIB
  5 CICS LOADLIB         ===> XCICS.TC212D3.LOADLIB

 The following fields are required if option 3 was selected in field 1;
 they are optional if option 2 was selected in field 1:
  6 CSD NAME (FOR RDO)   ===>
  7 GROUP NAME           ===>           CICS RDO group name
  8 NEW GROUP            ===>           YES or NO
  9 LIST NAME            ===>           CICS RDO list name
 DSNTIPD         MIGRATE DB2 - SIZES
 ===>
      _

 Check numbers and reenter to change:

  1  DATABASES          ===> 200        In this subsystem
  2  TABLES             ===> 10         Per database (average)
  3  COLUMNS            ===> 10         Per table (average)
  4  VIEWS              ===> 3          Per table (average)
  5  TABLE SPACES       ===> 10         Per database (average)
  6  PLANS              ===> 200        In this subsystem
  7  PLAN STATEMENTS    ===> 30         SQL statements per plan (average
  8  PACKAGES           ===> 300        In this subsystem
  9  PACKAGE STATEMENTS ===> 10         SQL statements per package (aver
 10  PACKAGE LIST SIZE  ===> 2          Package lists per plan (average)
 11  EXECUTED STMTS     ===> 15         SQL statements executed (average
 12  TABLES IN STMT     ===> 2          Tables per SQL statement (averag
 13  TEMP 4K SPACE      ===> 16777216   Bytes of 4K-page work space
 14  TEMP 4K DATA SETS  ===> 1          Number of data sets for 4K data
 15  TEMP 32K SPACE     ===> 4194304    Bytes of 32K-page work space
 16  TEMP 32K DATA SETS ===> 1          Number of data sets for 32K data
 DSNTIPE         MIGRATE DB2 - STORAGE SIZES
 ===>
      _

 Check numbers and reenter to change:

  1  DATABASES         ===> 60         Concurrently in use
  2  MAX USERS         ===> 30         Concurrently running in DB2
  3  MAX REMOTE        ===> 0          Remotely accessing data in DB2
  4  MAX TSO CONNECT   ===> 100        Users on QMF or in DSN command
  5  MAX BATCH CONNECT ===> 20         Users in DSN command or utilities
  6  MIN BP0 BUFFERS   ===> 4000       Minimum number of buffers in BP0
  7  MAX BP0 BUFFERS   ===> 4000       Maximum number of buffers in BP0
  8  MIN BP1 BUFFERS   ===> 0          Minimum number of buffers in BP1
  9  MAX BP1 BUFFERS   ===> 0          Maximum number of buffers in BP1
 10  MIN BP2 BUFFERS   ===> 0          Minimum number of buffers in BP2
 11  MAX BP2 BUFFERS   ===> 0          Maximum number of buffers in BP2
 12  MIN BP32K BUFFERS ===> 384        Minimum number of buffers in BP32
 13  MAX BP32K BUFFERS ===> 384        Maximum number of buffers in BP32



 DSNTIPN         MIGRATE DB2 - TRACING
 ===>
      _

 Enter data below:

  1  AUDIT TRACE      ===> NO          Audit classes to start. NO,YES,li

  2  TRACE AUTO START ===> NO          Global classes to start. YES, NO,
  3  TRACE SIZE       ===> 65536       Trace table size in bytes.  4K-39

  4  SMF ACCOUNTING   ===> 1           Accounting classes to start. NO,Y
  5  SMF STATISTICS   ===> 1           Statistics classes to start. NO,Y
  6  STATISTICS TIME  ===> 30          Time interval in minutes.  1-1440

  7  MONITOR TRACE    ===> NO          Monitor classes to start. NO, YES
  8  MONITOR SIZE     ===> 8192        Default monitor buffer size. 8K-1

  9  CHECKPOINT FREQ  ===> 1000        Number of log records per checkpo



 DSNTIPO         MIGRATE DB2 - OPERATOR FUNCTIONS
 ===>
      _

 Enter data below:

  1  WTO ROUTE CODES    ===> 1
                                        Routing codes for WTORs
  2  RECALL DATABASE    ===> YES        Use DFHSM automatic recall. YES
  3  RECALL DELAY       ===> 120        Seconds to wait for automatic re

  4  RLF AUTO START     ===> NO         Resource Limit Facility.  NO or
  5  RLST NAME SUFFIX   ===> 01         Resource Limit Spec. Table (RLST
  6  RLST ACCESS ERROR  ===> NOLIMIT    Action on RLST access error. Val
                                        NOLIMIT - Run without limit
                                        NORUN   - Do not run at all
                                        1-5000000 - Limit in CPU service

  7  DSNZPARM NAME      ===> DSNZPARM   Enter name of new DB2 parameter
  8  AUTO BIND          ===> YES        Use automatic bind. YES or NO
  9  SITE TYPE          ===> LOCALSITE    LOCALSITE or RECOVERYSITE

 DSNTIPF         MIGRATE DB2 - APPLICATION PROGRAMMING DEFAULTS
 ===>
      _

 Enter data below:

  1  LANGUAGE DEFAULT     ===> COB2     ASM, ASMH, C, COBOL, COB2, FORTR
  2  DECIMAL POINT IS     ===> .        . or ,
  3  MINIMUM DIVIDE SCALE ===> NO       NO or YES for a minimum of 3 dig
                                        to right of decimal after divisi
  4  STRING DELIMITER     ===> DEFAULT  DEFAULT, " or ' (COBOL or COB2 o
  5  SQL STRING DELIMITER ===> DEFAULT  DEFAULT, " or '
  6  MIXED DATA           ===> NO       NO or YES for mixed DBCS data
  7  CODED CHARACTER SET  ===> 37       The CCSID of your SBCS or mixed
  8  DATE FORMAT          ===> ISO      ISO, JIS, USA, EUR, LOCAL
  9  TIME FORMAT          ===> ISO      ISO, JIS, USA, EUR, LOCAL
 10  LOCAL DATE LENGTH    ===> 0        0 (no exit), or value between 10
 11  LOCAL TIME LENGTH    ===> 0        0 (no exit), or value between  8
 12  STD SQL LANGUAGE     ===> NO       NO or 86
 13  DECIMAL ARITHMETIC   ===> DEC15    DEC15, DEC31, 15, 31


 DSNTIPI         MIGRATE DB2 - IRLM PANEL 1
 ===>
      _

 Enter data below:

  1  INSTALL IRLM       ===> YES        IRLM is required for DB2. Should
                                        IRLM distributed with DB2 be ins
  2  SUBSYSTEM NAME     ===> IRLM       IRLM MVS subsystem name
  3  RESOURCE TIMEOUT   ===> 60         Seconds to wait for unavailable
  4  TIME INTERVAL      ===> 500        Milliseconds between lock proces
  5  AUTO START         ===> YES        Start IRLM if not up. YES or NO
  6  PROC NAME          ===> IRLMPROC   Name of start procedure for IRLM
  7  TIME TO AUTOSTART  ===> 300        Time DB2 will wait for IRLM auto








 DSNTIPJ         MIGRATE DB2 - IRLM PANEL 2
 ===>
      _

 Enter data below:

  1  CROSS MEMORY           ===> NO        Local storage and cross memor
  2  MAXIMUM ECSA           ===> 5242880   Control block storage (1M - 9
  3  LOCKS PER TABLE(SPACE) ===> 1000      Maximum before lock escalatio
  4  LOCKS PER USER         ===> 10000     Maximum before resource unava
  5  PARTNER                ===>           VTAM name of other IRLM.  Req
                                           for intersystem communication
  6  IDENTIFIER             ===> 2         Number for this IRLM (1-8)
  7  DEADLOCK TIME          ===> 15        Detection interval in seconds
  8  DEADLOCK CYCLE         ===> 4         Number of LOCAL cycles before
  9  INTERNAL TRACE         ===> NO        Automatic start of tracing






 DSNTIPP         MIGRATE DB2 - PROTECTION
 ===>
      _

 Enter data below:

  1  MVS CATALOG       ===>            MVS catalog control password
  2  BSDS PASSWORD     ===>            Bootstrap data sets password
  3  LOG PASSWORD      ===>            Active log data sets password
  4  ARCHIVE LOG PW    ===>            Archive log data sets password
  5  ARCHIVE LOG RACF  ===> NO         RACF protect archive log data set
  6  DIRECTORY/CATALOG ===>            DB2 directory and catalog passwor
  7  USE PROTECTION    ===> YES        DB2 authorization enabled.  YES o
  8  SYSTEM ADMIN 1    ===> DD20010    Authid of system administrator
  9  SYSTEM ADMIN 2    ===> DD20002    Authid of system administrator
 10  SYSTEM OPERATOR 1 ===> SYSOPR     Authid of system operator
 11  SYSTEM OPERATOR 2 ===> OPERUSR    Authid of system operator
 12  UNKNOWN AUTHID    ===> IBMUSER    Authid of default (unknown) user
 13  RESOURCE AUTHID   ===> SYSIBM     Authid of Resource Limit Table cr



 DSNTIPM         MIGRATE DB2 - MVS PARMLIB UPDATES
 ===>
      _

 Check data and reenter to change:

  1  SUBSYSTEM NAME      ===> DSN        Name for connecting to DB2
  2  SUBSYSTEM PREFIX    ===> -          One character to denote subsyst
  3  SUBSYSTEM MEMBER    ===> 00         xx in IEFSSNxx
  4  SUBSYSTEM SEQUENCE  ===> 88888888   Sequence number for insertion
  5  AUTH MEMBER         ===> 00         xx in IEAAPFxx APF member name
  6  AUTH SEQUENCE       ===> 88888888   Sequence number for insertion
  7  LINK LIST ENTRY     ===> 00         xx in LNKLSTxx for DSNLINK
  8  LINK LIST SEQUENCE  ===> 88888888   Sequence number for insertion








 DSNTIPL         MIGRATE DB2 - ACTIVE LOG DATA SET PARAMETERS
 ===>
      _

 Enter data below:

   1 NUMBER OF LOGS    ===> 3        Number data sets per active log cop
   2 INPUT BUFFER      ===> 28672    Size in bytes (28K-60K)
   3 OUTPUT BUFFER     ===> 409600   Size in bytes (40K-4000K)
   4 WRITE THRESHOLD   ===> 20       Buffers filled before write (1-256)
   5 ARCHIVE LOG FREQ  ===> 24       Hours per archive run
   6 UPDATE RATE       ===> 3600     Updates, inserts, and deletes per h










 DSNTIPA         MIGRATE DB2 - ARCHIVE LOG DATA SET PARAMETERS
 ===>
      _

 Enter data below:

   1  ALLOCATION UNITS ===> BLK       Blk, Trk, or Cyl
   2  PRIMARY QUANTITY ===>           Primary space allocation
   3  SECONDARY QTY.   ===>           Secondary space allocation
   4  CATALOG DATA     ===> NO        YES or NO to catalog archive data
   5  DEVICE TYPE      ===> TAPE3480  Unit name for archive logs
   6  BLOCK SIZE       ===> 28672     Rounded up to 4096 multiple
   7  MAX CONCURRENT   ===> 3         Number of input volumes allocated
   8  RECORDING MAX    ===> 500       Number of data sets recorded in BS
   9  MSVGP 1          ===>           Mass storage volume group (MSVGP)
  10  MSVGP 2          ===>           MSVGP for second archive copy
  11  WRITE TO OPER    ===> YES       Issue WTOR before mount for archiv
  12  WTOR ROUTE CODE  ===> 1,3,4
                                      Routing codes for archive WTORs
  13  RETENTION PERIOD ===> 9999      Days to retain archive log data se
  14  QUIESCE PERIOD   ===> 5         Maximum quiesce interval (1-999)
  15  COMPACT DATA     ===> NO        YES or NO for data compaction
 DSNTIPS         MIGRATE DB2 - DATABASES AND SPACES TO START AUTOMATICAL
 ===>
      _

 Enter data below:

  1  ===> RESTART       RESTART or DEFER the objects named below.
     The objects to restart or defer may be ALL in item 2, a database
     name, or database name.space name.

  2  ==> ALL               14  ==>                   26  ==>
  3  ==>                   15  ==>                   27  ==>
  4  ==>                   16  ==>                   28  ==>
  5  ==>                   17  ==>                   29  ==>
  6  ==>                   18  ==>                   30  ==>
  7  ==>                   19  ==>                   31  ==>
  8  ==>                   20  ==>                   32  ==>
  9  ==>                   21  ==>                   33  ==>
 10  ==>                   22  ==>                   34  ==>
 11  ==>                   23  ==>                   35  ==>
 12  ==>                   24  ==>                   36  ==>
 13  ==>                   25  ==>                   37  ==>
 DSNTIPR         MIGRATE DB2 - DISTRIBUTED DATA FACILITY
 ===>
      _

 Enter data below:

  1 DDF STARTUP OPTION   ===> COMMAND   NO (DDF not startable),
                                        AUTO (automatic start up), or
                                        COMMAND (start by command)
  2 DB2 LOCATION NAME    ===> DOFEDSN           The name other DB2s use
                                                refer to this DB2
  3 DB2 NETWORK LUNAME   ===> DOFEDSN   The name VTAM uses to refer to t
  4 DB2 NETWORK PASSWORD ===> DOFEDSN   Password for connecting to other
  5 RLST ACCESS ERROR    ===> NOLIMIT   Action on non-local RLST access
                                        NOLIMIT   - Run without limit
                                        NORUN     - Do not run at all
                                        1-5000000 - Limit in CPU service





 DSNTIPZ         MIGRATE DB2 - DATA DEFINITION CONTROL SUPPORT
 ===>
      _

 Enter data below:

  1 INSTALL DD CONTROL SUPT. ===> NO        YES - activate the support
                                            NO  - omit DD control suppor
  2 CONTROL ALL APPLICATIONS ===> NO        YES or NO
  3 REQUIRE FULL NAMES       ===> YES       YES or NO
  4 UNREGISTERED DDL DEFAULT ===> ACCEPT    Action for unregistered DDL:
                                            ACCEPT - allow it
                                            REJECT - prohibit it
                                            APPL   - consult ART

  5 REGISTRATION OWNER       ===> DSNRGCOL          Qualifier for ART an
  6 REGISTRATION DATABASE    ===> DSNRGFDB          Database name
  7 APPL REGISTRATION TABLE  ===> DSN_REGISTER_APPL Table name
  8 OBJT REGISTRATION TABLE  ===> DSN_REGISTER_OBJT Table name

 Note: ART = Application Registration Table
       ORT = Object      Registration Table
 DSNTIPY         MIGRATE DB2 - JOB EDITING
 ===>
      _

 Enter data below:

  1  REMOTE LOCATION   ===>                  Remote location for COBOL
                                             organization application
  2  COBOL TYPE        ===> COB2             COBOL for sample applicatio
                                             (COBOL OR COB2)

 Enter job card information for install and sample jobs:

  3 ===>
  4 ===>
  5 ===>
  6 ===>





 DSNTIPC         MIGRATE DB2 - CLIST CALCULATIONS - PANEL 1
 ===>
      _

  You may update the EDMPOOL size if necessary.

    1  DSNT485I  EDMPOOL STORAGE SIZE    =     3462  K
    2  DSNT485I  BUFFER POOL SIZE        =    28288  K
    3  DSNT485I  SORT POOL SIZE          =     2828  K
    4  DSNT485I  RID POOL SIZE           =    14144  K
    5  DSNT485I  DATA SET STORAGE SIZE   =     2160  K
    6  DSNT485I  CODE STORAGE SIZE       =     4200  K
    7  DSNT485I  WORKING STORAGE SIZE    =     1500  K
    8  DSNT486I  TOTAL MAIN STORAGE      =    56582  K
    9  DSNT448I  RECOMMENDED REAL STORAGE=    49866  K
   10  DSNT487I  TOTAL STORAGE BELOW 16M =      690  K (WITH SWA ABOVE 1
   11  DSNT438I  WARNING,
                 IRLM LOCK MAXIMUM SPACE =    73242  K, AVAILABLE =


-------- ------- -------- ----- ----------------------------------------
Soppitt  DD20010 08/26/92 11:00 QMF migration jobs executed.  See
                                'XDBS.DSN.CNTL($INDEX)' for details.
-------- ------- -------- ----- ----------------------------------------
Soppitt  DD20010 08/26/92 11:00 QMF Installation clist DSQ1EINS, was
                                executed in migration mode to migrate
                                QMF from V2.4 to V3.1.  Input as below:




                          QMF INSTALLATION DIALOGS
ISPF Command ===>
                  _

   INSTALL TYPE             ===> MIGRATION      ("I"-INITIAL, when no pr
                                                     level of QMF exists
                                                     the system.
                                                 "M"-MIGRATION, when a p
                                                     level of QMF does e
                                                     in the system.

   SCOPE OF INSTALL         ===> D              ("F"-FULL, when this is
                                                     first QMF V3R1 inst
                                                 "D"-DB ONLY, when insta
                                                     QMF V3R1 into anoth
                                                     database.

   PREVIOUS QMF LEVEL       ===> V2R3           ("V2R2","V2R3","V2R4","V
     (MIGRATION INSTALLS ONLY)


   PRESS:  ENTER to continue    PF13 for help    PF03  to end





                          QMF INSTALLATION DIALOGS
ISPF Command ===>
                  _


   QMF APPLICATION PLAN ID  ===> QMF310

   QMF CATALOG ALIAS        ===> DSNQMF

   QMF TABLES VOLUME        ===> XDB001











   PRESS:  ENTER to continue    PF13 for help    PF03  to end





                          QMF INSTALLATION DIALOGS
ISPF Command ===>
                  _

   DB2 LOAD LIBRARY         ===> DSN.DSNLOAD

   DB2 RELEASE LEVEL        ===> 23          ('21'=V2R1,'22'=V2R2,'23'=V

   DB2 SUBSYSTEM ID         ===> DSN

   DB2 USER CATALOG (ICF)   ===> CATALOG.PRODUCTS

   USER CATALOG PASSWORD    ===>

   TABLESPACE PASSWORD      ===>                    (For QMF control tab
     (VSAM)
   DB2 LOCATION NAME        ===>                    (DB2 V2R2 installs o

   DB2 DEFAULT PUNCTUATION  ===> .                  (',' OR '.')
     CHARACTER

   PRESS:  ENTER to continue    PF13 for help    PF03  to end





                          QMF INSTALLATION DIALOGS
ISPF Command ===>
                  _

   Modify the Job cards below to represent your installation requirement
   The "USER" and "PASSWORD" parameters must be specified in systems usi
   RACF. Use a userid with the appropriate authority for the database. S
   the "QUERY MANAGEMENT FACILITY: INSTALLATION GUIDE FOR MVS" publicati
   for more detail.


   If you will be performing the installation in foreground and do not w
   the JCL files to be tailored, enter an 'X' here.  ===>


   JOB STATEMENT INFORMATION:
   ===> //DD20010  JOB (A006,SYTM),'10DB2PXS',
   ===> //             CLASS=L,MSGCLASS=X
   ===> //*
   ===> /*JOBPARM  SYSAFF=DOFD

   PRESS:  ENTER to continue    PF13 for help    PF03  to end





                          QMF INSTALLATION DIALOGS
ISPF Command ===>
                  _




   Currently working on installation into DB2 subsystem DB2M

   You can now re-specify the install parameters, tailor the installatio
   files, install QMF with the tailored files in foreground, quit and ru
   the tailored install files in batch, or quit and return here later.


   ENTER CHOICE HERE        ===> T              ("P" - INPUT PARAMETERS,
                                                 "T" - TAILOR INSTALL FI
                                                 "I" - INSTALL IN FOREGR




   PRESS:  ENTER to continue    PF13 for help    PF03  to end



-------- ------- -------- ----- ----------------------------------------
Soppitt  DD20010 08/25/92       Install. verification jobs executed. See
                                'XDBS.DSN.CNTL($INDEX)' for details.
-------- ------- -------- ----- ----------------------------------------
Soppitt  DD20010 08/21/92 17:30 Installation jobs executed. Image-copy
                                taken of migrated Dircty/Catlg.
-------- ------- -------- ----- ----------------------------------------
Soppitt  DD20010 08/21/92 14:46 SOFTWARE WAS IMPLEMENTED FROM THE TARGET
                                ZONE TDSN, DSN.TARGET.*, TO THE
                                ACTIVE ZONE DSN, DSN.*
-------- ------- -------- ----- ----------------------------------------
Soppitt  DD20010 08/20/92 16:00 Installation clist, INVKDSNT, was run
                                (via %XDBSALC) against the target zone,
                                DSN.TARGET, to migrate to V2.3.
                                Panel values given below:-



 DSNTIPA1            INSTALL, UPDATE, AND MIGRATE DB2 - MAIN PANEL
 ===>
      _

 Check parameters and reenter to change:

  1  INSTALL TYPE         ===> MIGRATE   Install, Update, or Migrate

 Enter the following 2 values for migration only
  2  FROM RELEASE         ===> 2.2       1.3 or 2.2
  3  DATA SET NAME(MEMBER)===> XDBS.DSNTID.SOURCE(DSNTIDDS)

 Enter name of your input data sets (DSNLOAD, DSNMACS, DSNSAMP, DSNCLIST
  4  PREFIX               ===> DSN.TARGET
  5  SUFFIX               ===>

 Enter to set or save panel values (by reading or writing the named memb
  6  INPUT MEMBER NAME    ===> DSNTIDXA  Enter to read old panel values
  7  OUTPUT MEMBER NAME   ===> DSNTIDDS  Enter to write new panel values




 PRESS:  ENTER to continue   RETURN to exit   HELP for more information



 DSNTIPA2        MIGRATE DB2 - DATA PARAMETERS
 ===>
      _

 Check parameters and reenter to change:

  1  CATALOG ALIAS       ===> DSNC220               Alias of MVS catalog
                                                    DB2 subsystem data s
  2  DEFINE CATALOG      ===> NO                    YES or NO
  3  VOLUME SERIAL 1     ===> XDB001                CLIST allocation
  4  VOLUME SERIAL 2     ===> XDB001                Non-VSAM data
  5  VOLUME SERIAL 3     ===> DDBS01                Default, temporary d
  6  VOLUME SERIAL 4     ===>                       Directory, catalog d
  7  VOLUME SERIAL 5     ===>                       Directory, catalog i
  8  VOLUME SERIAL 6     ===>                       Log copy 1, BSDS 2
  9  VOLUME SERIAL 7     ===>                       Log copy 2, BSDS 1
 10  PERMANENT UNIT NAME ===> 3390                  Device type for MVS
                                                    and partitioned data
 11  TEMPORARY UNIT NAME ===> SYSDA                 Device type for
                                                    temporary data sets



 PRESS:  ENTER to continue   RETURN to exit   HELP for more information



 DSNTIPH         MIGRATE DB2 - SYSTEM RESOURCE DATA SET NAMES
 ===>
      _

 Enter data below:

 Bootstrap Data Sets (BSDS):
   1 COPY 1 NAME         ===> DSNC220.BSDS01
   2 COPY 2 NAME         ===> DSNC220.BSDS02

 Active Logs:
   3 NUMBER OF COPIES    ===> 2        2 or 1.  Number of active log cop
   4 COPY 1 PREFIX       ===> DSNC220.LOGCOPY1
   5 COPY 2 PREFIX       ===> DSNC220.LOGCOPY2

 Archive Logs:
   6 NUMBER OF COPIES    ===> 2        2 or 1.  Number of archive log co
   7 COPY 1 PREFIX       ===> DSNC220.ARCHLOG1
   8 COPY 2 PREFIX       ===> DSNC220.ARCHLOG2
   9 TIMESTAMP ARCHIVES  ===> NO       YES or NO



 PRESS:  ENTER to continue   RETURN to exit   HELP for more information



 DSNTIPT         MIGRATE DB2 - DATA SET NAMES PANEL 1
 ===>
      _

 Data sets allocated by the installation CLIST for edited output:
   1  TEMP CLIST LIBRARY ===> DSN.TARGET.NEW.DSNTEMP
   2  CLIST LIBRARY      ===> DSN.TARGET.NEW.DSNCLIST
   3  SAMPLE LIBRARY     ===> DSN.TARGET.NEW.DSNSAMP

 Data sets allocated by the installation jobs:
   4  DBRM LIBRARY       ===> DSN.TARGET.DBRMLIB.DATA
   5  APPLICATION LOAD   ===> DSN.TARGET.RUNLIB.LOAD
   6  DECLARATION LIBRARY===> DSN.TARGET.SRCLIB.DATA

 Data sets allocated by SMP/E and other methods:
   7  LINK LIST LIBRARY  ===> DSN.TARGET.DSNLINK
   8  LOAD LIBRARY       ===> DSN.TARGET.DSNLOAD
   9  MACRO LIBRARY      ===> DSN.TARGET.DSNMACS
  10  LOAD DISTRIBUTION  ===> DSN.TARGET.DSNALOAD
  11  EXIT LIBRARY       ===> DSN.TARGET.DSNEXIT



 PRESS:  ENTER to continue   RETURN to exit   HELP for more information



 DSNTIPU         MIGRATE DB2 - DATA SET NAMES PANEL 2
 ===>
      _

 Enter data set names below:
  1  ASSEMBLER            ===>
  2  C COMPILER           ===> EDC.V1R1M1.SEDCCOMP
  3  C COMPILER MESSAGES  ===> EDC.V1R1M1.SEDCMSGS
  4  C LIBRARY HEADERS    ===> EDC.V1R1M1.SEDCHDRS
  5  C LINK EDIT STUBS    ===> EDC.V1R1M1.SEDCBASE
  6  C DYNAMIC RUNTIME    ===> EDC.V1R1M1.SEDCLINK
  7  COBOL COMPILER       ===>
  8  COBOL LINK EDIT      ===> SYS1.COBLIB
  9  VS COBOL II COMPILER ===>
 10  VS COBOL II LINK     ===> SYS1.COB2LIB
 11  COMMON LINK EDIT     ===> PLI.V2R2M0.SIBMBASE
 12  COMMON DYNAMIC       ===> PLI.V2R2M0.SIBMLINK
 13  FORTRAN COMPILER     ===> SYS1.VSF2COMP
 14  FORTRAN LINK EDIT    ===> SYS1.VSF2FORT
 15  PL/I COMPILER        ===> PLI.V2R2M0.PLICOMP
 16  PL/I LINK EDIT       ===> PLI.V2R2M0.PLIBASE


 PRESS:  ENTER to continue   RETURN to exit   HELP for more information



 DSNTIPW         MIGRATE DB2 - DATA SET NAMES PANEL 3
 ===>
      _

 Enter data set names below:
  1  SYSTEM MACLIB        ===> SYS1.MACLIB
  2  SYSTEM PROCEDURES    ===> DSN220.INSTALL.PROCLIB
  3  SORT LIBRARY         ===> SYS1.SORTLIB
  4  IMS RESLIB           ===> DSN.TARGET.RLRESLIB
  5  ISPF ISPLINK MODULE  ===> ISP.ISPLOAD













 PRESS:  ENTER to continue   RETURN to exit   HELP for more information



 DSNTIPV         MIGRATE DB2 - CICS
 ===>
      _

 Enter data below:

  1 CICS RELEASE         ===> 2         0 = not using CICS
                                        1 = CICS/OS/VS 1.7.0
                                        2 = CICS/MVS 2.1
                                        3 = CICS/ESA 3.1.1 or 3.2

  2 CICS COBOL LIBRARY   ===> XCICS.TC212D3.COBLIB
  3 CICS COBOL II LIBRARY===> SYS1.COB2CICS
  4 CICS PL/I  LIBRARY   ===> XCICS.TC212D3.PL1LIB
  5 CICS LOADLIB         ===> XCICS.TC212D3.LOADLIB

 The following fields are required if option 3 was selected in field 1;
 they are optional if option 2 was selected in field 1:
  6 CSD NAME (FOR RDO)   ===>
  7 GROUP NAME           ===>           CICS RDO group name
  8 NEW GROUP            ===>           YES or NO
  9 LIST NAME            ===>           CICS RDO list name

 PRESS:  ENTER to continue   RETURN to exit   HELP for more information



 DSNTIPD         MIGRATE DB2 - SIZES
 ===>
      _

 Check numbers and reenter to change:

  1  DATABASES          ===> 200        In this subsystem
  2  TABLES             ===> 10         Per database (average)
  3  COLUMNS            ===> 10         Per table (average)
  4  VIEWS              ===> 3          Per table (average)
  5  TABLE SPACES       ===> 10         Per database (average)
  6  PLANS              ===> 200        In this subsystem
  7  PLAN STATEMENTS    ===> 30         SQL statements per plan (average
  8  PACKAGES           ===> 300        In this subsystem
  9  PACKAGE STATEMENTS ===> 10         SQL statements per package (aver
 10  PACKAGE LIST SIZE  ===> 2          Package lists per plan (average)
 11  EXECUTED STMTS     ===> 15         SQL statements executed (average
 12  TABLES IN STMT     ===> 2          Tables per SQL statement (averag
 13  TEMP 4K SPACE      ===> 16777216   Bytes of 4K-page work space
 14  TEMP 4K DATA SETS  ===> 1          Number of data sets for 4K data
 15  TEMP 32K SPACE     ===> 4194304    Bytes of 32K-page work space
 16  TEMP 32K DATA SETS ===> 1          Number of data sets for 32K data

 PRESS:  ENTER to continue   RETURN to exit   HELP for more information



 DSNTIPE         MIGRATE DB2 - STORAGE SIZES
 ===>
      _

 Check numbers and reenter to change:

  1  DATABASES         ===> 60         Concurrently in use
  2  MAX USERS         ===> 30         Concurrently running in DB2
  3  MAX REMOTE        ===> 0          Remotely accessing data in DB2
  4  MAX TSO CONNECT   ===> 100        Users on QMF or in DSN command
  5  MAX BATCH CONNECT ===> 20         Users in DSN command or utilities
  6  MIN BP0 BUFFERS   ===> 4000       Minimum number of buffers in BP0
  7  MAX BP0 BUFFERS   ===> 4000       Maximum number of buffers in BP0
  8  MIN BP1 BUFFERS   ===> 0          Minimum number of buffers in BP1
  9  MAX BP1 BUFFERS   ===> 0          Maximum number of buffers in BP1
 10  MIN BP2 BUFFERS   ===> 0          Minimum number of buffers in BP2
 11  MAX BP2 BUFFERS   ===> 0          Maximum number of buffers in BP2
 12  MIN BP32K BUFFERS ===> 384        Minimum number of buffers in BP32
 13  MAX BP32K BUFFERS ===> 384        Maximum number of buffers in BP32




 PRESS:  ENTER to continue   RETURN to exit   HELP for more information



 DSNTIPN         MIGRATE DB2 - TRACING
 ===>
      _

 Enter data below:

  1  AUDIT TRACE      ===> NO          Audit classes to start. NO,YES,li

  2  TRACE AUTO START ===> NO          Global classes to start. YES, NO,
  3  TRACE SIZE       ===> 65536       Trace table size in bytes.  4K-39

  4  SMF ACCOUNTING   ===> 1           Accounting classes to start. NO,Y
  5  SMF STATISTICS   ===> 1           Statistics classes to start. NO,Y
  6  STATISTICS TIME  ===> 30          Time interval in minutes.  1-1440

  7  MONITOR TRACE    ===> NO          Monitor classes to start. NO, YES
  8  MONITOR SIZE     ===> 8192        Default monitor buffer size. 8K-1

  9  CHECKPOINT FREQ  ===> 1000        Number of log records per checkpo




 PRESS:  ENTER to continue   RETURN to exit   HELP for more information



 DSNTIPO         MIGRATE DB2 - OPERATOR FUNCTIONS
 ===>
      _

 Enter data below:

  1  WTO ROUTE CODES    ===> 1
                                        Routing codes for WTORs
  2  RECALL DATABASE    ===> YES        Use DFHSM automatic recall. YES
  3  RECALL DELAY       ===> 120        Seconds to wait for automatic re

  4  RLF AUTO START     ===> NO         Resource Limit Facility.  NO or
  5  RLST NAME SUFFIX   ===> 01         Resource Limit Spec. Table (RLST
  6  RLST ACCESS ERROR  ===> NOLIMIT    Action on RLST access error. Val
                                        NOLIMIT - Run without limit
                                        NORUN   - Do not run at all
                                        1-5000000 - Limit in CPU service

  7  DSNZPARM NAME      ===> DSNZPARM   Enter name of new DB2 parameter
  8  AUTO BIND          ===> YES        Use automatic bind. YES or NO
  9  SITE TYPE          ===> LOCALSITE    LOCALSITE or RECOVERYSITE


 PRESS:  ENTER to continue   RETURN to exit   HELP for more information



 DSNTIPF         MIGRATE DB2 - APPLICATION PROGRAMMING DEFAULTS
 ===>
      _

 Enter data below:

  1  LANGUAGE DEFAULT     ===> COB2     ASM, ASMH, C, COBOL, COB2, FORTR
  2  DECIMAL POINT IS     ===> .        . or ,
  3  MINIMUM DIVIDE SCALE ===> NO       NO or YES for a minimum of 3 dig
                                        to right of decimal after divisi
  4  STRING DELIMITER     ===> DEFAULT  DEFAULT, " or ' (COBOL or COB2 o
  5  SQL STRING DELIMITER ===> DEFAULT  DEFAULT, " or '
  6  MIXED DATA           ===> NO       NO or YES for mixed DBCS data
  7  CODED CHARACTER SET  ===> 37       The CCSID of your SBCS or mixed
  8  DATE FORMAT          ===> ISO      ISO, JIS, USA, EUR, LOCAL
  9  TIME FORMAT          ===> ISO      ISO, JIS, USA, EUR, LOCAL
 10  LOCAL DATE LENGTH    ===> 0        0 (no exit), or value between 10
 11  LOCAL TIME LENGTH    ===> 0        0 (no exit), or value between  8
 12  STD SQL LANGUAGE     ===> NO       NO or 86
 13  DECIMAL ARITHMETIC   ===> DEC15    DEC15, DEC31, 15, 31



 PRESS:  ENTER to continue   RETURN to exit   HELP for more information



 DSNTIPI         MIGRATE DB2 - IRLM PANEL 1
 ===>
      _

 Enter data below:

  1  INSTALL IRLM       ===> YES        IRLM is required for DB2. Should
                                        IRLM distributed with DB2 be ins
  2  SUBSYSTEM NAME     ===> IRLM       IRLM MVS subsystem name
  3  RESOURCE TIMEOUT   ===> 60         Seconds to wait for unavailable
  4  TIME INTERVAL      ===> 500        Milliseconds between lock proces
  5  AUTO START         ===> YES        Start IRLM if not up. YES or NO
  6  PROC NAME          ===> IRLMPROC   Name of start procedure for IRLM
  7  TIME TO AUTOSTART  ===> 300        Time DB2 will wait for IRLM auto









 PRESS:  ENTER to continue   RETURN to exit   HELP for more information



 DSNTIPJ         MIGRATE DB2 - IRLM PANEL 2
 ===>
      _

 Enter data below:

  1  CROSS MEMORY           ===> NO        Local storage and cross memor
  2  MAXIMUM ECSA           ===> 5242880   Control block storage (1M - 9
  3  LOCKS PER TABLE(SPACE) ===> 1000      Maximum before lock escalatio
  4  LOCKS PER USER         ===> 10000     Maximum before resource unava
  5  PARTNER                ===>           VTAM name of other IRLM.  Req
                                           for intersystem communication
  6  IDENTIFIER             ===> 2         Number for this IRLM (1-8)
  7  DEADLOCK TIME          ===> 15        Detection interval in seconds
  8  DEADLOCK CYCLE         ===> 4         Number of LOCAL cycles before
  9  INTERNAL TRACE         ===> NO        Automatic start of tracing







 PRESS:  ENTER to continue   RETURN to exit   HELP for more information



 DSNTIPP         MIGRATE DB2 - PROTECTION
 ===>
      _

 Enter data below:

  1  MVS CATALOG       ===>            MVS catalog control password
  2  BSDS PASSWORD     ===>            Bootstrap data sets password
  3  LOG PASSWORD      ===>            Active log data sets password
  4  ARCHIVE LOG PW    ===>            Archive log data sets password
  5  ARCHIVE LOG RACF  ===> NO         RACF protect archive log data set
  6  DIRECTORY/CATALOG ===>            DB2 directory and catalog passwor
  7  USE PROTECTION    ===> YES        DB2 authorization enabled.  YES o
  8  SYSTEM ADMIN 1    ===> DD20010    Authid of system administrator
  9  SYSTEM ADMIN 2    ===> DD20002    Authid of system administrator
 10  SYSTEM OPERATOR 1 ===> SYSOPR     Authid of system operator
 11  SYSTEM OPERATOR 2 ===> OPERUSR    Authid of system operator
 12  UNKNOWN AUTHID    ===> IBMUSER    Authid of default (unknown) user
 13  RESOURCE AUTHID   ===> SYSIBM     Authid of Resource Limit Table cr




 PRESS:  ENTER to continue   RETURN to exit   HELP for more information



 DSNTIPM         MIGRATE DB2 - MVS PARMLIB UPDATES
 ===>
      _

 Check data and reenter to change:

  1  SUBSYSTEM NAME      ===> DSN        Name for connecting to DB2
  2  SUBSYSTEM PREFIX    ===> -          One character to denote subsyst
  3  SUBSYSTEM MEMBER    ===> 00         xx in IEFSSNxx
  4  SUBSYSTEM SEQUENCE  ===> 88888888   Sequence number for insertion
  5  AUTH MEMBER         ===> 00         xx in IEAAPFxx APF member name
  6  AUTH SEQUENCE       ===> 88888888   Sequence number for insertion
  7  LINK LIST ENTRY     ===> 00         xx in LNKLSTxx for DSNLINK
  8  LINK LIST SEQUENCE  ===> 88888888   Sequence number for insertion









 PRESS:  ENTER to continue   RETURN to exit   HELP for more information



 DSNTIPL         MIGRATE DB2 - ACTIVE LOG DATA SET PARAMETERS
 ===>
      _

 Enter data below:

   1 NUMBER OF LOGS    ===> 3        Number data sets per active log cop
   2 INPUT BUFFER      ===> 28672    Size in bytes (28K-60K)
   3 OUTPUT BUFFER     ===> 409600   Size in bytes (40K-4000K)
   4 WRITE THRESHOLD   ===> 20       Buffers filled before write (1-256)
   5 ARCHIVE LOG FREQ  ===> 24       Hours per archive run
   6 UPDATE RATE       ===> 3600     Updates, inserts, and deletes per h











 PRESS:  ENTER to continue   RETURN to exit   HELP for more information



 DSNTIPA         MIGRATE DB2 - ARCHIVE LOG DATA SET PARAMETERS
 ===>
      _

 Enter data below:

   1  ALLOCATION UNITS ===> BLK       Blk, Trk, or Cyl
   2  PRIMARY QUANTITY ===>           Primary space allocation
   3  SECONDARY QTY.   ===>           Secondary space allocation
   4  CATALOG DATA     ===> NO        YES or NO to catalog archive data
   5  DEVICE TYPE      ===> TAPE3480  Unit name for archive logs
   6  BLOCK SIZE       ===> 28672     Rounded up to 4096 multiple
   7  MAX CONCURRENT   ===> 3         Number of input volumes allocated
   8  RECORDING MAX    ===> 500       Number of data sets recorded in BS
   9  MSVGP 1          ===>           Mass storage volume group (MSVGP)
  10  MSVGP 2          ===>           MSVGP for second archive copy
  11  WRITE TO OPER    ===> YES       Issue WTOR before mount for archiv
  12  WTOR ROUTE CODE  ===> 1,3,4
                                      Routing codes for archive WTORs
  13  RETENTION PERIOD ===> 9999      Days to retain archive log data se
  14  QUIESCE PERIOD   ===> 5         Maximum quiesce interval (1-999)
  15  COMPACT DATA     ===> NO        YES or NO for data compaction

 PRESS:  ENTER to continue   RETURN to exit   HELP for more information



 DSNTIPS         MIGRATE DB2 - DATABASES AND SPACES TO START AUTOMATICAL
 ===>
      _

 Enter data below:

  1  ===> RESTART       RESTART or DEFER the objects named below.
     The objects to restart or defer may be ALL in item 2, a database
     name, or database name.space name.

  2  ==> ALL               14  ==>                   26  ==>
  3  ==>                   15  ==>                   27  ==>
  4  ==>                   16  ==>                   28  ==>
  5  ==>                   17  ==>                   29  ==>
  6  ==>                   18  ==>                   30  ==>
  7  ==>                   19  ==>                   31  ==>
  8  ==>                   20  ==>                   32  ==>
  9  ==>                   21  ==>                   33  ==>
 10  ==>                   22  ==>                   34  ==>
 11  ==>                   23  ==>                   35  ==>
 12  ==>                   24  ==>                   36  ==>
 13  ==>                   25  ==>                   37  ==>

 PRESS:  ENTER to continue   RETURN to exit   HELP for more information



 DSNTIPR         MIGRATE DB2 - DISTRIBUTED DATA FACILITY
 ===>
      _

 Enter data below:

  1 DDF STARTUP OPTION   ===> COMMAND   NO (DDF not startable),
                                        AUTO (automatic start up), or
                                        COMMAND (start by command)
  2 DB2 LOCATION NAME    ===> DOFEDSN           The name other DB2s use
                                                refer to this DB2
  3 DB2 NETWORK LUNAME   ===> DOFEDSN   The name VTAM uses to refer to t
  4 DB2 NETWORK PASSWORD ===> DOFEDSN   Password for connecting to other
  5 RLST ACCESS ERROR    ===> NOLIMIT   Action on non-local RLST access
                                        NOLIMIT   - Run without limit
                                        NORUN     - Do not run at all
                                        1-5000000 - Limit in CPU service






 PRESS:  ENTER to continue   RETURN to exit   HELP for more information



 DSNTIPZ         MIGRATE DB2 - DATA DEFINITION CONTROL SUPPORT
 ===>
      _

 Enter data below:

  1 INSTALL DD CONTROL SUPT. ===> NO        YES - activate the support
                                            NO  - omit DD control suppor
  2 CONTROL ALL APPLICATIONS ===> NO        YES or NO
  3 REQUIRE FULL NAMES       ===> YES       YES or NO
  4 UNREGISTERED DDL DEFAULT ===> ACCEPT    Action for unregistered DDL:
                                            ACCEPT - allow it
                                            REJECT - prohibit it
                                            APPL   - consult ART

  5 REGISTRATION OWNER       ===> DSNRGCOL          Qualifier for ART an
  6 REGISTRATION DATABASE    ===> DSNRGFDB          Database name
  7 APPL REGISTRATION TABLE  ===> DSN_REGISTER_APPL Table name
  8 OBJT REGISTRATION TABLE  ===> DSN_REGISTER_OBJT Table name

 Note: ART = Application Registration Table
       ORT = Object      Registration Table

 PRESS:  ENTER to continue   RETURN to exit   HELP for more information



 DSNTIPY         MIGRATE DB2 - JOB EDITING
 ===>
      _

 Enter data below:

  1  REMOTE LOCATION   ===>                  Remote location for COBOL
                                             organization application
  2  COBOL TYPE        ===> COB2             COBOL for sample applicatio
                                             (COBOL OR COB2)

 Enter job card information for install and sample jobs:

  3 ===>
  4 ===>
  5 ===>
  6 ===>






 PRESS:  ENTER to continue   RETURN to exit   HELP for more information



 DSNTIPC         MIGRATE DB2 - CLIST CALCULATIONS - PANEL 1
 ===>
      _

  You may update the EDMPOOL size if necessary.

    1  DSNT485I  EDMPOOL STORAGE SIZE    =     3462  K
    2  DSNT485I  BUFFER POOL SIZE        =    28288  K
    3  DSNT485I  SORT POOL SIZE          =     2828  K
    4  DSNT485I  RID POOL SIZE           =    14144  K
    5  DSNT485I  DATA SET STORAGE SIZE   =     2160  K
    6  DSNT485I  CODE STORAGE SIZE       =     4200  K
    7  DSNT485I  WORKING STORAGE SIZE    =     1500  K
    8  DSNT486I  TOTAL MAIN STORAGE      =    56582  K
    9  DSNT448I  RECOMMENDED REAL STORAGE=    49866  K
   10  DSNT487I  TOTAL STORAGE BELOW 16M =      690  K (WITH SWA ABOVE 1
   11  DSNT438I  WARNING,
                 IRLM LOCK MAXIMUM SPACE =    73242  K, AVAILABLE =



 PRESS:  ENTER to continue   RETURN to exit   HELP for more information



-------- ------- -------- ----- ----------------------------------------
SYSADM   DD20010 08/19/92 12:46 TDSN, WAS CLONED FROM A LEVEL 6
                                TV2R3 ZONE VIA IMPLEMENTATION DIALOG
-------- ------- -------- ----- ----------------------------------------
TOMIAK   DD20008 08/18/92 16:01 TDSN, WAS CLONED FROM A LEVEL 3
                                DSN ZONE VIA IMPLEMENTATION DIALOG
-------- ------- -------- ----- ----------------------------------------
TOMIAK   DD20008 08/16/92 11:01 TDSN, WAS CLONED FROM A LEVEL 3
                                DSN ZONE VIA IMPLEMENTATION DIALOG
-------- ------- -------- ----- ----------------------------------------
SOPPITT  DD20010 06/05/92 15:30 RUN JOB DSN#EJ5P TO PREPARE SAMPLE CICS
                                PLI APPLICATION.
-------- ------- -------- ----- ----------------------------------------
SOPPITT  DD20010 06/05/92 14:15 RUN JOB DSN#EJ5C TO PREPARE SAMPLE CICS
                                COBOL APPLICATION.
-------- ------- -------- ----- ----------------------------------------
SOPPITT  DD20010 06/05/92 12:25 RUN JOB DSN#EJ2P TO COMPILE/LINK/RUN
                                SAMPLE PLI APPLICATION.
-------- ------- -------- ----- ----------------------------------------
SOPPITT  DD20010 06/05/92 11:15 RUN JOB DSN#EJ2C TO COMPILE/LINK/RUN
                                SAMPLE COBOL APPLICATION.
-------- ------- -------- ----- ----------------------------------------
SOPPITT  DD20010 06/05/92 10:50 RUN INSTALL JOB DSN#IJSG TO REBIND
                                DCLGEN PLAN ONLY (SQLCODE -818 WHEN
                                USED - DONT KNOW HOW THE PLAN/PGM GOT
                                OUT OF SYNC.)
-------- ------- -------- ----- ----------------------------------------
SOPPITT  DD20010 06/04/92 14:40 RUN JOB DSN#EJ1 TO INSTALL (RE-INSTALL?)
                                SAMPLE OBJECTS IN DB2.
-------- ------- -------- ----- ----------------------------------------
SOPPITT  DD20001 06/02/92 17:00 COPY JOB 'DSN220.DSNSAMP(DSNCIJSU)' TO
                                'XDBS.INSTALL.CNTL(DSN#CJSU), CUSTOMIZE
                                AND EXECUTE (RE-LINK CICS ATTACHMENT
                                MODULES).
-------- ------- -------- ----- ----------------------------------------
SOPPITT  DCI0003 06/02/92 16:00 ASSEMBLE DSNCRCT# WITH NEW MAINT. FOR
                                CICSTTOR/DSN CONNECTION.
-------- ------- -------- ----- ----------------------------------------
SOPPITT  DD20010 05/29/92 16:30 EXECUTE RUNSTATS UTILITY ON DSN CATLG
                                TABLESPACES.
-------- ------- -------- ----- ----------------------------------------
SOPPITT  DD20010 05/29/92 16:20 COPY JOB 'DSN220.DSNMACS(DSNQRCLS)' TO
                                'XDBS.INSTALL.CNTL(DSN#RCLS), CUSTOMIZE
                                AND EXECUTE (RECLUSTER CATLG TBLSPCS).
-------- ------- -------- ----- ----------------------------------------
SOPPITT  DD20010 05/28/92 14:52 SOFTWARE WAS IMPLEMENTED FROM THE TARGET
                                ZONE TDSN, DSN220.TARGET.*, TO THE
                                ACTIVE ZONE DSN, DSN220.*
-------- ------- -------- ----- ----------------------------------------
SOPPITT  DD20010 05/28/92 14:12 TDSN, WAS CLONED FROM A LEVEL 3
                                TDBST ZONE VIA IMPLEMENTATION DIALOG
-------- ------- -------- ----- ----------------------------------------
-------- ------- -------- ----- ----------------------------------------
./ ADD NAME=DV2R3    0107-92154-94006-0819-00048-00024-00000-DD20008
************************************************************************
*****                                                              *****
*****                 DATA BASE                                    *****
*****       SINGLE SYSTEM IMAGE DLIB CHANGE LOG                    *****
*****                                                              *****
************************************************************************

NAME     USERID  DATE     TIME  DESCRIPTION OF CHANGE
-------- ------- -------- ----- ----------------------------------------
TOMIAK   KETCSC  01/06/94 08:15
                                PROJECT: F94625
                                FINALLY DELETED DSNAHELP
-------- ------- -------- ----- ----------------------------------------
-------LEVEL-07------------------------------------LEVEL-07-------------
-------LEVEL-07------------------------------------LEVEL-07-------------
-------LEVEL-07------------------------------------LEVEL-07-------------
-------- ------- -------- ----- ----------------------------------------
TOMIAK   KETCSC  06/08/93 17:37 XDBS.INSTALL.CNTL(SMPEACPT)
                                PROJECT: DB2320
                                ACCEPT ALL APPLIED MAINTENANCE AND
                                FUNCTIONS.
-------- ------- -------- ----- ----------------------------------------
-------LEVEL-06------------------------------------LEVEL-06-------------
-------LEVEL-06------------------------------------LEVEL-06-------------
-------LEVEL-06------------------------------------LEVEL-06-------------
-------- ------- -------- ----- ----------------------------------------
-------- ------- -------- ----- ----------------------------------------
BORGES   BORGY   01/07/93 17:01 DELETED THE DB2PM PRODUCT FROM
                                THIS ZONE ALONG WITH THE ASSOCIATED
                                DDDEFS.
-------- ------- -------- ----- ----------------------------------------
BORGES   BORGY   01/05/93 14:20 DELETED THE DXT PRODUCT FROM
                                THIS ZONE ALONG WITH THE ASSOCIATED
                                DDDEFS.
-------- ------- -------- ----- ----------------------------------------
-------LEVEL-05------------------------------------LEVEL-05-------------
-------LEVEL-05------------------------------------LEVEL-05-------------
-------LEVEL-05------------------------------------LEVEL-05-------------
-------- ------- -------- ----- ----------------------------------------
BORGES   BORGY   05/29/92 14:16 ACCEPTED THE DB2 V2.3 BASE PRODUCT AND
                                PRE-CONDITIONING PTFS FROM THE
                                TV2R3 ZONE; (XDBS.V2R3.TARGET.*)
-------- ------- -------- ----- ----------------------------------------
-------- ------- -------- ----- ----------------------------------------
-------LEVEL-04------------------------------------LEVEL-04-------------
-------LEVEL-04------------------------------------LEVEL-04-------------
-------LEVEL-04------------------------------------LEVEL-04-------------
-------- ------- -------- ----- ----------------------------------------
./ ADD NAME=DYNBKUP  0101-92344-93230-0829-00061-00055-00008-DD20008
************************************************************************
*****                                                              *****
*****                    DATA BASE                                 *****
*****                  DYNBKUP to create IMAGCOPY JCL              *****
*****                                                              *****
************************************************************************

  NAME     ID      DATE   TIME  DESCRIPTION OF CHANGE
-------- ------- -------- ----- ----------------------------------------
Tomiak   DD20008 08/18/93 08:30 XDBS.DB2X.CNTL(DYNBIND)
                                BIND IMAGSQL plan
-------- ------- -------- ----- ----------------------------------------
Tomiak   DD20008 08/18/93 08:20 XDBS.INSTALL.CNTL(DYNIMG)
                                Copy to DB2X
-------- ------- -------- ----- ----------------------------------------
Tomiak   KETCSC  12/10/92 16:00 XDBS.DYNBKUP.SOURCE($BIND)
                                BIND IMAGSQL in DDB2, DSN, PDB2.
-------- ------- -------- ----- ----------------------------------------
-------- ------- -------- ----- ----------------------------------------
Tomiak   KETCSC  12/09/92 11:00 XDBS.DYNBKUP.SOURCE($BIND)
                                BIND IMAGSQL in D1DB, D2DB, P1DB,
                                and DB2M.
-------- ------- -------- ----- ----------------------------------------
Tomiak   KETCSC  12/09/92 11:15 XDBS.DYNBKUP.SOURCE(MIGDOF)
                                Migrate DBRMLIB to DDB2, DSN, PDB2,
                                and DB2X.
-------- ------- -------- ----- ----------------------------------------
Tomiak   KETCSC  12/09/92 11:00 XDBS.DYNBKUP.SOURCE(MIGCSC)
                                Migrate DBRMLIB to D1DB, D2DB, P1DB,
                                and DB2M.
-------- ------- -------- ----- ----------------------------------------
-------- ------- -------- ----- ----------------------------------------
Tomiak   KETCSC  12/08/92 11:15 XDBS.DYNBKUP.SOURCE(MIGDOF)
                                Migrate LOADLIB to DDB2, DSN, PDB2,
                                and DB2X.
-------- ------- -------- ----- ----------------------------------------
Tomiak   KETCSC  12/08/92 11:15 XDBS.DYNBKUP.SOURCE(MIGCSC)
                                Migrate LOADLIB to D1DB, D2DB, P1DB,
                                and DB2M.
-------- ------- -------- ----- ----------------------------------------
Tomiak   KETCSC  12/08/92 11:00 XDBS.DYNBKUP.SOURCE(IMAGJCL)
                                Remove QUIESCE from utility step.
-------- ------- -------- ----- ----------------------------------------
-------- ------- -------- ----- ----------------------------------------
Tomiak   DMV0016 01/01/91 08:00 XDBS.INSTALL.CNTL($COB2)
                                COMPILE, LINK IMAGJCL
-------- ------- -------- ----- ----------------------------------------
Tomiak   DMV0016 01/01/91 08:00 XDBS.INSTALL.CNTL($COB2)
                                COMPILE, LINK IMAGEXTR
-------- ------- -------- ----- ----------------------------------------
Tomiak   DMV0016 01/01/91 08:00 XDBS.INSTALL.CNTL($DSNHCB2)
                                PRECOMPILE, COMPILE, LINK IMAGSQL
-------- ------- -------- ----- ----------------------------------------
Tomiak   DMV0016 01/01/91 08:00 XDBS.INSTALL.CNTL($ASM)
                                Assemble USERABND subroutine
-------- ------- -------- ----- ----------------------------------------
************************************************************************
************************************************************************
***    USE TOP-DOWN APPROACH - ADD NEW ENTRIES TO TOP OF MEMBER!!    ***
************************************************************************
************************************************************************
./ ADD NAME=D1DB     0153-91311-94010-0930-01159-00021-00000-PETE
************************************************************************
*****                                                              *****
*****                    DATA BASE                                 *****
*****       CDCSA Development 1                                    *****
*****                                                              *****
************************************************************************

  NAME     ID      DATE   TIME  DESCRIPTION OF CHANGE
-------- ------- -------- ----- ----------------------------------------
WESTON 4 DB2CSC  01/09/94 12:30 Project: F94625
                                Rebind SPUFI, CATVBIS, DSNTEP2 plans,
                                BIND QMF311 packages/plans as part of
                                level-15 maintenance.
-------- ------- -------- ----- ----------------------------------------
WESTON 4 LAWCSC  01/09/94 12:30 Project: F94625
                                CHREQ# 32647
                                SOFTWARE WAS IMPLEMENTED FROM THE TARGET
                                ZONE TD1DB, D1DB.TARGET.*, TO THE
                                ACTIVE ZONE D1DB, D1DB.*
-------- ------- -------- ----- ----------------------------------------
SOPPITT  PETE    01/07/94 13:32 Project: F94625
                                product: DB2
                                TD1DB, WAS CLONED FROM A LEVEL 15
                                DB2M ZONE VIA IMPLEMENTATION DIALOG
-------- ------- -------- ----- ----------------------------------------
SOPPITT  PETE    01/07/94 13:26 Project: F94625
                                TAPE ARCHIVE OF BD1DB WAS CREATED.
                                OUTPUT TAPE DSN = D1DB.BACKUP.LVL11
-------- ------- -------- ----- ----------------------------------------
TOMIAK 2 KETCSC  12/22/93 11:44 Project: DB2???
                                product: DB2GRP
                                D1DB, WAS CLONED FROM A LEVEL
                                XDBS ZONE VIA IMPLEMENTATION DIALOG
-------- ------- -------- ----- ----------------------------------------
LOVARI   MJLCSC  11/02/93 09:07 Project: DB2???
                                CHREQ# 00000
                                SOFTWARE WAS IMPLEMENTED FROM THE TARGET
                                ZONE TD1DB, D1DB.TARGET.*, TO THE
                                ACTIVE ZONE D1DB, D1DB.*
-------- ------- -------- ----- ----------------------------------------
LOVARI   MJLCSC  11/02/93 08:59 Project: DB2???
                                TAPE ARCHIVE OF BD1DB WAS CREATED.
                                OUTPUT TAPE DSN = D1DB.BACKUP.LVL6
-------- ------- -------- ----- ----------------------------------------
LOVARI   MJLCSC  11/01/93 11:46 Project: DB2???
                                TD1DB, WAS CLONED FROM A LEVEL 13
                                DB2M ZONE VIA IMPLEMENTATION DIALOG
-------- ------- -------- ----- ----------------------------------------
Soppitt  PETE    07/30/93 14:30 Execute Install Clist to turn on ACCTG
                                Class-2 trace at subsystem start-up.
                                Asm/Link DSNZPARM using
                                    'XDBS.D1DB.CNTL(DSN3ZPRM)'
                                Old module renamed OLDZPARM on DSNEXIT.
-------- ------- -------- ----- ----------------------------------------
SOPPITT  PETE    07/04/93 09:46 Asm/Link authorization exits DSN3@ATH/
                                DSN3@SGN into D1DB.DSNEXIT
                              Source used from XDBS.V2R3.TARGET.DSNSAMP
                                Project: xxxxxx
-------- ------- -------- ----- ----------------------------------------
SOPPITT  DB2CSC  07/04/93 09:08 SYSADM privileges revoked from id SYSADM
                                BY PETE.
                                BINDAGENT revoked from id DB01HEU by
                                PSSUSER.
                                Project: HRAMIG
-------- ------- -------- ----- ----------------------------------------
SOPPITT  DB2CSC  07/02/93 16:30 Various privileges granted by DB2CSC to
/LOVARI                         HRA personnel in preparation to revoke
                                HRA Sysadm privilege.
                                Project: HRAMIG
-------- ------- -------- ----- ----------------------------------------
TOMIAK   KETCSC  06/13/93 10:21 SOFTWARE WAS IMPLEMENTED FROM THE TARGET
                                ZONE TD1DB, D1DB.TARGET.*, TO THE
                                ACTIVE ZONE D1DB, D1DB.*
                                Project: DB2F01
-------- ------- -------- ----- ----------------------------------------
TOMIAK   KETCSC  06/13/93 10:00 SYS2.PROCLIB()
                                Moved procedures to shared libarary
                                (D1DBDIST)
                                (D1DBDBM1)
                                (IRLMD1DB)
                                (D1DBMSTR) added STAT, BSDS, and backup
                                   steps.
                                Project: DB2???
-------- ------- -------- ----- ----------------------------------------
-------- ------- -------- ----- ----------------------------------------
SOPPITT  PETE    06/11/93 16:00 %invkdsnt
                                Project: DB2MON
                                DSNZPARM parameters updated as follows:-
                                LOGLOAD - 2000 (was 500)


                MIGRATE DB2 - TRACING
===>
     _

Enter data below:

 1  AUDIT TRACE      ===> NO          Audit classes to start. NO,YES,lis

 2  TRACE AUTO START ===> NO          Global classes to start. YES, NO,
 3  TRACE SIZE       ===> 65536       Trace table size in bytes.  4K-396

 4  SMF ACCOUNTING   ===> 1           Accounting classes to start. NO,YE
 5  SMF STATISTICS   ===> YES         Statistics classes to start. NO,YE
 6  STATISTICS TIME  ===> 30          Time interval in minutes.  1-1440

 7  MONITOR TRACE    ===> NO          Monitor classes to start. NO, YES,
 8  MONITOR SIZE     ===> 8192        Default monitor buffer size. 8K-1M

 9  CHECKPOINT FREQ  ===> 2000        Number of log records per checkpoi





-------- ------- -------- ----- ----------------------------------------
TOMIAK   KETCSC  06/10/93 21:35 TD1DB, WAS CLONED FROM A LEVEL 11
                                TV2R3 ZONE VIA IMPLEMENTATION DIALOG
-------- ------- -------- ----- ----------------------------------------
Tomiak   KETCSC  12/09/92 11:00 Moved new DYNBKUP and BIND imagsql.
-------- ------- -------- ----- ----------------------------------------
-------- ------- -------- ----- ----------------------------------------
TOMIAK   KETCSC  10/11/92 12:12 TD1DB, WAS CLONED FROM A LEVEL 7
                                TV2R3 ZONE VIA IMPLEMENTATION DIALOG
-------- ------- -------- ----- ----------------------------------------
TOMIAK   KETCSC  10/11/92 12:05 TD1DB, WAS CLONED FROM A LEVEL 7
                                TV2R3 ZONE VIA IMPLEMENTATION DIALOG
-------- ------- -------- ----- ----------------------------------------
TOMIAK   KETCSC  09/20/92 16:06 XDBS.D1DB.CNTL(DSN3EJ6)
                                DB2 V2R3 remote
-------- ------- -------- ----- ----------------------------------------
TOMIAK   KETCSC  09/20/92 15:56 XDBS.D1DB.CNTL(DSN3EJ5P)
                                DB2 V2R3 PL/I
-------- ------- -------- ----- ----------------------------------------
TOMIAK   KETCSC  09/20/92 15:38 XDBS.D1DB.CNTL(DSN3EJ5C)
                                DB2 V2R3 COBOL
-------- ------- -------- ----- ----------------------------------------
TOMIAK   KETCSC  09/20/92 15:34 XDBS.D1DB.CNTL(DSN3EJ3P)
                                DB2 V2R3 PL/I
-------- ------- -------- ----- ----------------------------------------
TOMIAK   KETCSC  09/20/92 15:31 XDBS.D1DB.CNTL(DSN3EJ3C)
                                DB2 V2R3 COBOL
-------- ------- -------- ----- ----------------------------------------
TOMIAK   KETCSC  09/20/92 15:25 XDBS.D1DB.CNTL(DSN3EJ2P)
                                DB2 V2R3 PL/I
-------- ------- -------- ----- ----------------------------------------
TOMIAK   KETCSC  09/20/92 15:22 XDBS.D1DB.CNTL(DSN3EJ2F)
                                DB2 V2R3 Fortran
-------- ------- -------- ----- ----------------------------------------
TOMIAK   KETCSC  09/20/92 15:12 XDBS.D1DB.CNTL(DSN3EJ2C)
                                DB2 V2R3 COBOL
-------- ------- -------- ----- ----------------------------------------
TOMIAK   KETCSC  09/20/92 15:07 XDBS.D1DB.CNTL(DSN3EJ2A)
                                DB2 V2R3 Assembler
-------- ------- -------- ----- ----------------------------------------
TOMIAK   KETCSC  09/20/92 15:00 XDBS.D1DB.CNTL(DSN3EJ1P)
                                DB2 V2R3 PL/1
-------- ------- -------- ----- ----------------------------------------
TOMIAK   KETCSC  09/20/92 14:41 XDBS.D1DB.CNTL(DSN3EJ1)
                                DB2 V2R3  samples
-------- ------- -------- ----- ----------------------------------------
TOMIAK   KETCSC  09/20/92 14:21 XDBS.D1DB.CNTL(DSN3EJ0)
                                clean up
-------- ------- -------- ----- ----------------------------------------
TOMIAK   KETCSC  09/20/92 14:17 XDBS.D1DB.CNTL(DSN#EJ3P)
                                DB2 V2R2 partial re-test
-------- ------- -------- ----- ----------------------------------------
TOMIAK   KETCSC  09/20/92 13:54 XDBS.D1DB.CNTL(DSN#EJ2P)
                                DB2 V2R2 partial re-test
-------- ------- -------- ----- ----------------------------------------
TOMIAK   KETCSC  09/20/92 13:52 XDBS.D1DB.CNTL(DSN#EJ2F)
                                DB2 V2R2 partial re-test
-------- ------- -------- ----- ----------------------------------------
TOMIAK   KETCSC  09/20/92 13:50 XDBS.D1DB.CNTL(DSN#EJ2C)
                                DB2 V2R2 partial re-test
-------- ------- -------- ----- ----------------------------------------
TOMIAK   KETCSC  09/20/92 13:45 XDBS.D1DB.CNTL(DSN#EJ2A)
                                DB2 V2R2 partial re-test
-------- ------- -------- ----- ----------------------------------------
TOMIAK   KETCSC  09/20/92 13:42 XDBS.D1DB.CNTL(DSN#EJ1P)
                                DB2 V2R2 partial re-test
-------- ------- -------- ----- ----------------------------------------
TOMIAK   KETCSC  09/20/92 13:38 XDBS.D1DB.CNTL(DSN#EJ1)
                                DB2 V2R2 partial re-test
-------- ------- -------- ----- ----------------------------------------
TOMIAK   KETCSC  09/20/92 13:02 Logon TSO and run interactive IVP
                                as defined in the book
-------- ------- -------- ----- ----------------------------------------
TOMIAK   KETCSC  09/20/92 13:01 XDBS.D1DB.CNTL(DSQ3EIVS)
                                Create sample tables for IVP
-------- ------- -------- ----- ----------------------------------------
TOMIAK   KETCSC  09/20/92 13:00 XDBS.D1DB.CNTL(DSQ3EDSJ)
                                Clean up early release IVP
-------- ------- -------- ----- ----------------------------------------
TOMIAK   KETCSC  09/20/92 12:59 XDBS.D1DB.CNTL(DSQ3QRY)
                                Check for tablespace.
-------- ------- -------- ----- ----------------------------------------
TOMIAK   KETCSC  09/20/92 12:53 XDBS.D1DB.CNTL(DSQ3BINJ)
                                Bind QMF310 again
-------- ------- -------- ----- ----------------------------------------
TOMIAK   KETCSC  09/20/92 12:50 XDBS.D1DB.CNTL(DSQ3TBJ2)
                                Create views on new DB2 catalog
-------- ------- -------- ----- ----------------------------------------
TOMIAK   KETCSC  09/20/92 12:47 XDBS.D1DB.CNTL(DSQ3BSQL)
                                Bind QMF310
-------- ------- -------- ----- ----------------------------------------
TOMIAK   KETCSC  09/20/92 12:20 Ex 'D1DB.DSQCLSTE(DSQ1EINS)' +
                                  'QMFPRE(D1DB)' see below

                          QMF INSTALLATION DIALOGS               INVALID
ISPF Command ===>
                  _

   INSTALL TYPE             ===> M              ("I"-INITIAL, when no pr
                                                     level of QMF exists
                                                     the system.
                                                 "M"-MIGRATION, when a p
                                                     level of QMF does e
                                                     in the system.

   SCOPE OF INSTALL         ===> FULL           ("F"-FULL, when this is
                                                     first QMF V3R1 inst
                                                 "D"-DB ONLY, when insta
                                                     QMF V3R1 into anoth
                                                     database.

   PREVIOUS QMF LEVEL       ===> V2R3           ("V2R2","V2R3","V2R4","V
     (MIGRATION INSTALLS ONLY)


   PRESS:  ENTER to continue    PF13 for help    PF15  to end



                          QMF INSTALLATION DIALOGS
ISPF Command ===>
                  _


   QMF APPLICATION PLAN ID  ===> QMF310

   QMF CATALOG ALIAS        ===> D1DB

   QMF TABLES VOLUME        ===> HRA002











   PRESS:  ENTER to continue    PF13 for help    PF15  to end



                          QMF INSTALLATION DIALOGS
ISPF Command ===>
                  _

   DB2 LOAD LIBRARY         ===> D1DB.DSNLOAD

   DB2 RELEASE LEVEL        ===> 23          ('21'=V2R1,'22'=V2R2,'23'=V

   DB2 SUBSYSTEM ID         ===> D1DB

   DB2 USER CATALOG (ICF)   ===> D1DB

   USER CATALOG PASSWORD    ===>

   TABLESPACE PASSWORD      ===>                    (For QMF control tab
     (VSAM)
   DB2 LOCATION NAME        ===>                    (DB2 V2R2 installs o

   DB2 DEFAULT PUNCTUATION  ===> .                  (',' OR '.')
     CHARACTER

   PRESS:  ENTER to continue    PF13 for help    PF15  to end



                          QMF INSTALLATION DIALOGS
ISPF Command ===> ;
                  _

   Modify the Job cards below to represent your installation requirement
   The "USER" and "PASSWORD" parameters must be specified in systems usi
   RACF. Use a userid with the appropriate authority for the database. S
   the "QUERY MANAGEMENT FACILITY: INSTALLATION GUIDE FOR MVS" publicati
   for more detail.


   If you will be performing the installation in foreground and do not w
   the JCL files to be tailored, enter an 'X' here.  ===>


   JOB STATEMENT INFORMATION:
   ===> //DB2CSCX  JOB (A006,SYTM,99,99),'10DB2GRP: MEMBER',
   ===> //          CLASS=V,MSGCLASS=V,MSGLEVEL=(1,1)
   ===> //* GENERATED BY DSQ1EINS CLIST
   ===> //*

   PRESS:  ENTER to continue    PF13 for help    PF15  to end



                          QMF INSTALLATION DIALOGS
ISPF Command ===>
                  _




   Currently working on installation into DB2 subsystem D1DB

   You can now re-specify the install parameters, tailor the installatio
   files, install QMF with the tailored files in foreground, quit and ru
   the tailored install files in batch, or quit and return here later.


   ENTER CHOICE HERE        ===> T              ("P" - INPUT PARAMETERS,
                                                 "T" - TAILOR INSTALL FI
                                                 "I" - INSTALL IN FOREGR




   PRESS:  ENTER to continue    PF13 for help    PF15  to end

-------- ------- -------- ----- ----------------------------------------
Tomiak   DB2CSC  09/20/92 12:47 XDBS.D1DB.CNTL(DSN3IJIC)
                                IMAGCOPY all catalog and directory.
-------- ------- -------- ----- ----------------------------------------
Tomiak   DB2CSC  09/20/92 11:50 XDBS.D1DB.CNTL(DSN3CHKR)
                                Check under V2R3.
-------- ------- -------- ----- ----------------------------------------
Tomiak   DB2CSC  09/20/92 11:36 XDBS.D1DB.CNTL(DSN3IJSG)
                                Bind SPUFI, DCLGEN, and other things.
-------- ------- -------- ----- ----------------------------------------
Tomiak   DB2CSC  09/20/92 11:32 XDBS.D1DB.CNTL(DSN3IJTM)
                                Bind DSNTIAD for installation.
-------- ------- -------- ----- ----------------------------------------
Tomiak   DB2CSC  09/20/92 11:25 XDBS.D1DB.CNTL(DSN3IJTC)
                                Tailor catalog with new columns
-------- ------- -------- ----- ----------------------------------------
Tomiak   DB2CSC  09/20/92 11:20 Start D1DB
-------- ------- -------- ----- ----------------------------------------
Tomiak   DB2CSC  09/20/92 11:18 XDBS.D1DB.CNTL(DSN3IJMV)
                                Copies PROCEDURES into
                                  D1DB.INSTALL.PROCLIB
-------- ------- -------- ----- ----------------------------------------
Tomiak   DB2CSC  09/20/92 11:07 XDBS.D1DB.CNTL(DSN3IJID)
                                Initializes new TABLES.
-------- ------- -------- ----- ----------------------------------------
Tomiak   DB2CSC  09/20/92 11:04 XDBS.D1DB.CNTL(DSN3IJIN)
                                Defines new TABLESPACES.
-------- ------- -------- ----- ----------------------------------------
Tomiak   DB2CSC  09/20/92 10:56 XDBS.D1DB.CNTL(DSN3IJUZ)
                                Assemble ZPARM, convert BSDS
-------- ------- -------- ----- ----------------------------------------
TOMIAK   KETCSC  09/20/92 10:55 SOFTWARE WAS IMPLEMENTED FROM THE TARGET
                                ZONE TD1DB, D1DB.TARGET.*, TO THE
                                ACTIVE ZONE D1DB, D1DB.*
-------- ------- -------- ----- ----------------------------------------
Tomiak   DB2CSC  09/20/92 10:55 Quiesce D1DB and IMPLEMENT using panels
-------- ------- -------- ----- ----------------------------------------
Tomiak   DB2CSC  09/20/92 10:40 XDBS.D1db.CNTL(DSN2IJIC)
                                IMAGCOPY catalog and directory
-------- ------- -------- ----- ----------------------------------------
Tomiak   DB2CSC  09/20/92 10:33 XDBS.D1DB.CNTL(DSN2CHKR)
                                Check catalog and directory
-------- ------- -------- ----- ----------------------------------------
-------- ------- -------- ----- ----------------------------------------
TOMIAK   KETCSC  09/18/92 23:50 ran invkdsnt: see below


                    INSTALL, UPDATE, AND MIGRATE DB2 - MAIN PANEL
===>
     _

Check parameters and reenter to change:

 1  INSTALL TYPE         ===> MIGRATE   Install, Update, or Migrate

Enter the following 2 values for migration only
 2  FROM RELEASE         ===> 2.2       1.3 or 2.2
 3  DATA SET NAME(MEMBER)===> D1DB.TARGET.DSNSAMP(DSNTIDD1)

Enter name of your input data sets (DSNLOAD, DSNMACS, DSNSAMP, DSNCLIST)
 4  PREFIX               ===> D1DB.TARGET
 5  SUFFIX               ===>

Enter to set or save panel values (by reading or writing the named membe
 6  INPUT MEMBER NAME    ===> DSNTIDXA  Enter to read old panel values
 7  OUTPUT MEMBER NAME   ===> DSNTIDD1  Enter to write new panel values






                MIGRATE DB2 - DATA PARAMETERS
===>
     _

Check parameters and reenter to change:

 1  CATALOG ALIAS       ===> D1DB                  Alias of MVS catalog
                                                   DB2 subsystem data se
 2  DEFINE CATALOG      ===> NO                    YES or NO
 3  VOLUME SERIAL 1     ===> HRA001                CLIST allocation
 4  VOLUME SERIAL 2     ===> XDB001                Non-VSAM data
 5  VOLUME SERIAL 3     ===> HRA003                Default, temporary da
 6  VOLUME SERIAL 4     ===> XDB001                Directory, catalog da
 7  VOLUME SERIAL 5     ===> HRA003                Directory, catalog in
 8  VOLUME SERIAL 6     ===> XDB001                Log copy 1, BSDS 2
 9  VOLUME SERIAL 7     ===> HRA003                Log copy 2, BSDS 1
10  PERMANENT UNIT NAME ===> 3390                  Device type for MVS c
                                                   and partitioned data
11  TEMPORARY UNIT NAME ===> SYSDA                 Device type for
                                                   temporary data sets





                MIGRATE DB2 - SYSTEM RESOURCE DATA SET NAMES
===>
     _

Enter data below:

Bootstrap Data Sets (BSDS):
  1 COPY 1 NAME         ===> D1DB.BSDS01
  2 COPY 2 NAME         ===> D1DB.BSDS02

Active Logs:
  3 NUMBER OF COPIES    ===> 2        2 or 1.  Number of active log copi
  4 COPY 1 PREFIX       ===> D1DB.LOGCOPY1
  5 COPY 2 PREFIX       ===> D1DB.LOGCOPY2

Archive Logs:
  6 NUMBER OF COPIES    ===> 2        2 or 1.  Number of archive log cop
  7 COPY 1 PREFIX       ===> D1DB.ARCHLOG1
  8 COPY 2 PREFIX       ===> D1DB.ARCHLOG2
  9 TIMESTAMP ARCHIVES  ===> YES      YES or NO





                MIGRATE DB2 - DATA SET NAMES PANEL 1
===>
     _

Data sets allocated by the installation CLIST for edited output:
  1  TEMP CLIST LIBRARY ===> D1DB.TARGET.NEW.DSNTEMP
  2  CLIST LIBRARY      ===> D1DB.TARGET.NEW.DSNCLIST
  3  SAMPLE LIBRARY     ===> D1DB.TARGET.NEW.DSNSAMP

Data sets allocated by the installation jobs:
  4  DBRM LIBRARY       ===> D1DB.TARGET.DBRMLIB.DATA
  5  APPLICATION LOAD   ===> D1DB.TARGET.RUNLIB.LOAD
  6  DECLARATION LIBRARY===> D1DB.TARGET.SRCLIB.DATA

Data sets allocated by SMP/E and other methods:
  7  LINK LIST LIBRARY  ===> D1DB.TARGET.DSNLINK
  8  LOAD LIBRARY       ===> D1DB.TARGET.DSNLOAD
  9  MACRO LIBRARY      ===> D1DB.TARGET.DSNMACS
 10  LOAD DISTRIBUTION  ===> D1DB.TARGET.DSNALOAD
 11  EXIT LIBRARY       ===> D1DB.TARGET.DSNEXIT





                MIGRATE DB2 - DATA SET NAMES PANEL 2
===>
     _

Enter data set names below:
 1  ASSEMBLER            ===> SYS1.LINKLIB
 2  C COMPILER           ===> EDC.V1R1M1.SEDCCOMP
 3  C COMPILER MESSAGES  ===> EDC.V1R1M1.SEDCMSGS
 4  C LIBRARY HEADERS    ===> EDC.V1R1M1.SEDCHDRS
 5  C LINK EDIT STUBS    ===> EDC.V1R1M1.SEDCBASE
 6  C DYNAMIC RUNTIME    ===> EDC.V1R1M1.SEDCLINK
 7  COBOL COMPILER       ===>
 8  COBOL LINK EDIT      ===> SYS1.COBLIB
 9  VS COBOL II COMPILER ===> SYS1.COB2COMP
10  VS COBOL II LINK     ===> SYS1.COB2LIB
11  COMMON LINK EDIT     ===> PLI.V2R2M0.SIBMBASE
12  COMMON DYNAMIC       ===> PLI.V2R2M0.SIBMLINK
13  FORTRAN COMPILER     ===>
14  FORTRAN LINK EDIT    ===> SYS1.VSF2FORT
15  PL/I COMPILER        ===> PLI.V2R2M0.PLICOMP
16  PL/I LINK EDIT       ===> PLI.V2R2M0.PLIBASE




                MIGRATE DB2 - DATA SET NAMES PANEL 3
===>
     _

Enter data set names below:
 1  SYSTEM MACLIB        ===> SYS1.MACLIB
 2  SYSTEM PROCEDURES    ===> SYS1.PROCLIB
 3  SORT LIBRARY         ===> SYS1.SORTLIB
 4  IMS RESLIB           ===> IMSVS.RESLIB
 5  ISPF ISPLINK MODULE  ===> ISP.ISPLOAD















                MIGRATE DB2 - CICS
===>
     _

Enter data below:

 1 CICS RELEASE         ===> 2         0 = not using CICS
                                       1 = CICS/OS/VS 1.7.0
                                       2 = CICS/MVS 2.1
                                       3 = CICS/ESA 3.1.1 or 3.2

 2 CICS COBOL LIBRARY   ===> XCICS.TC212M1.COBLIB
 3 CICS COBOL II LIBRARY===> XCICS.TC212M1.COB2CICS
 4 CICS PL/I  LIBRARY   ===> XCICS.TC212M1.PL1LIB
 5 CICS LOADLIB         ===> XCICS.TC212M1.LOADLIB

The following fields are required if option 3 was selected in field 1;
they are optional if option 2 was selected in field 1:
 6 CSD NAME (FOR RDO)   ===> CIVS.DFHCSD
 7 GROUP NAME           ===> DB2GRP    CICS RDO group name
 8 NEW GROUP            ===> NO        YES or NO
 9 LIST NAME            ===> FRED      CICS RDO list name



                MIGRATE DB2 - SIZES
===>
     _

Check numbers and reenter to change:

 1  DATABASES          ===> 400        In this subsystem
 2  TABLES             ===> 30         Per database (average)
 3  COLUMNS            ===> 30         Per table (average)
 4  VIEWS              ===> 3          Per table (average)
 5  TABLE SPACES       ===> 30         Per database (average)
 6  PLANS              ===> 500        In this subsystem
 7  PLAN STATEMENTS    ===> 30         SQL statements per plan (average)
 8  PACKAGES           ===> 300        In this subsystem
 9  PACKAGE STATEMENTS ===> 10         SQL statements per package (avera
10  PACKAGE LIST SIZE  ===> 2          Package lists per plan (average)
11  EXECUTED STMTS     ===> 15         SQL statements executed (average)
12  TABLES IN STMT     ===> 2          Tables per SQL statement (average
13  TEMP 4K SPACE      ===> 16777216   Bytes of 4K-page work space
14  TEMP 4K DATA SETS  ===> 1          Number of data sets for 4K data
15  TEMP 32K SPACE     ===> 4194304    Bytes of 32K-page work space
16  TEMP 32K DATA SETS ===> 1          Number of data sets for 32K data



                MIGRATE DB2 - STORAGE SIZES
===>
     _

Check numbers and reenter to change:

 1  DATABASES         ===> 100        Concurrently in use
 2  MAX USERS         ===> 30         Concurrently running in DB2
 3  MAX REMOTE        ===> 2          Remotely accessing data in DB2
 4  MAX TSO CONNECT   ===> 100        Users on QMF or in DSN command
 5  MAX BATCH CONNECT ===> 20         Users in DSN command or utilities
 6  MIN BP0 BUFFERS   ===> 1000       Minimum number of buffers in BP0
 7  MAX BP0 BUFFERS   ===> 1000       Maximum number of buffers in BP0
 8  MIN BP1 BUFFERS   ===> 1000       Minimum number of buffers in BP1
 9  MAX BP1 BUFFERS   ===> 1000       Maximum number of buffers in BP1
10  MIN BP2 BUFFERS   ===> 500        Minimum number of buffers in BP2
11  MAX BP2 BUFFERS   ===> 500        Maximum number of buffers in BP2
12  MIN BP32K BUFFERS ===> 36         Minimum number of buffers in BP32K
13  MAX BP32K BUFFERS ===> 36         Maximum number of buffers in BP32K






                MIGRATE DB2 - TRACING
===>
     _

Enter data below:

 1  AUDIT TRACE      ===> NO          Audit classes to start. NO,YES,lis

 2  TRACE AUTO START ===> NO          Global classes to start. YES, NO,
 3  TRACE SIZE       ===> 65536       Trace table size in bytes.  4K-396

 4  SMF ACCOUNTING   ===> 1           Accounting classes to start. NO,YE
 5  SMF STATISTICS   ===> YES         Statistics classes to start. NO,YE
 6  STATISTICS TIME  ===> 30          Time interval in minutes.  1-1440

 7  MONITOR TRACE    ===> NO          Monitor classes to start. NO, YES,
 8  MONITOR SIZE     ===> 8192        Default monitor buffer size. 8K-1M

 9  CHECKPOINT FREQ  ===> 500         Number of log records per checkpoi






                MIGRATE DB2 - OPERATOR FUNCTIONS
===> ;
     _

Enter data below:

 1  WTO ROUTE CODES    ===> 1
                                       Routing codes for WTORs
 2  RECALL DATABASE    ===> YES        Use DFHSM automatic recall. YES o
 3  RECALL DELAY       ===> 120        Seconds to wait for automatic rec

 4  RLF AUTO START     ===> NO         Resource Limit Facility.  NO or Y
 5  RLST NAME SUFFIX   ===> 01         Resource Limit Spec. Table (RLST)
 6  RLST ACCESS ERROR  ===> NOLIMIT    Action on RLST access error. Valu
                                       NOLIMIT - Run without limit
                                       NORUN   - Do not run at all
                                       1-5000000 - Limit in CPU service

 7  DSNZPARM NAME      ===> DSNZPARM   Enter name of new DB2 parameter m
 8  AUTO BIND          ===> YES        Use automatic bind. YES or NO
 9  SITE TYPE          ===> LOCALSITE    LOCALSITE or RECOVERYSITE




                MIGRATE DB2 - APPLICATION PROGRAMMING DEFAULTS
===> ;
     _

Enter data below:

 1  LANGUAGE DEFAULT     ===> COB2     ASM, ASMH, C, COBOL, COB2, FORTRA
 2  DECIMAL POINT IS     ===> .        . or ,
 3  MINIMUM DIVIDE SCALE ===> NO       NO or YES for a minimum of 3 digi
                                       to right of decimal after divisio
 4  STRING DELIMITER     ===> DEFAULT  DEFAULT, " or ' (COBOL or COB2 on
 5  SQL STRING DELIMITER ===> DEFAULT  DEFAULT, " or '
 6  MIXED DATA           ===> NO       NO or YES for mixed DBCS data
 7  CODED CHARACTER SET  ===> 500      The CCSID of your SBCS or mixed d
 8  DATE FORMAT          ===> ISO      ISO, JIS, USA, EUR, LOCAL
 9  TIME FORMAT          ===> ISO      ISO, JIS, USA, EUR, LOCAL
10  LOCAL DATE LENGTH    ===> 0        0 (no exit), or value between 10
11  LOCAL TIME LENGTH    ===> 0        0 (no exit), or value between  8
12  STD SQL LANGUAGE     ===> NO       NO or 86
13  DECIMAL ARITHMETIC   ===> DEC15    DEC15, DEC31, 15, 31





                MIGRATE DB2 - IRLM PANEL 1
===> ;
     _

Enter data below:

 1  INSTALL IRLM       ===> YES        IRLM is required for DB2. Should
                                       IRLM distributed with DB2 be inst
 2  SUBSYSTEM NAME     ===> IRL1       IRLM MVS subsystem name
 3  RESOURCE TIMEOUT   ===> 60         Seconds to wait for unavailable r
 4  TIME INTERVAL      ===> 500        Milliseconds between lock process
 5  AUTO START         ===> YES        Start IRLM if not up. YES or NO
 6  PROC NAME          ===> IRLMD1DB   Name of start procedure for IRLM
 7  TIME TO AUTOSTART  ===> 300        Time DB2 will wait for IRLM autos











                MIGRATE DB2 - IRLM PANEL 2
===> ;
     _

Enter data below:

 1  CROSS MEMORY           ===> NO        Local storage and cross memory
 2  MAXIMUM ECSA           ===> 5242880   Control block storage (1M - 99
 3  LOCKS PER TABLE(SPACE) ===> 1000      Maximum before lock escalation
 4  LOCKS PER USER         ===> 10000     Maximum before resource unavai
 5  PARTNER                ===>           VTAM name of other IRLM.  Requ
                                          for intersystem communication
 6  IDENTIFIER             ===> 1         Number for this IRLM (1-8)
 7  DEADLOCK TIME          ===> 15        Detection interval in seconds
 8  DEADLOCK CYCLE         ===> 4         Number of LOCAL cycles before
 9  INTERNAL TRACE         ===> NO        Automatic start of tracing









                MIGRATE DB2 - PROTECTION
===> ;
     _

Enter data below:

 1  MVS CATALOG       ===>            MVS catalog control password
 2  BSDS PASSWORD     ===>            Bootstrap data sets password
 3  LOG PASSWORD      ===>            Active log data sets password
 4  ARCHIVE LOG PW    ===>            Archive log data sets password
 5  ARCHIVE LOG RACF  ===> NO         RACF protect archive log data sets
 6  DIRECTORY/CATALOG ===>            DB2 directory and catalog password
 7  USE PROTECTION    ===> YES        DB2 authorization enabled.  YES or
 8  SYSTEM ADMIN 1    ===> DB2CSC     Authid of system administrator
 9  SYSTEM ADMIN 2    ===> CSCDB2     Authid of system administrator
10  SYSTEM OPERATOR 1 ===> SYSOPR     Authid of system operator
11  SYSTEM OPERATOR 2 ===> SYSOPR     Authid of system operator
12  UNKNOWN AUTHID    ===> UNKNOWN    Authid of default (unknown) user
13  RESOURCE AUTHID   ===> SYSIBM     Authid of Resource Limit Table cre






                MIGRATE DB2 - MVS PARMLIB UPDATES
===> ;
     _

Check data and reenter to change:

 1  SUBSYSTEM NAME      ===> D1DB       Name for connecting to DB2
 2  SUBSYSTEM PREFIX    ===> #          One character to denote subsyste
 3  SUBSYSTEM MEMBER    ===> 00         xx in IEFSSNxx
 4  SUBSYSTEM SEQUENCE  ===> 88888888   Sequence number for insertion
 5  AUTH MEMBER         ===> 00         xx in IEAAPFxx APF member name
 6  AUTH SEQUENCE       ===> 88888888   Sequence number for insertion
 7  LINK LIST ENTRY     ===> 00         xx in LNKLSTxx for DSNLINK
 8  LINK LIST SEQUENCE  ===> 88888888   Sequence number for insertion











                MIGRATE DB2 - ACTIVE LOG DATA SET PARAMETERS
===> ;
     _

Enter data below:

  1 NUMBER OF LOGS    ===> 3        Number data sets per active log copy
  2 INPUT BUFFER      ===> 28672    Size in bytes (28K-60K)
  3 OUTPUT BUFFER     ===> 409600   Size in bytes (40K-4000K)
  4 WRITE THRESHOLD   ===> 20       Buffers filled before write (1-256)
  5 ARCHIVE LOG FREQ  ===> 24       Hours per archive run
  6 UPDATE RATE       ===> 3600     Updates, inserts, and deletes per ho













                MIGRATE DB2 - ARCHIVE LOG DATA SET PARAMETERS
===> ;
     _

Enter data below:

  1  ALLOCATION UNITS ===> BLK       Blk, Trk, or Cyl
  2  PRIMARY QUANTITY ===>           Primary space allocation
  3  SECONDARY QTY.   ===>           Secondary space allocation
  4  CATALOG DATA     ===> NO        YES or NO to catalog archive data s
  5  DEVICE TYPE      ===> 3480      Unit name for archive logs
  6  BLOCK SIZE       ===> 28672     Rounded up to 4096 multiple
  7  MAX CONCURRENT   ===> 2         Number of input volumes allocated
  8  RECORDING MAX    ===> 500       Number of data sets recorded in BSD
  9  MSVGP 1          ===>           Mass storage volume group (MSVGP)
 10  MSVGP 2          ===>           MSVGP for second archive copy
 11  WRITE TO OPER    ===> YES       Issue WTOR before mount for archive
 12  WTOR ROUTE CODE  ===> 1,3,4
                                     Routing codes for archive WTORs
 13  RETENTION PERIOD ===> 31        Days to retain archive log data set
 14  QUIESCE PERIOD   ===> 5         Maximum quiesce interval (1-999)
 15  COMPACT DATA     ===> NO        YES or NO for data compaction



                MIGRATE DB2 - DATABASES AND SPACES TO START AUTOMATICALL
===> ;
     _

Enter data below:

 1  ===> RESTART       RESTART or DEFER the objects named below.
    The objects to restart or defer may be ALL in item 2, a database
    name, or database name.space name.

 2  ==> ALL               14  ==>                   26  ==>
 3  ==>                   15  ==>                   27  ==>
 4  ==>                   16  ==>                   28  ==>
 5  ==>                   17  ==>                   29  ==>
 6  ==>                   18  ==>                   30  ==>
 7  ==>                   19  ==>                   31  ==>
 8  ==>                   20  ==>                   32  ==>
 9  ==>                   21  ==>                   33  ==>
10  ==>                   22  ==>                   34  ==>
11  ==>                   23  ==>                   35  ==>
12  ==>                   24  ==>                   36  ==>
13  ==>                   25  ==>                   37  ==>



                MIGRATE DB2 - DISTRIBUTED DATA FACILITY
===> ;
     _

Enter data below:

 1 DDF STARTUP OPTION   ===> COMMAND   NO (DDF not startable),
                                       AUTO (automatic start up), or
                                       COMMAND (start by command)
 2 DB2 LOCATION NAME    ===> MVSPD1DB          The name other DB2s use t
                                               refer to this DB2
 3 DB2 NETWORK LUNAME   ===> MVSPD1DB  The name VTAM uses to refer to th
 4 DB2 NETWORK PASSWORD ===> MVSPD1DB  Password for connecting to other
 5 RLST ACCESS ERROR    ===> NOLIMIT   Action on non-local RLST access e
                                       NOLIMIT   - Run without limit
                                       NORUN     - Do not run at all
                                       1-5000000 - Limit in CPU service








                MIGRATE DB2 - DATA DEFINITION CONTROL SUPPORT
===> ;
     _

Enter data below:

 1 INSTALL DD CONTROL SUPT. ===> NO        YES - activate the support
                                           NO  - omit DD control support
 2 CONTROL ALL APPLICATIONS ===> NO        YES or NO
 3 REQUIRE FULL NAMES       ===> YES       YES or NO
 4 UNREGISTERED DDL DEFAULT ===> ACCEPT    Action for unregistered DDL:
                                           ACCEPT - allow it
                                           REJECT - prohibit it
                                           APPL   - consult ART

 5 REGISTRATION OWNER       ===> DSNRGCOL          Qualifier for ART and
 6 REGISTRATION DATABASE    ===> DSNRGFDB          Database name
 7 APPL REGISTRATION TABLE  ===> DSN_REGISTER_APPL Table name
 8 OBJT REGISTRATION TABLE  ===> DSN_REGISTER_OBJT Table name

Note: ART = Application Registration Table
      ORT = Object      Registration Table



                MIGRATE DB2 - JOB EDITING
===> ;
     _

Enter data below:

 1  REMOTE LOCATION   ===> MVSPP1DB         Remote location for COBOL
                                            organization application
 2  COBOL TYPE        ===> COB2             COBOL for sample application
                                            (COBOL OR COB2)

Enter job card information for install and sample jobs:

 3 ===> //DB2CSC  JOB (A006,SYTM,99,99),'10DB2GRP: DSNTINST',
 4 ===> //           MSGCLASS=V,CLASS=V
 5 ===> //* GENERATED BY DSNTINST
 6 ===> //*








                MIGRATE DB2 - CLIST CALCULATIONS - PANEL 1
===> ;
     _

 You may update the EDMPOOL size if necessary.

   1  DSNT485I  EDMPOOL STORAGE SIZE    =     9968  K
   2  DSNT485I  BUFFER POOL SIZE        =    11152  K
   3  DSNT485I  SORT POOL SIZE          =     1115  K
   4  DSNT485I  RID POOL SIZE           =     5576  K
   5  DSNT485I  DATA SET STORAGE SIZE   =    10800  K
   6  DSNT485I  CODE STORAGE SIZE       =     4200  K
   7  DSNT485I  WORKING STORAGE SIZE    =     1580  K
   8  DSNT486I  TOTAL MAIN STORAGE      =    44391  K
   9  DSNT448I  RECOMMENDED REAL STORAGE=    39359  K
  10  DSNT487I  TOTAL STORAGE BELOW 16M =     2132  K (WITH SWA ABOVE 16
  11  DSNT438I  WARNING,
                IRLM LOCK MAXIMUM SPACE =    78125  K, AVAILABLE =     5



PRESS:  ENTER to continue   RETURN to exit   HELP for more information



                MIGRATE DB2 - DATA PARAMETERS
===>
     _

Check parameters and reenter to change:

 1  CATALOG ALIAS       ===> D1DB                  Alias of MVS catalog
                                                   DB2 subsystem data se
 2  DEFINE CATALOG      ===> NO                    YES or NO
 3  VOLUME SERIAL 1     ===> HRA001                CLIST allocation
 4  VOLUME SERIAL 2     ===> HRA001                Non-VSAM data
 5  VOLUME SERIAL 3     ===> XDB001                Default, temporary da
 6  VOLUME SERIAL 4     ===> HRA003                Directory, catalog da
 7  VOLUME SERIAL 5     ===> XDB001                Directory, catalog in
 8  VOLUME SERIAL 6     ===> HRA003                Log copy 1, BSDS 2
 9  VOLUME SERIAL 7     ===> XDB001                Log copy 2, BSDS 1
10  PERMANENT UNIT NAME ===> 3380                  Device type for MVS c
                                                   and partitioned data
11  TEMPORARY UNIT NAME ===> SYSDA                 Device type for
                                                   temporary data sets



-------- ------- -------- ----- ----------------------------------------
TOMIAK   KETCSC  09/18/92 23:23 TD1DB, WAS CLONED FROM A LEVEL 6
                                TV2R3 ZONE VIA IMPLEMENTATION DIALOG
-------- ------- -------- ----- ----------------------------------------
-------- ------- -------- ----- ----------------------------------------
TOMIAK   DB2CSC  07/19/92 12:17 SOFTWARE WAS IMPLEMENTED FROM THE TARGET
                                ZONE TD1DB, D1DB.TARGET.*, TO THE
                                ACTIVE ZONE D1DB, D1DB.*
-------- ------- -------- ----- ----------------------------------------
Soppitt  DB2CSC  07/17/92 14:41 TD1DB, WAS CLONED FROM A LEVEL 3
                                TDBST ZONE VIA IMPLEMENTATION DIALOG
-------- ------- -------- ----- ----------------------------------------
TOMIAK   DMV0016 04/12/92 08:55 TURNED IRLM TRACE TO NO
-------- ------- -------- ----- ----------------------------------------
Borges   BORGY   03/22/92 09:30 Changed SYSADM1 to DB2CSC. Reassembled
                                and linkedited ZPARM.
-------- ------- -------- ----- ----------------------------------------
Tomiak   DMV0016 11/21/91 16:50 D1DBDDFU - INSERT into SYSLUNAMES and
                                SYSLOCATIONS for D1DB and P1DB.
-------- ------- -------- ----- ----------------------------------------
-------- ------- -------- ----- ----------------------------------------
Tomiak   DMV0016 11/20/91 08:00 Installation Verification Procedure
                          08:10 D1DBEJ0
                          08:10 D1DBEJ1
                          08:38 D1DBEJ1P
                          08:43 D1DBEJ2A
                          08:45 D1DBEJ2C
                          ----- D1DBEJ2D - Requires C compiler
                          09:21 D1DBEJ2F
                          09:23 D1DBEJ2P
                          09:25 D1DBEJ3C
                          09:26 D1DBEJ3P
                          ----- D1DBEJ4C - Requires IMS
                          ----- D1DBEJ4P - Requires IMS
                          09:30 D1DBEJ5C
                          09:34 D1DBEJ5P
-------- ------- -------- ----- ----------------------------------------
-------- ------- -------- ----- ----------------------------------------
Tomiak   DMV0016 11/15/91 23:00 Bound CSP plans DCBPLAN and DCGPLAN
                                XDBS.INSTALL.CNTL(D1DBDCBP)
                                XDBS.INSTALL.CNTL(D1DBDCGP)
-------- ------- -------- ----- ----------------------------------------
-------- ------- -------- ----- ----------------------------------------
Tomiak   DMV0016 11/12/91 11:50 Tailored XDBS.INSTALL.CNTL(D1DBEIVS)
                                to create views and sample tables.
-------- ------- -------- ----- ----------------------------------------
Tomiak   DMV0016 11/12/91 10:23 Tailored XDBS.INSTALL.CNTL(D1DBSTGJ)
                                to create "SAVE" tablespace.
-------- ------- -------- ----- ----------------------------------------
Tomiak   DMV0016 11/12/91 09:53 Tailored XDBS.INSTALL.CNTL(D1DBBINJ)
                                to bind QMF plan.
-------- ------- -------- ----- ----------------------------------------
Tomiak   DMV0016 11/12/91 09:36 Tailored XDBS.INSTALL.CNTL(D1DBTBLJ)
                                to create QMF objects.
-------- ------- -------- ----- ----------------------------------------
Tomiak   DMV0016 11/12/91 09:26 Tailored XDBS.INSTALL.CNTL(D1DBBSQL)
                                to bind QMF installation plans
-------- ------- -------- ----- ----------------------------------------
Tomiak   DMV0016 11/12/91 08:50 #START DB2 PARM(CSCZPARM)
-------- ------- -------- ----- ----------------------------------------
Tomiak   DMV0016 11/12/91 09:19 Tailored XDBS.INSTALL.CNTL(D1DBAJUZ)
                                to have DMV0016 as install SYSADM.
-------- ------- -------- ----- ----------------------------------------
Tomiak   DMV0016 11/12/91 08:45 Tailored XDBS.INSTALL.CNTL(D1DBCHRT)
                                to link charts with GDDM.
-------- ------- -------- ----- ----------------------------------------
Tomiak   DMV0016 11/12/91 08:00 Tailored XDBS.INSTALL.CNTL(D1DBEMAP)
                                to link maps with GDDM.
-------- ------- -------- ----- ----------------------------------------
Tomiak   DMV0016 11/12/91 08:35 Tailored XDBS.INSTALL.CNTL(D1DBDSQI)
                                and executed IPOUPDTE to change
                                subsystem id and volser.
-------- ------- -------- ----- ----------------------------------------
Tomiak   DMV0016 11/12/91 08:30 Allocated DB2M.DSQSAMPE.INSTALL
                                and copied only those members that
                                require changes.
-------- ------- -------- ----- ----------------------------------------
-------- ------- -------- ----- ----------------------------------------
TOMIAK   DMV0016 11/11/91 13:05 UPDATED  D1DB.OMEGDB2.DATA(VTPOOL)
                          13:10 EXECUTED D1DB.OMEGDB2.DATA(VTPOOLJB)
                          13:15 UPDATED  D1DB.OMEGDB2.DATA(OMEGDB2)
                          13:15 UPDATED  D1DB.OMEGDB2.DATA(DOFXODB2)
                          13:18 EXECUTED D1DB.OMEGDB2.DATA(O2BIND)
                          13:20 ADDED SYS2.DOFX.PROCLIB(OMEGDB2)
                          13:20 TAILORED DOFX.USER.SYSPROC(O2CLIST)
                          13:25 UPDATED SYS1.PARMLIB(IEAAPF00)
                          13:30 UPDATED NETVIEW/ACO FOR OMEGDB2
-------- ------- -------- ----- ----------------------------------------
TOMIAK   DMV0016 11/11/91 13:00 CLONED OMEG/DB2 ONTO DOFX
-------- ------- -------- ----- ----------------------------------------
TOMIAK   DD20010 10/28/91 15:03 XDBS.INSTALL.CNTL(D1DBEJ2A)
                                ASM SAMPLE PROGRAM UNLOAD
-------- ------- -------- ----- ----------------------------------------
TOMIAK   DD20010 10/28/91 14:52 XDBS.INSTALL.CNTL(D1DBEJ1P)
                                PL/1 SAMPLE PROGRAM AND SELECTS
-------- ------- -------- ----- ----------------------------------------
TOMIAK   DD20010 10/28/91 10:45 EDITED XDBS.IVP.PROCLIB(DSN*)
                                TO ACCESS SYSTEM LIBRARIES.
                                  PL/1 FORTRAN CICS IMS ISPF
-------- ------- -------- ----- ----------------------------------------
TOMIAK   DD20010 10/28/91 10:50 XDBS.INSTALL.CNTL(D1DBEJ1)
                                CREATE SAMPLE TABLES AND VIEWS
-------- ------- -------- ----- ----------------------------------------
TOMIAK   DD20010 10/28/91 10:45 EDITED XDBS.IVP.PROCLIB(DSNUPROC)
                                FOR LIB='D1DB.DSNLOAD'
-------- ------- -------- ----- ----------------------------------------
TOMIAK   DD20010 10/28/91 10:45 EDITED XDBS.IVP.PROCLIB(DSNHASMH)
                                TO ACCESS IMS, CICS, AND ISPF LIBRARIES.
-------- ------- -------- ----- ----------------------------------------
TOMIAK   DD20010 10/28/91 10:50 XDBS.INSTALL.CNTL(D1DBIJIC)
                                IMAGCOPY SYSIBM TABLESPACES
-------- ------- -------- ----- ----------------------------------------
TOMIAK   DD20010 10/28/91 11:15 RECYCLED DB2
-------- ------- -------- ----- ----------------------------------------
TOMIAK   DD20010 10/28/91 10:50 XDBS.INSTALL.CNTL(D1DBIJSG)
                                CHANGED DSNESPRR TO HAVE ISOLATION(CS)
-------- ------- -------- ----- ----------------------------------------
TOMIAK   DD20010 10/28/91 10:50 XDBS.INSTALL.CNTL(D1DBIJTM)
                                REQUIRES INSTALL SYSADM
-------- ------- -------- ----- ----------------------------------------
TOMIAK   DMV0016 10/28/91 10:30 XDBS.INSTALL.CNTL(D1DBIJTM)
                                ASM/LKED/BIND DSNTIAD
                                CREATE/DEFINE DSNDB07
-------- ------- -------- ----- ----------------------------------------
TOMIAK   DMV0016 10/28/91 10:05 EDITED XDBS.IVP.PROCLIB(DSNHASMH)
                                TO INCLUDE DB2SID - THE HIGH-LEVEL
                                QUALIFIER THAT MUST BE PASSED TO REFLECT
                                THE DB2 SUBSYSTEM ID BEING USED.
-------- ------- -------- ----- ----------------------------------------
TOMIAK   DMV0016 10/28/91 10:00 XDBS.INSTALL.CNTL(D1DBIJMV) WAS
                                UPDATED TO JUST ADD THE COMPILE AND
                                UTILITY PROCS TO:
                                  XDBS.IVP.PROCLIB
-------- ------- -------- ----- ----------------------------------------
TOMIAK   DMV0016 10/28/91 09:39 ^START DB2
-------- ------- -------- ----- ----------------------------------------
-------- ------- -------- ----- ----------------------------------------
TOMIAK   DMV0016 10/25/91 16:05 ^START DB2
-------- ------- -------- ----- ----------------------------------------
TOMIAK   DMV0016 10/25/91 15:48 XDBS.INSTALL.CNTL(D1DBIJUZ)
                                ASSEMBLES AND LINKS DB2 DSNZPARM AND
                                OTHER DEFAULTS.
-------- ------- -------- ----- ----------------------------------------
TOMIAK   DMV0016 10/25/91 15:37 XDBS.INSTALL.CNTL(D1DBIJID) WAS
                                EXECUTED TO LOAD THE
                                SYSIBM TABLESPACES.
-------- ------- -------- ----- ----------------------------------------
TOMIAK   DMV0016 10/25/91 15:30 XDBS.INSTALL.CNTL(D1DBIJIN) WAS
                                EXECUTED TO DEFINE THE CLUSTERS FOR
                                SYSIBM TABLESPACES.
-------- ------- -------- ----- ----------------------------------------
TOMIAK   DMV0016 10/25/91 15:23 XDBS.INSTALL.CNTL(D1DBIPOU) WAS
                                EXECUTED TO CHANGE DBSETGT.DSN220 TO
                                D1DB.
-------- ------- -------- ----- ----------------------------------------
TOMIAK   DMV0016 10/25/91 15:20 XDBS.INSTALL.CNTL(D1DBIJMV) WAS
                                run into D1DB.INSTALL.PROCLIB.
-------- ------- -------- ----- ----------------------------------------
SOPPITT  DMV0016 11/07/91 12:00 USING SMP/E TARGET LIBRARIES WITH 9102
                                PUTLEVEL, EXECUTED DSNTINST CLIST AND
                                CHOSE INITIAL VALUES. SEE BELOW:
-------- ------- -------- ----- ----------------------------------------
TOMIAK   DMV0016 11/07/91 08:30 LEVEL 01
                                  CLONED FROM DBSETGT
-------- ------- -------- ----- ----------------------------------------
TOMIAK   DMV0016 11/07/91 08:10 CREATED ALIAS D1DB TO ICAT.XSYSTEM ON
                                  CATALOG.DOFX.MASTER
                                  CATALOG.DEVL.MASTER
                                  CATALOG.PROD.MASTER
                                  MASTER.MVSXMCAT
                                  MASTER.MVSPMCAT
-------- ------- -------- ----- ----------------------------------------
OPS              11/07/91 06:00 IPL MVSP
-------- ------- -------- ----- ----------------------------------------
-------- ------- -------- ----- ----------------------------------------
TOMIAK   DMV0016 11/06/91 14:00 ADD IEFSSN00 AND IEAAPF00 ENTRIES
-------- ------- -------- ----- ----------------------------------------
************************************************************************
************************************************************************
***    USE TOP-DOWN APPROACH - ADD NEW ENTRIES TO TOP OF MEMBER!!    ***
************************************************************************
************************************************************************
./ ADD NAME=D2DB     0183-92197-94016-1020-01823-00661-00000-MJLCSC
************************************************************************
*****                                                              *****
*****                    DATA BASE                                 *****
*****                  D2DB  ON  MVSW                              *****
*****                                                              *****
************************************************************************

  NAME     ID      DATE   TIME  DESCRIPTION OF CHANGE
-------- ------- -------- ----- ----------------------------------------
LOVARI   MJLCSC  01/16/94 10:20 Project: DB2???
                                CHREQ# 00000
                                SOFTWARE WAS IMPLEMENTED FROM THE TARGET
                                ZONE TD2DB, D2DB.OMEGDB2.TARGET.*, TO TH
                                ACTIVE ZONE D2DB, D2DB.OMEGDB2.*
-------- ------- -------- ----- ----------------------------------------
MUNDO 48 FMMCSC  01/13/94 08:24 Project: DB2???
                                product: PLATINUM
                                D2DB, WAS CLONED FROM A LEVEL
                                XDBS ZONE VIA IMPLEMENTATION DIALOG
-------- ------- -------- ----- ----------------------------------------
WESTON 4 DB2CSC  01/09/94 09:45 Project: F94625
                                Rebind SPUFI, CATVBIS, DSNTEP2 plans,
                                BIND QMF311 packages/plans as part of
                                level-15 maintenance.
-------- ------- -------- ----- ----------------------------------------
WESTON 4 LAWCSC  01/09/94 09:28 Project: DB2???
                                CHREQ# 00000
                                SOFTWARE WAS IMPLEMENTED FROM THE TARGET
                                ZONE TD2DB, D2DB.TARGET.*, TO THE
                                ACTIVE ZONE D2DB, D2DB.*
-------- ------- -------- ----- ----------------------------------------
SOPPITT  PETE    01/07/94 13:54 Project: F94625
                                product: DB2
                                TD2DB, WAS CLONED FROM A LEVEL 15
                                DB2M ZONE VIA IMPLEMENTATION DIALOG
-------- ------- -------- ----- ----------------------------------------
SOPPITT  PETE    01/07/94 13:49 Project: F94625
                                TAPE ARCHIVE OF BD2DB WAS CREATED.
                                OUTPUT TAPE DSN = D2DB.BACKUP.LVL11
-------- ------- -------- ----- ----------------------------------------
LOVARI   MJLCSC  01/05/94 11:16 OMEGAMON II FOR DB2 SOFTWARE
                                TD2DB, WAS CLONED FROM A LEVEL 2
                                TOMGDB2 ZONE VIA IMPLEMENTATION DIALOG
-------- ------- -------- ----- ----------------------------------------
TOMIAK 2 KETCSC  12/23/93 15:27 Project: DB2???
                                product: DB2GRP
                                TD2DB, WAS CLONED FROM A LEVEL B
                                D1DB ZONE VIA IMPLEMENTATION DIALOG
-------- ------- -------- ----- ----------------------------------------
TOMIAK 2 KETCSC  11/26/93 11:41 Project: DB2???
                                TD2DB, WAS CLONED FROM A LEVEL
                                XDBS ZONE VIA IMPLEMENTATION DIALOG
-------- ------- -------- ----- ----------------------------------------
TOMIAK 2 KETCSC  11/23/93 17:01 Project: DB2???
                                CHREQ# 00000
                                SOFTWARE WAS IMPLEMENTED FROM THE TARGET
                                ZONE TD2DB, D2DB.TARGET.*, TO THE
                                ACTIVE ZONE D2DB, D2DB.*
-------- ------- -------- ----- ----------------------------------------
TOMIAK 2 KETCSC  11/23/93 16:59 Project: DB2???
                                D2DB, WAS CLONED FROM A LEVEL
                                XDBS ZONE VIA IMPLEMENTATION DIALOG
-------- ------- -------- ----- ----------------------------------------
TOMIAK 2 KETCSC  11/23/93 16:52 Project: DB2???
                                TD2DB, WAS CLONED FROM A LEVEL
                                XDBS ZONE VIA IMPLEMENTATION DIALOG
-------- ------- -------- ----- ----------------------------------------
TOMIAK 2 KETCSC  11/23/93 16:09 Project: DB2???
                                TD2DB, WAS CLONED FROM A LEVEL
                                XDBS ZONE VIA IMPLEMENTATION DIALOG
-------- ------- -------- ----- ----------------------------------------
WESTON 4 LAWCSC  11/07/93 09:49 Project: DB2???
                                CHREQ# 00000
                                SOFTWARE WAS IMPLEMENTED FROM THE TARGET
                                ZONE TD2DB, D2DB.TARGET.*, TO THE
                                ACTIVE ZONE D2DB, D2DB.*
-------- ------- -------- ----- ----------------------------------------
WESTON 4 LAWCSC  11/07/93 09:43 Project: DB2???
                                TAPE ARCHIVE OF BD2DB WAS CREATED.
                                OUTPUT TAPE DSN = D2DB.BACKUP.LVL9
-------- ------- -------- ----- ----------------------------------------
WESTON 4 LAWCSC  11/05/93 13:57 Project: DB2???
                                TD2DB, WAS CLONED FROM A LEVEL 13
                                D1DB ZONE VIA IMPLEMENTATION DIALOG
-------- ------- -------- ----- ----------------------------------------
Tomiak   KETCSC  10/10/93 09:55 Project: F94625???
                                CHREQ: 30924
                                Using ISPF 3.1:
                                  Deleted OLDZPARM
                                  Renamed DSNZPARM to OLDZPARM
                                  Renamed NEWZPARM to DSNZPARM
                                Recycled D2DB
-------- ------- -------- ----- ----------------------------------------
Gandhi   DB2CSC  10/08/93 14:30 Project: F94625???
                                XDBS.D2DB.CNTL(DSN3IJU2)
                                Asm/Link DSNZPARM using new logload.
                                The module is NEWZPARM on DSNEXIT.
-------- ------- -------- ----- ----------------------------------------
-------- ------- -------- ----- ----------------------------------------
Gandhi   DB2CSC  10/08/93 14:30 Project: F94625???
                                Execute Install Clist to increase
                                LOGLOAD value to 20000 from 1000.
-------- ------- -------- ----- ----------------------------------------
Soppitt  PETE    07/30/93 14:30 Project: F94625???
                                Execute Install Clist to turn on ACCTG
                                Class-2 trace at subsystem start-up.
                                Asm/Link DSNZPARM using
                                    'XDBS.D2DB.CNTL(DSN3IJU1)'
                                Old module renamed OLDZPARM on DSNEXIT.
-------- ------- -------- ----- ----------------------------------------
Tomiak   KETCSC  07/07/93 15:45 Project: DB2???
                                XDBS.D2DB.CNTL(DBATIVP)
                                Test using IBM IVP program relinked
                                with DataBase Attach instead of TSO
                                Interface
-------- ------- -------- ----- ----------------------------------------
Tomiak   KETCSC  07/07/93 15:30 Project: DB2???
                                XDBS.D2DB.CNTL(DBATPSWD)
                                Assemble DBAPARM with new password
                                DBAPARM PASSWORD=465JETE71GU0U64J,
                                        CPUID=010216,
                                        EXPDATE=94212,
                                        SYSTEM=D2DB
-------- ------- -------- ----- ----------------------------------------
PRISCIAN DB2CSC  06/24/93 15:30 Project:
                                XDBS.INSTALL.SPUFI.IN(D2DBPRIV)
                                Grant some privileges to WECDPWA.
-------- ------- -------- ----- ----------------------------------------
PRISCIAN MANN    06/15/93 17:30 Project: DB2PLA
                                XDBS.D2DB.CNTL(PLATBIND)
                                BIND PLATINUM PLANS.
                                Step RCPPA1 received an RC 04.
                                See project DB2PLA problems for info.
-------- ------- -------- ----- ----------------------------------------
PRISCIAN MANN    06/15/93 17:00 Project: DB2PLA
                                XDBS.D2DB.CNTL(PLATOBJS)
                                CREATE PLATINUM OBJECTS.
                                DDL copied from D2DB.PLATINUM.SRCLIB:
                                (PTSQL, PTSQLDA, PTSQLRR)
-------- ------- -------- ----- ----------------------------------------
PRISCIAN MANN    06/15/93 16:30 Project: DB2PLA
                                Invoke clist==> INVKQKIN D2DB


 PIPM  R01.00 ---- PLATINUM INSTALLATION PROCESSOR MAIN MENU ---- 93/06/
 COMMAND ===> 0
               _


                        QUICK INSTALL OPTIONS:

   0   PROFILE           - SETUP PROFILE OPTIONS

   1   SELECTIVE INSTALL - INSTALL SELECTED PLATINUM DB2 PRODUCTS

   2   COMPLETE INSTALL  - INSTALL ALL PLATINUM DB2 PRODUCTS

   3   RESUME            - CONTINUE AN INSTALL OPTION AT A PREVIOUS LOCA

   4   INDIVIDUAL STEPS  - PERFORM SINGLE STEPS OF QUICK INSTALL

   X   EXIT              - EXIT PLATINUM QUICK INSTALL

 SELECT AN OPTION AND PRESS ENTER TO BEGIN THE INSTALLATION PROCESS.

 PRESS PF1 FOR HELP OR PF3 TO EXIT THE INSTALLATION PROCESSOR.


  --- COPYRIGHT  1992   PLATINUM TECHNOLOGY INC.  ALL RIGHTS RESERVED --


 PIPPROF  R01.00 ----------------- PIP PROFILE -----------------  93/06/
 COMMAND ===> 1
               _


  SELECT AN OPTION BY TYPING A NUMBER.  THEN PRESS ENTER.   AFTER ALL SE
  HAVE BEEN PROCESSED, TYPE END OR PRESS PF3 TO CONTINUE.


                      1.  GLOBAL PARAMETERS

                      2.  DB2 PARAMETERS

                      3.  EXECUTION PARAMETERS

                      4.  SETUP SCREEN COLORS






  PRESS PF1 FOR HELP.




 PIPPROF1  R01.00 ---------- PIP - GLOBAL  PARAMETERS ----------  93/06/
 COMMAND ===>

   TYPE THE INFORMATION IN THE FIELDS BELOW.  THEN PRESS ENTER TO UPDATE
   PRESS PF3 OR TYPE END TO RETURN TO THE PROFILE MENU.

      VOLUME SERIAL NUMBER OF CURRENT INSTALLATION TAPE  .... P209AA
      HIGH LEVEL QUALIFIER
      TO BE USED FOR CURRENT INSTALLATION ....... D2DB.PLATINUM

      VOLUME SERIAL NUMBER OF PREVIOUS INSTALLATION TAPE  ...
                                                              _
      HIGH LEVEL QUALIFIER
      OF PREVIOUSLY INSTALLED PRODUCTS ..........













 PIPPROF  R01.00 ----------------- PIP PROFILE -----------------  93/06/
 COMMAND ===> 2
               _


  SELECT AN OPTION BY TYPING A NUMBER.  THEN PRESS ENTER.   AFTER ALL SE
  HAVE BEEN PROCESSED, TYPE END OR PRESS PF3 TO CONTINUE.


                      1.  GLOBAL PARAMETERS

                      2.  DB2 PARAMETERS

                      3.  EXECUTION PARAMETERS

                      4.  SETUP SCREEN COLORS






  PRESS PF1 FOR HELP.




 PIPPROF2  R01.00 ------------ PIP - DB2 PARAMETERS ------------  93/06/
 COMMAND ===>
              _

   TYPE THE INFORMATION IN THE FIELDS BELOW.  THEN PRESS ENTER TO UPDATE
   PRESS PF3 OR TYPE END TO RETURN TO PROFILE MENU.

      DB2 SUBSYSTEM  .............. D2DB

      DB2 VERSION  ................ V2.3

      VSAM HIGH LEVEL VCAT  ....... D2DB

      DB2 SYSADM  ................. DB2CSC
      DB2 SYSADM2  ................ CSCDB2

      DB2 LOAD LIBRARY  ........... D2DB.DSNLOAD










 PIPM  R01.00 ---- PLATINUM INSTALLATION PROCESSOR MAIN MENU ---- 93/06/
 COMMAND ===> 4
               _


                        QUICK INSTALL OPTIONS:

   0   PROFILE           - SETUP PROFILE OPTIONS

   1   SELECTIVE INSTALL - INSTALL SELECTED PLATINUM DB2 PRODUCTS

   2   COMPLETE INSTALL  - INSTALL ALL PLATINUM DB2 PRODUCTS

   3   RESUME            - CONTINUE AN INSTALL OPTION AT A PREVIOUS LOCA

   4   INDIVIDUAL STEPS  - PERFORM SINGLE STEPS OF QUICK INSTALL

   X   EXIT              - EXIT PLATINUM QUICK INSTALL

 SELECT AN OPTION AND PRESS ENTER TO BEGIN THE INSTALLATION PROCESS.

 PRESS PF1 FOR HELP OR PF3 TO EXIT THE INSTALLATION PROCESSOR.


  --- COPYRIGHT  1992   PLATINUM TECHNOLOGY INC.  ALL RIGHTS RESERVED --


 PIPVOL   R01.00 ------------- PIP - VOLUME SERIAL -------------  93/06/
 COMMAND ===>

   TYPE THE INFORMATION IN THE FIELDS BELOW.  THEN PRESS ENTER.

      VOLUME SERIAL NUMBER OF
      CURRENT INSTALLATION TAPE ........ P209AA     (REQUIRED)



   IF THE FIELDS BELOW ARE NOT BLANK, VERIFY THAT BOTH ARE CORRECT.

      HIGH LEVEL QUALIFIER OF PREVIOUSLY
      INSTALLED PLATINUM PRODUCTS  .....
                                         _


      VOLUME SERIAL NUMBER OF
      PREVIOUS INSTALLATION TAPE .......



 PRESS PF1 FOR HELP OR PF3 TO RETURN TO THE INSTALLATION MAIN MENU.




 PIPROD  R01.00 --- PLATINUM PRODUCT SELECTION ---  93/06/15  16:1  ROW
 COMMAND ===>                                                  SCROLL ==
              _

 CHOOSE THE PRODUCTS THAT YOU WISH TO INSTALL BY TYPING AN S IN THE SELE
 FIELD.  THEN PRESS ENTER TO REGISTER YOUR SELECTIONS.  AFTER ALL SELECT
 HAVE BEEN MADE PRESS PF3 TO CONTINUE PROCESSING.

 PRODUCTS ARE UNLOADED FROM THE P209AA INSTALLATION TAPE.

 SELECT   PRODUCT NAME           RELEASE LEVEL         STATUS

 (   )    RC/UPDATE              V3.1, PRODUCTION
 (   )    RC/MIGRATOR            V3.1, PRODUCTION
 (   )    RC/QUERY               V3.2, PRODUCTION
 (   )    RC/SECURE              V2.3, PRODUCTION
 (   )    DATABASE ANALYZER      V2.0, PRODUCTION
 (   )    PUT                    V2.0, PRODUCTION      INSTALLING
 (   )    PIPELINE               V2.1, PRODUCTION
 (   )    PG/O                   V2.2, PRODUCTION
 (   )    SQL/EASE               V1.3, PRODUCTION
 (   )    PLAN ANALYZER          V1.3, PRODUCTION      INSTALLING
 (   )    QQF                    V3.5, PRODUCTION
 (   )    PACKAGE/IT             V1.0, PRODUCTION
 (   )    GOVERNOR FACILITY      V1.0, PRODUCTION


 PIPINDV  R01.00 -------- INSTALLATION INDIVIDUAL STEPS  -------  93/06/
 COMMAND ===> 2
               _

  SELECT AN OPTION BY TYPING THE LETTER. THEN PRESS ENTER.  AFTER ALL SE
  HAVE BEEN PROCESSED, TYPE END OR PRESS PF3 TO RETURN TO THE MAIN MENU.

         1.  LINK          - LINK PRODUCTS
         2.  PARMLIB       - EDIT PARMLIB MEMBERS
         3.  PASSWORD      - ENTER PASSWORDS
         4.  OBJECTS       - CREATE PLATINUM DB2 OBJECTS
         5.  BIND          - BIND PLATINUM PRODUCTS
         6.  PPA/SQL-EASE  - ADDITIONAL PPA/SQL-EASE STEPS
         7.  CUSTOMIZATION - PRODUCT CUSTOMIZATION
         8.  MODEL         - MODEL LIBRARY CUSTOMIZATION
         9.  PGF           - GOVERNOR FACILITY CONVERSIONS.
        10.  FIXES         - DISPLAY PRODUCT FIXES APPLIED
        11.  VERIFY        - VERIFY PLATINUM PRODUCTS

         A.  ALL STEPS     - ALL STEPS, IN ORDER

         B   BACKUP TO LAST MENU.
         Q   QUIT, SAVING CURRENT LOCATION.
         C   CANCEL, WITHOUT SAVING CURRENT LOCATION.
  PRESS PF1 FOR HELP.


 PIPPRML  R01.00 ------------ PLATINUM PARMLIB MENU ------------  93/06/
 COMMAND ===> 1
               _


  SELECT AN OPTION BY TYPING A NUMBER.  THEN PRESS ENTER.  AFTER ALL SEL
  HAVE BEEN PROCESSED, TYPE END OR PRESS PF3 TO CONTINUE.



             1.  EDIT PARMLIB MEMBERS TO SET PARAMETERS.

             B.  BACKUP, DISPLAY PREVIOUS MENU.

             Q.  QUIT, SAVING CURRENT LOCATION.

             C.  CANCEL, WITHOUT SAVING CURRENT LOCATION.




  PRESS PF1 FOR HELP.





 PIPDBSED  R01.00 ------------ PIP - PARMLIB(SETUP) ------------  93/06/
 COMMAND ===>
              _

   TYPE THE INFORMATION IN THE FIELDS BELOW.  THEN PRESS ENTER.

      COMPANY NAME..............> CDCSA/NYC
      WORK UNIT NAME............> SYSDA
      DISPLAY ALL PRODUCTS .....> YES      (YES OR NO)

  NATIONAL LANGUAGE SETTINGS:

      VERTICAL BAR CHARACTER....> 
      DECIMAL POINT CHARACTER...> .        (. OR ,)
      MIXED DBCS/SBCS DATA......> NO       (YES OR NO)
      DATE FORMAT ..............> YY/MM/DD
      TIME DELIMITER ...........> :        (IE : , . )
      DISPLAY SECONDS ..........> NO       (YES OR NO)

 PRESS PF1 FOR HELP                   PRESS PF3 TO SKIP EDITING OF SETUP







 PIPDBSED  R01.00 ------------ PIP - PARMLIB(SETUP) ------------  93/06/
 COMMAND ===>

   TYPE THE INFORMATION IN THE FIELDS BELOW.  THEN PRESS ENTER.

      COMPANY NAME..............> CDCSA/NYC
      WORK UNIT NAME............> SYSDA
      DISPLAY ALL PRODUCTS .....> NO       (YES OR NO)

  NATIONAL LANGUAGE SETTINGS:

      VERTICAL BAR CHARACTER....> 
                                  _
      DECIMAL POINT CHARACTER...> .        (. OR ,)
      MIXED DBCS/SBCS DATA......> NO       (YES OR NO)
      DATE FORMAT ..............> YY/MM/DD
      TIME DELIMITER ...........> :        (IE : , . )
      DISPLAY SECONDS ..........> NO       (YES OR NO)

 PRESS PF1 FOR HELP                   PRESS PF3 TO SKIP EDITING OF SETUP







 PIPDBSEM  R01.00 ------------ PIP - PARMLIB(SETUP) ------------  93/06/
 COMMAND ===>
              _

   DB2 SUBSYSTEM ............> D2DB
   VSAM CATALOG ALIAS .......> D2DB
   DB2 LOAD LIBRARIES .......> D2DB.DSNEXIT
                      .......> D2DB.DSNLOAD
                      .......>
                      .......>
   SYSADM ...................> DB2CSC
   SYSADM2 ..................> CSCDB2

   LOCATION ...>                    LOCATIONS SUBSYSTEM ID ...>
   LOCATION ...>                    LOCATIONS SUBSYSTEM ID ...>
   LOCATION ...>                    LOCATIONS SUBSYSTEM ID ...>
   LOCATION ...>                    LOCATIONS SUBSYSTEM ID ...>
   LOCATION ...>                    LOCATIONS SUBSYSTEM ID ...>
   LOCATION ...>                    LOCATIONS SUBSYSTEM ID ...>
   LOCATION ...>                    LOCATIONS SUBSYSTEM ID ...>
   LOCATION ...>                    LOCATIONS SUBSYSTEM ID ...>

  PRESS ENTER FOR ADDITIONAL SUBSYSTEMS.
  PRESS PF3 (END) WHEN INFORMATION FOR ALL SUBSYSTEMS IS COMPLETE



 PIPDBUTE  R01.00 ------------ PIP - PARMLIB(UTIL)  ------------  93/06/
 COMMAND ===>
              _

   TYPE THE INFORMATION IN THE FIELDS BELOW.  THEN PRESS ENTER.

      SYSCOPY AUTHORIZATION .........> OFF       ON OR OFF
      UTILITY MODE ..................> SWAP      NS OR SWAP
      UPDATE TS PQTY AND SQTY .......> YES       NO OR YES
      SORT LIMIT ....................> 2M        NUM, NUMK, OR NUMM
      SYSCOPY UPDATE CONTROL.........> YES       NO, YES, OR USER
      MODIFY BITS UPDATED DURING COPY> YES       NO, OR YES
      DFP LEVEL .....................> 3.2       IE 3.2
      RACF AUTHORIZED ID ............> NO        NO, OR USERID
      SYSCOPY VOLSER FOR NON-SMS.....> YES       NO, OR YES
      DEFAULT NUMBER OF BUFFERS......> 030       NUMERIC
      CHECK DUPLICATES IN SYSCOPY....> NO        NO, OR YES
      RESTART-RETRY FOR -911 ERRORS..> 05        NUMERIC


 PRESS PF1 FOR HELP         PRESS PF3 TO SKIP EDITING OF UTIL MEMBER






 PIPDBPDA  R01.00 ------------- PIP - PARMLIB(PDA)  ------------  93/06/
 COMMAND ===>
              _

   TYPE THE INFORMATION IN THE FIELDS BELOW.  THEN PRESS ENTER.

      HIGH LEVEL IDENTIFIER ....: D2DB.PLATINUM

      TIMES TO RETRY INSERT TO STATS TABLES.> 000500
      RETRY INTERVAL (IN 1/100 SECONDS) ....> 000020
      NUMBER OF INSERTS BEFORE A COMMIT ....> 000010




   PRESS PF3 TO SKIP EDITING OF PDA MEMBER.











 PIPINDV  R01.00 -------- INSTALLATION INDIVIDUAL STEPS  -------  93/06/
 COMMAND ===> 5
               _

  SELECT AN OPTION BY TYPING THE LETTER. THEN PRESS ENTER.  AFTER ALL SE
  HAVE BEEN PROCESSED, TYPE END OR PRESS PF3 TO RETURN TO THE MAIN MENU.

         1.  LINK          - LINK PRODUCTS
         2.  PARMLIB       - EDIT PARMLIB MEMBERS
         3.  PASSWORD      - ENTER PASSWORDS
         4.  OBJECTS       - CREATE PLATINUM DB2 OBJECTS
         5.  BIND          - BIND PLATINUM PRODUCTS
         6.  PPA/SQL-EASE  - ADDITIONAL PPA/SQL-EASE STEPS
         7.  CUSTOMIZATION - PRODUCT CUSTOMIZATION
         8.  MODEL         - MODEL LIBRARY CUSTOMIZATION
         9.  PGF           - GOVERNOR FACILITY CONVERSIONS.
        10.  FIXES         - DISPLAY PRODUCT FIXES APPLIED
        11.  VERIFY        - VERIFY PLATINUM PRODUCTS

         A.  ALL STEPS     - ALL STEPS, IN ORDER

         B   BACKUP TO LAST MENU.
         Q   QUIT, SAVING CURRENT LOCATION.
         C   CANCEL, WITHOUT SAVING CURRENT LOCATION.
  PRESS PF1 FOR HELP.


 PIPBDPM  R01.00 -------------- PLATINUM BIND MENU -------------  93/06/
 COMMAND ===> 1
               _


  SELECT AN OPTION BY TYPING A NUMBER.  THEN PRESS ENTER.  AFTER ALL SEL
  HAVE BEEN PROCESSED, TYPE END OR PRESS PF3 TO CONTINUE.



             1.  GENERATE BIND CONTROL CARDS.

             2.  EDIT BIND CONTROL CARDS.

             3.  GENERATE JCL TO BIND PLATINUM'S PLANS.

             B.  BACKUP - DISPLAY PREVIOUS MENU.

             Q.  QUIT - SAVING CURRENT LOCATION.

             C.  CANCEL - WITHOUT SAVING CURRENT LOCATION.


   PRESS PF1 FOR HELP.



 PIPBDCPM  R01.00 -------- PIP - BIND CONTROL PARAMETERS -------  93/06/
 COMMAND ===>

   TYPE THE INFORMATION IN THE FIELDS BELOW.  THEN PRESS ENTER.

      HIGH LEVEL IDENTIFIER  ...: D2DB.PLATINUM

      DB2 LOAD LIBRARY  ........: D2DB.DSNLOAD

      OWNER(AUTHID) PARAMETER ...               (MAY BE BLANK)
                                  _
      DB2 SYSID ................. D2DB
      DB2 VERSION ............... V2.3  (IE. V2.1; V2.2; V2.3)


 PRESS PF1 FOR HELP











 PIPINDV  R01.00 -------- INSTALLATION INDIVIDUAL STEPS  -------  93/06/
 COMMAND ===> 7
               _

  SELECT AN OPTION BY TYPING THE LETTER. THEN PRESS ENTER.  AFTER ALL SE
  HAVE BEEN PROCESSED, TYPE END OR PRESS PF3 TO RETURN TO THE MAIN MENU.

         1.  LINK          - LINK PRODUCTS
         2.  PARMLIB       - EDIT PARMLIB MEMBERS
         3.  PASSWORD      - ENTER PASSWORDS
         4.  OBJECTS       - CREATE PLATINUM DB2 OBJECTS
         5.  BIND          - BIND PLATINUM PRODUCTS
         6.  PPA/SQL-EASE  - ADDITIONAL PPA/SQL-EASE STEPS
         7.  CUSTOMIZATION - PRODUCT CUSTOMIZATION
         8.  MODEL         - MODEL LIBRARY CUSTOMIZATION
         9.  PGF           - GOVERNOR FACILITY CONVERSIONS.
        10.  FIXES         - DISPLAY PRODUCT FIXES APPLIED
        11.  VERIFY        - VERIFY PLATINUM PRODUCTS

         A.  ALL STEPS     - ALL STEPS, IN ORDER

         B   BACKUP TO LAST MENU.
         Q   QUIT, SAVING CURRENT LOCATION.
         C   CANCEL, WITHOUT SAVING CURRENT LOCATION.
  PRESS PF1 FOR HELP.


 PIPCUSTM  R01.00 ----------- PLATINUM CUSTOMIZE MENU ----------  93/06/
 COMMAND ===> 1
               _

  SELECT AN OPTION BY TYPING A NUMBER.  THEN PRESS ENTER.  AFTER ALL SEL
  HAVE BEEN PROCESSED, TYPE END OR PRESS PF3 TO CONTINUE.

             1.  UPDATE CLIST'S WITH HIGH LEVEL ID.
             2.  UPDATE D2DB.PLATINUM.MODEL.
             3.  UPDATE RSPINIT CLIST.
             4.  CONVERT PLAN AUTHORIZATIONS.
             5.  CONVERT EXISTING JCL.
             6.  CONVERT EXISTING RAPID REORG JCL.
             7.  CONVERT PANEL VERTICAL BAR.

             B.  BACKUP, DISPLAY PREVIOUS MENU.
             Q.  QUIT, SAVING THE CURRENT LOCATION.
             C.  CANCEL, WITHOUT SAVING THE CURRENT LOCATION.

  PRESS PF1 FOR HELP.







 PIPCUSTM  R01.00 ----------- PLATINUM CUSTOMIZE MENU ----------  93/06/
 COMMAND ===> 2
               _
 PI008I  CLIST'S UPDATED SUCCESSFULLY.
  SELECT AN OPTION BY TYPING A NUMBER.  THEN PRESS ENTER.  AFTER ALL SEL
  HAVE BEEN PROCESSED, TYPE END OR PRESS PF3 TO CONTINUE.

             1.  UPDATE CLIST'S WITH HIGH LEVEL ID.
             2.  UPDATE D2DB.PLATINUM.MODEL.
             3.  UPDATE RSPINIT CLIST.
             4.  CONVERT PLAN AUTHORIZATIONS.
             5.  CONVERT EXISTING JCL.
             6.  CONVERT EXISTING RAPID REORG JCL.
             7.  CONVERT PANEL VERTICAL BAR.

             B.  BACKUP, DISPLAY PREVIOUS MENU.
             Q.  QUIT, SAVING THE CURRENT LOCATION.
             C.  CANCEL, WITHOUT SAVING THE CURRENT LOCATION.

  PRESS PF1 FOR HELP.







 PIPCUSTM  R01.00 ----------- PLATINUM CUSTOMIZE MENU ----------  93/06/
 COMMAND ===> 3
               _
 PI012I DATASET 'D2DB.PLATINUM.MODEL'IS NOW CUSTOMIZED.
  SELECT AN OPTION BY TYPING A NUMBER.  THEN PRESS ENTER.  AFTER ALL SEL
  HAVE BEEN PROCESSED, TYPE END OR PRESS PF3 TO CONTINUE.

             1.  UPDATE CLIST'S WITH HIGH LEVEL ID.
             2.  UPDATE D2DB.PLATINUM.MODEL.
             3.  UPDATE RSPINIT CLIST.
             4.  CONVERT PLAN AUTHORIZATIONS.
             5.  CONVERT EXISTING JCL.
             6.  CONVERT EXISTING RAPID REORG JCL.
             7.  CONVERT PANEL VERTICAL BAR.

             B.  BACKUP, DISPLAY PREVIOUS MENU.
             Q.  QUIT, SAVING THE CURRENT LOCATION.
             C.  CANCEL, WITHOUT SAVING THE CURRENT LOCATION.

  PRESS PF1 FOR HELP.







 PIPINDV  R01.00 -------- INSTALLATION INDIVIDUAL STEPS  -------  93/06/
 COMMAND ===> 11
                _

  SELECT AN OPTION BY TYPING THE LETTER. THEN PRESS ENTER.  AFTER ALL SE
  HAVE BEEN PROCESSED, TYPE END OR PRESS PF3 TO RETURN TO THE MAIN MENU.

         1.  LINK          - LINK PRODUCTS
         2.  PARMLIB       - EDIT PARMLIB MEMBERS
         3.  PASSWORD      - ENTER PASSWORDS
         4.  OBJECTS       - CREATE PLATINUM DB2 OBJECTS
         5.  BIND          - BIND PLATINUM PRODUCTS
         6.  PPA/SQL-EASE  - ADDITIONAL PPA/SQL-EASE STEPS
         7.  CUSTOMIZATION - PRODUCT CUSTOMIZATION
         8.  MODEL         - MODEL LIBRARY CUSTOMIZATION
         9.  PGF           - GOVERNOR FACILITY CONVERSIONS.
        10.  FIXES         - DISPLAY PRODUCT FIXES APPLIED
        11.  VERIFY        - VERIFY PLATINUM PRODUCTS

         A.  ALL STEPS     - ALL STEPS, IN ORDER

         B   BACKUP TO LAST MENU.
         Q   QUIT, SAVING CURRENT LOCATION.
         C   CANCEL, WITHOUT SAVING CURRENT LOCATION.
  PRESS PF1 FOR HELP.


 PIPVFY  R01.00 ----------- PLATINUM VERIFY PRODUCTS -----------  93/06/
 COMMAND ===> 1
               _


  CONGRATULATIONS, YOU HAVE SUCCESSFULLY COMPLETED THE INSTALLATION PROC


  SELECT AN OPTION BY TYPING A NUMBER.  THEN PRESS ENTER.  AFTER ALL SEL
  HAVE BEEN PROCESSED, TYPE END OR PRESS PF3 TO RETURN TO MAIN MENU.

             1.  ENTER PLATINUM PRODUCTS TO VERIFY INSTALLATION.




  PRESS PF1 FOR HELP.

-------- ------- -------- ----- ----------------------------------------
PRISCIAN MANN    06/15/93 16:00 Project: DB2PLA
                                XDBS.D2DB.CNTL(PLATCOPY)
                                COPIES PLATINUM DATASETS TO
                                D2DB.PLATINUM.***.
-------- ------- -------- ----- ----------------------------------------
SOPPITT  PETE    06/13/93 10:15 Project: DB2F01
                                SOFTWARE WAS IMPLEMENTED FROM THE TARGET
                                ZONE TD2DB, D2DB.TARGET.*, TO THE
                                ACTIVE ZONE D2DB, D2DB.*
-------- ------- -------- ----- ----------------------------------------
TOMIAK   KETCSC  06/13/93 10:00 Project: DB2???
                                SYS2.PROCLIB()
                                Moved procedures to shared libarary
                                (D2DBMSTR) added BSDS step
                                           change backup volsers
-------- ------- -------- ----- ----------------------------------------
SOPPITT  PETE    06/13/93 10:09 TAPE ARCHIVE OF BD2DB WAS CREATED.
                                OUTPUT TAPE DSN = D2DB.BACKUP.LVL5
-------- ------- -------- ----- ----------------------------------------
SOPPITT  PETE    06/11/93 16:00 Project: DB2???
                                tso %invkdsnt
                                DSNZPARM parameters updated as follows:-
                                BP1     - 4000,10000 (was 1000,1000)
                                NUMLKUS - 25000 (was 10000)

                 INSTALL DB2 - STORAGE SIZES
 ===>
      _

 Check numbers and reenter to change:

  1  DATABASES         ===> 50         Concurrently in use
  2  MAX USERS         ===> 100        Concurrently running in DB2
  3  MAX REMOTE        ===> 2          Remotely accessing data in DB2
  4  MAX TSO CONNECT   ===> 25         Users on QMF or in DSN command
  5  MAX BATCH CONNECT ===> 15         Users in DSN command or utilities
  6  MIN BP0 BUFFERS   ===> 400        Minimum number of buffers in BP0
  7  MAX BP0 BUFFERS   ===> 400        Maximum number of buffers in BP0
  8  MIN BP1 BUFFERS   ===> 4000       Minimum number of buffers in BP1
  9  MAX BP1 BUFFERS   ===> 10000      Maximum number of buffers in BP1
 10  MIN BP2 BUFFERS   ===> 200        Minimum number of buffers in BP2
 11  MAX BP2 BUFFERS   ===> 200        Maximum number of buffers in BP2
 12  MIN BP32K BUFFERS ===> 12         Minimum number of buffers in BP32
 13  MAX BP32K BUFFERS ===> 12         Maximum number of buffers in BP32




                 INSTALL DB2 - IRLM PANEL 2
 ===>
      _

 Enter data below:

  1  CROSS MEMORY           ===> NO        Local storage and cross memor
  2  MAXIMUM ECSA           ===> 5M        Control block storage (1M - 9
  3  LOCKS PER TABLE(SPACE) ===> 1000      Maximum before lock escalatio
  4  LOCKS PER USER         ===> 25000     Maximum before resource unava
  5  PARTNER                ===>           VTAM name of other IRLM.  Req
                                           for intersystem communication
  6  IDENTIFIER             ===> 3         Number for this IRLM (1-8)
  7  DEADLOCK TIME          ===> 15        Detection interval in seconds
  8  DEADLOCK CYCLE         ===> 4         Number of LOCAL cycles before
  9  INTERNAL TRACE         ===> NO        Automatic start of tracing







 PRESS:  ENTER to continue   RETURN to exit   HELP for more information



-------- ------- -------- ----- ----------------------------------------
TOMIAK   KETCSC  06/10/93 21:31 TD2DB, WAS CLONED FROM A LEVEL 11
                                TV2R3 ZONE VIA IMPLEMENTATION DIALOG
-------- ------- -------- ----- ----------------------------------------
TOMIAK   KETCSC  04/04/93 08:10 CHREQ# 27675
                                Using DF/DSS moved D2DB.OMEGDB2.*
                                from XDB001 to DB2D01.
-------- ------- -------- ----- ----------------------------------------
MUNDO    FMMCSC  04/01/93 11:50 XDBS.D2DB.CNTL(INFOFILE)
                                Allocates the files used by ALTER:
                                D2DB.INFOTOOL.SYSSQL
                                D2DB.INFOTOOL.REBIND
                                D2DB.INFOTOOL.SYSALTER
                                D2DB.INFOTOOL.UNLOAD
                                D2DB.INFOTOOL.RELOAD
-------- ------- -------- ----- ----------------------------------------
-------- ------- -------- ----- ----------------------------------------
Manny    MANN    03/16/93 17:27 XDBS.D2DB.CNTL(DSN3EJ5T)
                                Bind sample COBOL plan to test Dynamic
                                Plan Selection exit.
-------- ------- -------- ----- ----------------------------------------
Manny    MANN    03/16/93 12:05 XDBS.D2DB.CNTL(DSNCJCL)
                                Assemble and linkedit DSNCDWEC to
                                D2DB.DSNEXIT to add two new regions.
-------- ------- -------- ----- ----------------------------------------
Manny    MANN    03/15/93 16:17 XDBS.D2DB.CNTL(DSN3EJ5C)
                                DB2 V2R3 COBOL
-------- ------- -------- ----- ----------------------------------------
Tomiak   KETCSC  03/15/93 13:15 XDBS.D2DB.CNTL(FIXUP)
                                Correct D2DB.INSTALL.DSNSAMP and
                                D2DB.INSTALL.DSNCLIST for CICS 3.2.1
                                library names.
-------- ------- -------- ----- ----------------------------------------
Manny    MANN    03/10/93 11:56 XDBS.D2DB.CNTL(DSN3EJ5P)
                                DB2 V2R3 PLI
-------- ------- -------- ----- ----------------------------------------
Manny    MANN    03/09/93 15:43 XDBS.D2DB.CNTL(DSN3EJ3P)
                                DB2 V2R3 PLI
-------- ------- -------- ----- ----------------------------------------
Manny    MANN    03/09/93 14:30 XDBS.D2DB.CNTL(DSN3EJ3C)
                                DB2 V2R3 COBOL
-------- ------- -------- ----- ----------------------------------------
Manny    MANN    03/03/93 10:16 XDBS.D2DB.CNTL(DSNCJCL)
                                Assemble and linkedit DSNCDWEC to
                                D2DB.DSNEXIT for DYNAMIC PLAN SELECTION.
                                This exit will handle all Waterboard
                                CICS regions. To make this exit live,
                                you must update the RCT to point to
                                DSNCDWEC.
-------- ------- -------- ----- ----------------------------------------
MUNDO    FMMCSC  01/17/93 09:12 SOFTWARE WAS IMPLEMENTED FROM THE TARGET
                                ZONE TD2DB, D2DB.TARGET.*, TO THE
                                ACTIVE ZONE D2DB, D2DB.*
-------- ------- -------- ----- ----------------------------------------
WESTON   LAWCSC  01/13/93 14:18 TD2DB, WAS CLONED FROM A LEVEL 9
                                TV2R3 ZONE VIA IMPLEMENTATION DIALOG
-------- ------- -------- ----- ----------------------------------------
Tomiak   KETCSC  12/09/92 11:00 Moved new DYNBKUP and BIND imagsql.
-------- ------- -------- ----- ----------------------------------------
-------- ------- -------- ----- ----------------------------------------
MUNDO    FMMCSC  10/06/92 14.05 XDBS.D2DB.CNTL(ITOLBIND)
                                BIND replace on Ipkmst plan.
-------- ------- -------- ----- ----------------------------------------
MUNDO    FMMCSC  10/06/92 14:00 XDBS.D2DB.CNTL(BATSPUFI)
                                create stogroup,database,tablespace,
                                index for use by infotool.
-------- ------- -------- ----- ----------------------------------------
MUNDO    FMMCSC  10/06/92 13:55 XDBS.D2DB.CNTL(IPAKBIND)
                                BIND ADD TPAKDB2 plan.
-------- ------- -------- ----- ----------------------------------------
MUNDO    FMMCSC  10/06/92 13:50 XDBS.D2DB.CNTL(IPKPLIB)
                                Links ipkmst for automatic location
                                of the INFOTEL parmlib.
-------- ------- -------- ----- ----------------------------------------
-------- ------- -------- ----- ----------------------------------------
TOMIAK   DMV0016 08/13/92 23:00 JCL change for BACKUP submission and
                                D2DBIJUZ archive to tape (RETPD=31)
-------- ------- -------- ----- ----------------------------------------
TOMIAK   DMV0016 08/13/92 23:00 +ARCHIVE LOG test
-------- ------- -------- ----- ----------------------------------------
TOMIAK   DMV0016 08/13/92 22:10 DSNTINST with D2


                 UPDATE DB2 - ARCHIVE LOG DATA SET PARAMETERS
===>
     _

Enter data below:

  1  ALLOCATION UNITS ===> CYL       Blk, Trk, or Cyl
  2  PRIMARY QUANTITY ===> 270       Primary space allocation
  3  SECONDARY QTY.   ===> 10        Secondary space allocation
  4  CATALOG DATA     ===> NO        YES or NO to catalog archive data s
  5  DEVICE TYPE      ===> NOSILO    Unit name for archive logs
  6  BLOCK SIZE       ===> 28672     Rounded up to 4096 multiple
  7  MAX CONCURRENT   ===> 2         Number of input volumes allocated
  8  RECORDING MAX    ===> 500       Number of data sets recorded in BSD
  9  MSVGP 1          ===>           Mass storage volume group (MSVGP)
 10  MSVGP 2          ===>           MSVGP for second archive copy
 11  WRITE TO OPER    ===> YES       Issue WTOR before mount for archive
 12  WTOR ROUTE CODE  ===> 1,3,4
                                     Routing codes for archive WTORs
 13  RETENTION PERIOD ===> 31        Days to retain archive log data set
 14  QUIESCE PERIOD   ===> 5         Maximum quiesce interval (1-999)
 15  COMPACT DATA     ===> NO        YES or NO for data compaction

PRESS:  ENTER to continue   RETURN to exit   HELP for more information

-------- ------- -------- ----- ----------------------------------------
PRISCIAN MANN    08/11/92 09:19 TD2DB, WAS CLONED FROM A LEVEL 6
                                db2m ZONE VIA IMPLEMENTATION DIALOG
-------- ------- -------- ----- ----------------------------------------
TOMIAK   DB2CSC  07/30/92 16:47 SOFTWARE WAS IMPLEMENTED FROM THE TARGET
                                ZONE TD2DB, D2DB.TARGET.*, TO THE
                                ACTIVE ZONE D2DB, D2DB.*
-------- ------- -------- ----- ----------------------------------------
TOMIAK   DB2CSC  07/30/92 16:07 TD2DB, WAS CLONED FROM A LEVEL 4
                                TV2R3 ZONE VIA IMPLEMENTATION DIALOG
-------- ------- -------- ----- ----------------------------------------
Weston   LAWCSC  07/28/92 10:26 Bind PLAN(DBAMONRP) on D2DB.
                                XDBS.INSTALL.CNTL(D2DBATBD)
-------- ------- -------- ----- ----------------------------------------
Weston   LAWCSC  07/28/92 10:21 Assembled DBAPARMS to include the D2DB
                                subsystem. XDBS.INSTALL.CNTL(D2DBATAS)
-------- ------- -------- ----- ----------------------------------------
Weston   LAWCSC  07/28/92 09:17 Propagated Database Attach to D2DB using
                                XDBS.INSTALL.CNTL(D2DBATCP) creating
                                D2DB.DB2ATCH.CNTL and D2DB.DB2ATCH.LOAD.
-------- ------- -------- ----- ----------------------------------------
BORGY    BORGES  07/23/92 14:35 Ran DSNTINST clist in UPDATE mode. Mo-
                                dified archive log option have logs co-
                                pied to DASD instead of tape, and chged
                                DDF startup option from NO to COMMAND.
                                Renamed: 'XDBS.INSTALL.CNTL(D2DBIJUZ)'
                                TO:      'XDBS.INSTALL.CNTL(D2DBIJU#)'
                                and copied new job into xdbs.install.
                                ctnl as D2DBIJUZ and executed.

                    INSTALL, UPDATE, AND MIGRATE DB2 - MAIN PANEL
===>
     _

Check parameters and reenter to change:

 1  INSTALL TYPE         ===> UPDATE    Install, Update, or Migrate

Enter the following 2 values for migration only
 2  FROM RELEASE         ===>           1.3 or 2.2
 3  DATA SET NAME(MEMBER)===>

Enter name of your input data sets (DSNLOAD, DSNMACS, DSNSAMP, DSNCLIST)
 4  PREFIX               ===> XDBS.V2R3.TARGET
 5  SUFFIX               ===>

Enter to set or save panel values (by reading or writing the named membe
 6  INPUT MEMBER NAME    ===> DSNTIDD2  Enter to read old panel values
 7  OUTPUT MEMBER NAME   ===> DSNTIDD2  Enter to write new panel values




PRESS:  ENTER to continue   RETURN to exit   HELP for more information



                 UPDATE DB2 - DATA SET NAMES PANEL 1
===>
     _
DSNT434I Warning,data sets marked with asterisks exist and will be overw
Data sets allocated by the installation CLIST for edited output:
  1  TEMP CLIST LIBRARY ===> D2DB.INSTALL.DSNTEMP
  2  CLIST LIBRARY      ===> D2DB.INSTALL.DSNCLIST
* 3  SAMPLE LIBRARY     ===> D2DB.INSTALL.DSNSAMP1

Data sets allocated by the installation jobs:
  4  DBRM LIBRARY       ===> D2DB.DBRMLIB.DATA
  5  APPLICATION LOAD   ===> D2DB.RUNLIB.LOAD
  6  DECLARATION LIBRARY===> D2DB.SRCLIB.DATA

Data sets allocated by SMP/E and other methods:
  7  LINK LIST LIBRARY  ===> D2DB.DSNLINK
  8  LOAD LIBRARY       ===> D2DB.DSNLOAD
  9  MACRO LIBRARY      ===> D2DB.DSNMACS
 10  LOAD DISTRIBUTION  ===> D2DB.DSNALOAD
 11  EXIT LIBRARY       ===> D2DB.DSNEXIT



PRESS:  ENTER to continue   RETURN to exit   HELP for more information



                 UPDATE DB2 - SELECTION MENU
===>
     _

 Select one of the following:

 1  DATA PARAMETERS                     12  IRLM PANEL 1 *
 2  SYSTEM RESOURCE DATA SET NAMES      13  IRLM PANEL 2
 3  DATA SET NAMES PANEL 1              14  PROTECTION
 4  DATA SET NAMES PANEL 2 *            15  MVS PARMLIB UPDATES *
 5  DATA SET NAMES PANEL 3 *            16  ACTIVE LOG DATA SET PARAMETE
 6  CICS *                              17  ARCHIVE LOG DATA SET PARAMET
 7  SIZES *                             18  DATABASES TO START AUTOMATIC
 8  STORAGE SIZES                       19  DISTRIBUTED DATA FACILITY
 9  TRACING                             20  DATA DEFINITION CONTROL SUPP
10  OPERATOR FUNCTIONS                  21  JOB EDITING
11  APPLICATION PROGRAMMING DEFAULTS




* None of the fields on these panels can be updated.

PRESS:  ENTER to continue   RETURN to exit   HELP for more information



                 UPDATE DB2 - ARCHIVE LOG DATA SET PARAMETERS
===>
     _

Enter data below:

  1  ALLOCATION UNITS ===> BLK       Blk, Trk, or Cyl
  2  PRIMARY QUANTITY ===>           Primary space allocation
  3  SECONDARY QTY.   ===>           Secondary space allocation
  4  CATALOG DATA     ===> NO        YES or NO to catalog archive data s
  5  DEVICE TYPE      ===> SYSDA     Unit name for archive logs
  6  BLOCK SIZE       ===> 28672     Rounded up to 4096 multiple
  7  MAX CONCURRENT   ===> 2         Number of input volumes allocated
  8  RECORDING MAX    ===> 500       Number of data sets recorded in BSD
  9  MSVGP 1          ===>           Mass storage volume group (MSVGP)
 10  MSVGP 2          ===>           MSVGP for second archive copy
 11  WRITE TO OPER    ===> YES       Issue WTOR before mount for archive
 12  WTOR ROUTE CODE  ===> 1,3,4
                                     Routing codes for archive WTORs
 13  RETENTION PERIOD ===> 9999      Days to retain archive log data set
 14  QUIESCE PERIOD   ===> 5         Maximum quiesce interval (1-999)
 15  COMPACT DATA     ===> NO        YES or NO for data compaction

PRESS:  ENTER to continue   RETURN to exit   HELP for more information



                 UPDATE DB2 - DISTRIBUTED DATA FACILITY
===>
     _

Enter data below:

 1 DDF STARTUP OPTION   ===> COMMAND   NO (DDF not startable),
                                       AUTO (automatic start up), or
                                       COMMAND (start by command)
 2 DB2 LOCATION NAME    ===> D2DB              The name other DB2s use t
                                               refer to this DB2
 3 DB2 NETWORK LUNAME   ===> MVSWD2DB  The name VTAM uses to refer to th
 4 DB2 NETWORK PASSWORD ===> MVSWD2DB  Password for connecting to other
 5 RLST ACCESS ERROR    ===> NOLIMIT   Action on non-local RLST access e
                                       NOLIMIT   - Run without limit
                                       NORUN     - Do not run at all
                                       1-5000000 - Limit in CPU service






PRESS:  ENTER to continue   RETURN to exit   HELP for more information



                 UPDATE DB2 - CLIST CALCULATIONS - PANEL 1
===>
     _

 You may update the EDMPOOL size if necessary.

   1  DSNT485I  EDMPOOL STORAGE SIZE    =     3372  K
   2  DSNT485I  BUFFER POOL SIZE        =     6784  K
   3  DSNT485I  SORT POOL SIZE          =      678  K
   4  DSNT485I  RID POOL SIZE           =     3392  K
   5  DSNT485I  DATA SET STORAGE SIZE   =     1800  K
   6  DSNT485I  CODE STORAGE SIZE       =     4200  K
   7  DSNT485I  WORKING STORAGE SIZE    =     4380  K
   8  DSNT486I  TOTAL MAIN STORAGE      =    29366  K
   9  DSNT448I  RECOMMENDED REAL STORAGE=    29245  K
  10  DSNT487I  TOTAL STORAGE BELOW 16M =      702  K (WITH SWA ABOVE 16
  11  DSNT438I  WARNING,
                IRLM LOCK MAXIMUM SPACE =   249023  K, AVAILABLE =     5



PRESS:  ENTER to continue   RETURN to exit   HELP for more information



-------- ------- -------- ----- ----------------------------------------
PRISCIAN MANN    07/15/92 15:25 TD2DB, WAS CLONED FROM A LEVEL 4
                                D2DB ZONE VIA IMPLEMENTATION DIALOG
-------- ------- -------- ----- ----------------------------------------
TOMIAK G DB2CSC  07/15/92 10:37 SOFTWARE WAS IMPLEMENTED FROM THE TARGET
                                ZONE TD2DB, D2DB.TARGET.*, TO THE
                                ACTIVE ZONE D2DB, D2DB.*
-------- ------- -------- ----- ----------------------------------------
TOMIAK G DB2CSC  07/15/92 10:28 D2DB, WAS CLONED FROM A LEVEL 4
                                TV2R3 ZONE VIA IMPLEMENTATION DIALOG
-------- ------- -------- ----- ----------------------------------------
TOMIAK G DB2CSC  07/15/92 10:14 TD2DB, WAS CLONED FROM A LEVEL 4
                                TV2R3 ZONE VIA IMPLEMENTATION DIALOG
-------- ------- -------- ----- ----------------------------------------
BORGES   BORGY   07/14/92 10:45 Ran DSNTINST to install D2DB
-------- ------- -------- ----- ----------------------------------------

                     INSTALL, UPDATE, AND MIGRATE DB2 - MAIN PANEL
 ===> ON
      _

 Check parameters and reenter to change:

  1  INSTALL TYPE         ===> INSTALL   Install, Update, or Migrate

 Enter the following 2 values for migration only
  2  FROM RELEASE         ===>           1.3 or 2.2
  3  DATA SET NAME(MEMBER)===>

 Enter name of your input data sets (DSNLOAD, DSNMACS, DSNSAMP, DSNCLIST
  4  PREFIX               ===> XDBS.V2R3.TARGET
  5  SUFFIX               ===>

 Enter to set or save panel values (by reading or writing the named memb
  6  INPUT MEMBER NAME    ===> DSNTIDXA  Enter to read old panel values
  7  OUTPUT MEMBER NAME   ===> DSNTIDD2  Enter to write new panel values




 PRESS:  ENTER to continue   RETURN to exit   HELP for more information



                 INSTALL DB2 - DATA PARAMETERS
 ===>
      _

 Check parameters and reenter to change:

  1  CATALOG ALIAS       ===> D2DB                  Alias of MVS catalog
                                                    DB2 subsystem data s
  2  DEFINE CATALOG      ===> NO                    YES or NO
  3  VOLUME SERIAL 1     ===> DB2D01                CLIST allocation
  4  VOLUME SERIAL 2     ===> DB2D01                Non-VSAM data
  5  VOLUME SERIAL 3     ===> DB2D04                Default, temporary d
  6  VOLUME SERIAL 4     ===> DB2D04                Directory, catalog d
  7  VOLUME SERIAL 5     ===> DB2D04                Directory, catalog i
  8  VOLUME SERIAL 6     ===> DB2D02                Log copy 1, BSDS 2
  9  VOLUME SERIAL 7     ===> DB2D03                Log copy 2, BSDS 1
 10  PERMANENT UNIT NAME ===> 3390                  Device type for MVS
                                                    and partitioned data
 11  TEMPORARY UNIT NAME ===> SYSDA                 Device type for
                                                    temporary data sets



 PRESS:  ENTER to continue   RETURN to exit   HELP for more information



                 INSTALL DB2 - SYSTEM RESOURCE DATA SET NAMES
 ===>
      _
 DSNT443I Values marked with an asterisk have been updated
 Enter data below:

 Bootstrap Data Sets (BSDS):
 * 1 COPY 1 NAME         ===> D2DB.BSDS01
 * 2 COPY 2 NAME         ===> D2DB.BSDS02

 Active Logs:
   3 NUMBER OF COPIES    ===> 2        2 or 1.  Number of active log cop
 * 4 COPY 1 PREFIX       ===> D2DB.LOGCOPY1
 * 5 COPY 2 PREFIX       ===> D2DB.LOGCOPY2

 Archive Logs:
   6 NUMBER OF COPIES    ===> 2        2 or 1.  Number of archive log co
 * 7 COPY 1 PREFIX       ===> D2DB.ARCHLOG1
 * 8 COPY 2 PREFIX       ===> D2DB.ARCHLOG2
   9 TIMESTAMP ARCHIVES  ===> YES      YES or NO



 PRESS:  ENTER to continue   RETURN to exit   HELP for more information



                 INSTALL DB2 - DATA SET NAMES PANEL 1
 ===>
      _

 Data sets allocated by the installation CLIST for edited output:
   1  TEMP CLIST LIBRARY ===> D2DB.INSTALL.DSNTEMP
   2  CLIST LIBRARY      ===> D2DB.INSTALL.DSNCLIST
   3  SAMPLE LIBRARY     ===> D2DB.INSTALL.DSNSAMP

 Data sets allocated by the installation jobs:
   4  DBRM LIBRARY       ===> D2DB.DBRMLIB.DATA
   5  APPLICATION LOAD   ===> D2DB.RUNLIB.LOAD
   6  DECLARATION LIBRARY===> D2DB.SRCLIB.DATA

 Data sets allocated by SMP/E and other methods:
   7  LINK LIST LIBRARY  ===> D2DB.DSNLINK
   8  LOAD LIBRARY       ===> D2DB.DSNLOAD
   9  MACRO LIBRARY      ===> D2DB.DSNMACS
  10  LOAD DISTRIBUTION  ===> D2DB.DSNALOAD
  11  EXIT LIBRARY       ===> D2DB.DSNEXIT



 PRESS:  ENTER to continue   RETURN to exit   HELP for more information






                 INSTALL DB2 - DATA SET NAMES PANEL 2
 ===>
      _

 Enter data set names below:
  1  ASSEMBLER            ===>
  2  C COMPILER           ===> EDC.V1R1M0.SEDCCOMP
  3  C COMPILER MESSAGES  ===> EDC.V1R1M0.SEDCMSGS
  4  C LIBRARY HEADERS    ===> EDC.V1R1M0.SEDCHDRS
  5  C LINK EDIT STUBS    ===> EDC.V1R1M0.SEDCBASE
  6  C DYNAMIC RUNTIME    ===> EDC.V1R1M0.SEDCLINK
  7  COBOL COMPILER       ===>
  8  COBOL LINK EDIT      ===> SYS1.COBLIB
  9  VS COBOL II COMPILER ===>
 10  VS COBOL II LINK     ===> SYS1.COB2LIB
 11  COMMON LINK EDIT     ===> PLI.V2R2M0.SIBMBASE
 12  COMMON DYNAMIC       ===> PLI.V2R2M0.SIBMLINK
 13  FORTRAN COMPILER     ===>
 14  FORTRAN LINK EDIT    ===> SYS1.VFORTLIB
 15  PL/I COMPILER        ===> PLI.V2R2M0.PLICOMP
 16  PL/I LINK EDIT       ===> PLI.V2R2M0.PLIBASE


 PRESS:  ENTER to continue   RETURN to exit   HELP for more information



                 INSTALL DB2 - DATA SET NAMES PANEL 3
 ===>
      _

 Enter data set names below:
  1  SYSTEM MACLIB        ===> SYS1.MACLIB
  2  SYSTEM PROCEDURES    ===> D2DB.INSTALL.PROCLIB
  3  SORT LIBRARY         ===> SORT.SORTLIB
  4  IMS RESLIB           ===> D2DB.RLRESLIB
  5  ISPF ISPLINK MODULE  ===> ISP.ISPLOAD













 PRESS:  ENTER to continue   RETURN to exit   HELP for more information



                 INSTALL DB2 - CICS
 ===>
      _

 Enter data below:

  1 CICS RELEASE         ===> 3         0 = not using CICS
                                        1 = CICS/OS/VS 1.7.0
                                        2 = CICS/MVS 2.1
                                        3 = CICS/ESA 3.1.1 or 3.2

  2 CICS COBOL LIBRARY   ===> CIVS.CICS311.COBLIB
  3 CICS COBOL II LIBRARY===> SYS1.COB2CICS
  4 CICS PL/I  LIBRARY   ===> CIVS.CICS311.PL1LIB
  5 CICS LOADLIB         ===> XCICS.TC321W1.SDFHLOAD

 The following fields are required if option 3 was selected in field 1;
 they are optional if option 2 was selected in field 1:
  6 CSD NAME (FOR RDO)   ===> CIVS.CICS311.DFHCSD
  7 GROUP NAME           ===> DB2GRP    CICS RDO group name
  8 NEW GROUP            ===> YES       YES or NO
  9 LIST NAME            ===> TESTAUTO  CICS RDO list name

 PRESS:  ENTER to continue   RETURN to exit   HELP for more information



                 INSTALL DB2 - SIZES
 ===>
      _

 Check numbers and reenter to change:

  1  DATABASES          ===> 300        In this subsystem
  2  TABLES             ===> 10         Per database (average)
  3  COLUMNS            ===> 30         Per table (average)
  4  VIEWS              ===> 5          Per table (average)
  5  TABLE SPACES       ===> 10         Per database (average)
  6  PLANS              ===> 400        In this subsystem
  7  PLAN STATEMENTS    ===> 40         SQL statements per plan (average
  8  PACKAGES           ===> 300        In this subsystem
  9  PACKAGE STATEMENTS ===> 10         SQL statements per package (aver
 10  PACKAGE LIST SIZE  ===> 4          Package lists per plan (average)
 11  EXECUTED STMTS     ===> 15         SQL statements executed (average
 12  TABLES IN STMT     ===> 3          Tables per SQL statement (averag
 13  TEMP 4K SPACE      ===> 16M        Bytes of 4K-page work space
 14  TEMP 4K DATA SETS  ===> 1          Number of data sets for 4K data
 15  TEMP 32K SPACE     ===> 4M         Bytes of 32K-page work space
 16  TEMP 32K DATA SETS ===> 1          Number of data sets for 32K data

 PRESS:  ENTER to continue   RETURN to exit   HELP for more information



                 INSTALL DB2 - STORAGE SIZES
 ===>
      _

 Check numbers and reenter to change:

  1  DATABASES         ===> 50         Concurrently in use
  2  MAX USERS         ===> 100        Concurrently running in DB2
  3  MAX REMOTE        ===> 2          Remotely accessing data in DB2
  4  MAX TSO CONNECT   ===> 25         Users on QMF or in DSN command
  5  MAX BATCH CONNECT ===> 15         Users in DSN command or utilities
  6  MIN BP0 BUFFERS   ===> 400        Minimum number of buffers in BP0
  7  MAX BP0 BUFFERS   ===> 400        Maximum number of buffers in BP0
  8  MIN BP1 BUFFERS   ===> 1000       Minimum number of buffers in BP1
  9  MAX BP1 BUFFERS   ===> 1000       Maximum number of buffers in BP1
 10  MIN BP2 BUFFERS   ===> 200        Minimum number of buffers in BP2
 11  MAX BP2 BUFFERS   ===> 200        Maximum number of buffers in BP2
 12  MIN BP32K BUFFERS ===> 12         Minimum number of buffers in BP32
 13  MAX BP32K BUFFERS ===> 12         Maximum number of buffers in BP32




 .  .  .  .  .  .  .  .  .  .  .  .  .  .  .  .  .  .  .  .  .  .  .  .
 EDIT --- XDBS.SOFTWARE.CHANGES ---------------------------- ROW 00021 O


                 INSTALL DB2 - TRACING
 ===>
      _

 Enter data below:

  1  AUDIT TRACE      ===> NO          Audit classes to start. NO,YES,li

  2  TRACE AUTO START ===> NO          Global classes to start. YES, NO,
  3  TRACE SIZE       ===> 64K         Trace table size in bytes.  4K-39

  4  SMF ACCOUNTING   ===> 1           Accounting classes to start. NO,Y
  5  SMF STATISTICS   ===> YES         Statistics classes to start. NO,Y
  6  STATISTICS TIME  ===> 15          Time interval in minutes.  1-1440

  7  MONITOR TRACE    ===> NO          Monitor classes to start. NO, YES
  8  MONITOR SIZE     ===> 8K          Default monitor buffer size. 8K-1

  9  CHECKPOINT FREQ  ===> 1000        Number of log records per checkpo




 PRESS:  ENTER to continue   RETURN to exit   HELP for more information



                 INSTALL DB2 - OPERATOR FUNCTIONS
 ===>
      _

 Enter data below:

  1  WTO ROUTE CODES    ===> 1
                                        Routing codes for WTORs
  2  RECALL DATABASE    ===> YES        Use DFHSM automatic recall. YES
  3  RECALL DELAY       ===> 120        Seconds to wait for automatic re

  4  RLF AUTO START     ===> NO         Resource Limit Facility.  NO or
  5  RLST NAME SUFFIX   ===> 01         Resource Limit Spec. Table (RLST
  6  RLST ACCESS ERROR  ===> NOLIMIT    Action on RLST access error. Val
                                        NOLIMIT - Run without limit
                                        NORUN   - Do not run at all
                                        1-5000000 - Limit in CPU service

  7  DSNZPARM NAME      ===> DSNZPARM   Enter name of new DB2 parameter
  8  AUTO BIND          ===> YES        Use automatic bind. YES or NO
  9  SITE TYPE          ===> LOCALSITE    LOCALSITE or RECOVERYSITE


 PRESS:  ENTER to continue   RETURN to exit   HELP for more information



                 INSTALL DB2 - APPLICATION PROGRAMMING DEFAULTS
 ===>
      _

 Enter data below:

  1  LANGUAGE DEFAULT     ===> COBOL    ASM, ASMH, C, COBOL, COB2, FORTR
  2  DECIMAL POINT IS     ===> .        . or ,
  3  MINIMUM DIVIDE SCALE ===> NO       NO or YES for a minimum of 3 dig
                                        to right of decimal after divisi
  4  STRING DELIMITER     ===> DEFAULT  DEFAULT, " or ' (COBOL or COB2 o
  5  SQL STRING DELIMITER ===> DEFAULT  DEFAULT, " or '
  6  MIXED DATA           ===> NO       NO or YES for mixed DBCS data
  7  CODED CHARACTER SET  ===> 37       The CCSID of your SBCS or mixed
  8  DATE FORMAT          ===> ISO      ISO, JIS, USA, EUR, LOCAL
  9  TIME FORMAT          ===> ISO      ISO, JIS, USA, EUR, LOCAL
 10  LOCAL DATE LENGTH    ===> 0        0 (no exit), or value between 10
 11  LOCAL TIME LENGTH    ===> 0        0 (no exit), or value between  8
 12  STD SQL LANGUAGE     ===> NO       NO or 86
 13  DECIMAL ARITHMETIC   ===> DEC15    DEC15, DEC31, 15, 31



 PRESS:  ENTER to continue   RETURN to exit   HELP for more information



                 INSTALL DB2 - IRLM PANEL 1
 ===>
      _

 Enter data below:

  1  INSTALL IRLM       ===> YES        IRLM is required for DB2. Should
                                        IRLM distributed with DB2 be ins
  2  SUBSYSTEM NAME     ===> IRL3       IRLM MVS subsystem name
  3  RESOURCE TIMEOUT   ===> 60         Seconds to wait for unavailable
  4  TIME INTERVAL      ===> 500        Milliseconds between lock proces
  5  AUTO START         ===> YES        Start IRLM if not up. YES or NO
  6  PROC NAME          ===> IRLMD2DB   Name of start procedure for IRLM
  7  TIME TO AUTOSTART  ===> 300        Time DB2 will wait for IRLM auto









 PRESS:  ENTER to continue   RETURN to exit   HELP for more information



                 INSTALL DB2 - IRLM PANEL 2
 ===>
      _

 Enter data below:

  1  CROSS MEMORY           ===> NO        Local storage and cross memor
  2  MAXIMUM ECSA           ===> 5M        Control block storage (1M - 9
  3  LOCKS PER TABLE(SPACE) ===> 1000      Maximum before lock escalatio
  4  LOCKS PER USER         ===> 10000     Maximum before resource unava
  5  PARTNER                ===>           VTAM name of other IRLM.  Req
                                           for intersystem communication
  6  IDENTIFIER             ===> 3         Number for this IRLM (1-8)
  7  DEADLOCK TIME          ===> 15        Detection interval in seconds
  8  DEADLOCK CYCLE         ===> 4         Number of LOCAL cycles before
  9  INTERNAL TRACE         ===> NO        Automatic start of tracing







 PRESS:  ENTER to continue   RETURN to exit   HELP for more information



                 INSTALL DB2 - PROTECTION
 ===>
      _

 Enter data below:

  1  MVS CATALOG       ===>            MVS catalog control password
  2  BSDS PASSWORD     ===>            Bootstrap data sets password
  3  LOG PASSWORD      ===>            Active log data sets password
  4  ARCHIVE LOG PW    ===>            Archive log data sets password
  5  ARCHIVE LOG RACF  ===> NO         RACF protect archive log data set
  6  DIRECTORY/CATALOG ===>            DB2 directory and catalog passwor
  7  USE PROTECTION    ===> YES        DB2 authorization enabled.  YES o
  8  SYSTEM ADMIN 1    ===> DB2CSC     Authid of system administrator
  9  SYSTEM ADMIN 2    ===> CSCDB2     Authid of system administrator
 10  SYSTEM OPERATOR 1 ===> DB2CSC     Authid of system operator
 11  SYSTEM OPERATOR 2 ===> CSCDB2     Authid of system operator
 12  UNKNOWN AUTHID    ===> IBMUSER    Authid of default (unknown) user
 13  RESOURCE AUTHID   ===> SYSIBM     Authid of Resource Limit Table cr




 PRESS:  ENTER to continue   RETURN to exit   HELP for more information



                 INSTALL DB2 - MVS PARMLIB UPDATES
 ===>
      _

 Check data and reenter to change:

  1  SUBSYSTEM NAME      ===> D2DB       Name for connecting to DB2
  2  SUBSYSTEM PREFIX    ===> +          One character to denote subsyst
  3  SUBSYSTEM MEMBER    ===> 00         xx in IEFSSNxx
  4  SUBSYSTEM SEQUENCE  ===> 88888888   Sequence number for insertion
  5  AUTH MEMBER         ===> 00         xx in IEAAPFxx APF member name
  6  AUTH SEQUENCE       ===> 88888888   Sequence number for insertion
  7  LINK LIST ENTRY     ===> 00         xx in LNKLSTxx for DSNLINK
  8  LINK LIST SEQUENCE  ===> 88888888   Sequence number for insertion









 PRESS:  ENTER to continue   RETURN to exit   HELP for more information



                 INSTALL DB2 - ACTIVE LOG DATA SET PARAMETERS
 ===>
      _

 Enter data below:

   1 NUMBER OF LOGS    ===> 3        Number data sets per active log cop
   2 INPUT BUFFER      ===> 28K      Size in bytes (28K-60K)
   3 OUTPUT BUFFER     ===> 400K     Size in bytes (40K-4000K)
   4 WRITE THRESHOLD   ===> 20       Buffers filled before write (1-256)
   5 ARCHIVE LOG FREQ  ===> 24       Hours per archive run
   6 UPDATE RATE       ===> 3600     Updates, inserts, and deletes per h











 PRESS:  ENTER to continue   RETURN to exit   HELP for more information



                 INSTALL DB2 - ARCHIVE LOG DATA SET PARAMETERS
 ===>
      _

 Enter data below:

   1  ALLOCATION UNITS ===> BLK       Blk, Trk, or Cyl
   2  PRIMARY QUANTITY ===>           Primary space allocation
   3  SECONDARY QTY.   ===>           Secondary space allocation
   4  CATALOG DATA     ===> NO        YES or NO to catalog archive data
   5  DEVICE TYPE      ===> 3480      Unit name for archive logs
   6  BLOCK SIZE       ===> 28672     Rounded up to 4096 multiple
   7  MAX CONCURRENT   ===> 2         Number of input volumes allocated
   8  RECORDING MAX    ===> 500       Number of data sets recorded in BS
   9  MSVGP 1          ===>           Mass storage volume group (MSVGP)
  10  MSVGP 2          ===>           MSVGP for second archive copy
  11  WRITE TO OPER    ===> YES       Issue WTOR before mount for archiv
  12  WTOR ROUTE CODE  ===> 1,3,4
                                      Routing codes for archive WTORs
  13  RETENTION PERIOD ===> 9999      Days to retain archive log data se
  14  QUIESCE PERIOD   ===> 5         Maximum quiesce interval (1-999)
  15  COMPACT DATA     ===> NO        YES or NO for data compaction

 PRESS:  ENTER to continue   RETURN to exit   HELP for more information



                 INSTALL DB2 - DATABASES AND SPACES TO START AUTOMATICAL
 ===>
      _

 Enter data below:

  1  ===> RESTART       RESTART or DEFER the objects named below.
     The objects to restart or defer may be ALL in item 2, a database
     name, or database name.space name.

  2  ==> ALL               14  ==>                   26  ==>
  3  ==>                   15  ==>                   27  ==>
  4  ==>                   16  ==>                   28  ==>
  5  ==>                   17  ==>                   29  ==>
  6  ==>                   18  ==>                   30  ==>
  7  ==>                   19  ==>                   31  ==>
  8  ==>                   20  ==>                   32  ==>
  9  ==>                   21  ==>                   33  ==>
 10  ==>                   22  ==>                   34  ==>
 11  ==>                   23  ==>                   35  ==>
 12  ==>                   24  ==>                   36  ==>
 13  ==>                   25  ==>                   37  ==>

 PRESS:  ENTER to continue   RETURN to exit   HELP for more information



                 INSTALL DB2 - DISTRIBUTED DATA FACILITY
 ===>
      _

 Enter data below:

  1 DDF STARTUP OPTION   ===> NO        NO (DDF not startable),
                                        AUTO (automatic start up), or
                                        COMMAND (start by command)
  2 DB2 LOCATION NAME    ===> D2DB              The name other DB2s use
                                                refer to this DB2
  3 DB2 NETWORK LUNAME   ===> MVSWD2DB  The name VTAM uses to refer to t
  4 DB2 NETWORK PASSWORD ===> MVSWD2DB  Password for connecting to other
  5 RLST ACCESS ERROR    ===> NOLIMIT   Action on non-local RLST access
                                        NOLIMIT   - Run without limit
                                        NORUN     - Do not run at all
                                        1-5000000 - Limit in CPU service






 PRESS:  ENTER to continue   RETURN to exit   HELP for more information



                 INSTALL DB2 - DATA DEFINITION CONTROL SUPPORT
 ===>
      _

 Enter data below:

  1 INSTALL DD CONTROL SUPT. ===> NO        YES - activate the support
                                            NO  - omit DD control suppor
  2 CONTROL ALL APPLICATIONS ===> NO        YES or NO
  3 REQUIRE FULL NAMES       ===> YES       YES or NO
  4 UNREGISTERED DDL DEFAULT ===> ACCEPT    Action for unregistered DDL:
                                            ACCEPT - allow it
                                            REJECT - prohibit it
                                            APPL   - consult ART

  5 REGISTRATION OWNER       ===> DSNRGCOL          Qualifier for ART an
  6 REGISTRATION DATABASE    ===> DSNRGFDB          Database name
  7 APPL REGISTRATION TABLE  ===> DSN_REGISTER_APPL Table name
  8 OBJT REGISTRATION TABLE  ===> DSN_REGISTER_OBJT Table name

 Note: ART = Application Registration Table
       ORT = Object      Registration Table

 PRESS:  ENTER to continue   RETURN to exit   HELP for more information



                 INSTALL DB2 - JOB EDITING
 ===>
      _

 Enter data below:

  1  REMOTE LOCATION   ===> DB2M             Remote location for COBOL
                                             organization application
  2  COBOL TYPE        ===> COB2             COBOL for sample applicatio
                                             (COBOL OR COB2)

 Enter job card information for install and sample jobs:

  3 ===> //DB2CSC JOB (A006,SYTM),'10DB2DPB',CLASS=S,MSGCLASS=V,
  4 ===> //  REGION=4M
  5 ===>
  6 ===>






 PRESS:  ENTER to continue   RETURN to exit   HELP for more information



                 INSTALL DB2 - JOB EDITING
 ===>
      _

 Enter data below:

  1  REMOTE LOCATION   ===> DB2M             Remote location for COBOL
                                             organization application
  2  COBOL TYPE        ===> COB2             COBOL for sample applicatio
                                             (COBOL OR COB2)

 Enter job card information for install and sample jobs:

  3 ===> //DB2CSC JOB (A006,SYTM),'10DB2DPB',CLASS=S,MSGCLASS=V,
  4 ===> //  REGION=4M
  5 ===>
  6 ===>






 PRESS:  ENTER to continue   RETURN to exit   HELP for more information



                 INSTALL DB2 - CLIST CALCULATIONS - PANEL 1
 ===>
      _

  You may update the EDMPOOL size if necessary.

    1  DSNT485I  EDMPOOL STORAGE SIZE    =     3372  K
    2  DSNT485I  BUFFER POOL SIZE        =     6784  K
    3  DSNT485I  SORT POOL SIZE          =      678  K
    4  DSNT485I  RID POOL SIZE           =     3392  K
    5  DSNT485I  DATA SET STORAGE SIZE   =     1800  K
    6  DSNT485I  CODE STORAGE SIZE       =     4200  K
    7  DSNT485I  WORKING STORAGE SIZE    =     4380  K
    8  DSNT486I  TOTAL MAIN STORAGE      =    29366  K
    9  DSNT448I  RECOMMENDED REAL STORAGE=    29245  K
   10  DSNT487I  TOTAL STORAGE BELOW 16M =      702  K (WITH SWA ABOVE 1
   11  DSNT438I  WARNING,
                 IRLM LOCK MAXIMUM SPACE =   249023  K, AVAILABLE =



 PRESS:  ENTER to continue   RETURN to exit   HELP for more information



./ ADD NAME=GLOBAL   0119-91294-93161-1513-00084-00022-00000-MANN
************************************************************************
*****                                                              *****
*****                    DATA BASE                                 *****
*****       SINGLE SYSTEM IMAGE GLOBAL CHANGE LOG                  *****
*****                                                              *****
************************************************************************

NAME     USERID  DATE     TIME  DESCRIPTION OF CHANGE
-------- ------- -------- ----- ----------------------------------------
TOMIAK   KETCSC  06/10/93 10:00 RECEIVED PTFS AND APARS FOR #07307
                                UN24478, UN38238, UN37026, AN34321
                                AN38652, UN41828, UN40096
-------- ------- -------- ----- ----------------------------------------
MANNY    MANN    06/10/93 08:15 XDBS.INSTALL.CNTL(SMPRECSV)
                                RECEIVED IE/SERV TAPE FOR UN41111
                                PTF REPLACING APAR AN34999
                                FOR DEADLOCK PROBLEM ON DOF
-------- ------- -------- ----- ----------------------------------------
-------- ------- -------- ----- ----------------------------------------
MANNY    MANN    05/28/93 14:24 XDBS.INSTALL.CNTL(SMPRCPDO)
                                RECEIVED CBPDO 9320
-------- ------- -------- ----- ----------------------------------------
-------- ------- -------- ----- ----------------------------------------
WESTON   LAWCSC  05/18/93 17:00 RECEIVED PTF ???
                                USING IE/SERV PROCESS
-------- ------- -------- ----- ----------------------------------------
-------LEVEL-04------------------------------------LEVEL-04-------------
-------LEVEL-04------------------------------------LEVEL-04-------------
-------LEVEL-04------------------------------------LEVEL-04-------------
-------- ------- -------- ----- ----------------------------------------
TOMIAK   KETCSC  03/30/93 17:10 RECEIVED PTF  UN34966 FOR IMAGCOPY
                                DEADLOCK PROBLEM ON DOF PREREQ FOR BELOW
-------- ------- -------- ----- ----------------------------------------
TOMIAK   KETCSC  03/30/93 15:30 RECEIVED APAR AN34999 FOR IMAGCOPY
                                DEADLOCK PROBLEM ON DOF
-------- ------- -------- ----- ----------------------------------------
WESTON   LAWCSC  03/30/93 10:30 RECEIVED ?
-------- ------- -------- ----- ----------------------------------------
BORGES   BORGY   10/09/92 14:30 RECEIVED CBPDO 9240 (DB2 V2.3)
-------- ------- -------- ----- ----------------------------------------
SOPPITT  DD20010 09/30/92 13:00 RECEIVED SOURCEID(6X071) FOR DB2 V2.3.
                                FIXES ERRORS IN BINDING LARGE PLANS.
-------- ------- -------- ----- ----------------------------------------
TOMIAK   KETCSC  09/17/92 09:00 RECEIVED PTF UNXXXXX FOR DB2 2.3
                                FIXES DSNJ008E INVALID REPLY ERROR
-------- ------- -------- ----- ----------------------------------------
BORGES   BORGY   06/26/92 11:35 RECEIVED CBPDO PDO9224. (QMF V3.1)
-------- ------- -------- ----- ----------------------------------------
BORGES   BORGY   05/28/92 10:58 RE-RECEIVED CBPDO PDO9215.(ORIGNAL
                                RECEIVE INADVERTENTLY POINTED TO DBST
                                SCDS,MTS, AND STS DATASETS. DELETED
                                TV2R3 TARGET, RECLONED FROM DB2M, RE-
                                CEIVED, APPLIED, AND ACCEPTED AGAIN).
-------- ------- -------- ----- ----------------------------------------
SOPPITT  DB2CSC  05/19/92 10.20 RECEIVED SELECTED PTF'S FOR CICS V3.2
                                AND FOR POSSIBLE FALL BACK FROM DB2 V2.3
                                (TOLERATION PTF'S).
-------- ------- -------- ----- ----------------------------------------
BORGES   BORGY   05/13/92 10:58 RECEIVED CBPDO PDO9215 (DB2 V2.3)
-------- ------- -------- ----- ----------------------------------------
BORGES   BORGY   03/30/92 11:00 RECEIVE UN16849 FROM TAPE VOLSER=C97301
-------- ------- -------- ----- ----------------------------------------
-------LEVEL-02------------------------------------LEVEL-02-------------
-------LEVEL-02------------------------------------LEVEL-02-------------
-------LEVEL-02------------------------------------LEVEL-02-------------
-------- ------- -------- ----- ----------------------------------------
TOMIAK   DMV0016 12/04/91 11:00 REJECT NOFMID
-------- ------- -------- ----- ----------------------------------------
-------- ------- -------- ----- ----------------------------------------
MANNY    DD20010 11/05/91 09:00 RECEIVED CSP OSIP/CUM SERVICE TAPE
-------- ------- -------- ----- ----------------------------------------
SHEILA   DD20004 10/21/91 10:00 RECEIVED CSP/AE
-------- ------- -------- ----- ----------------------------------------
MANNY    DD20010 10/21/91 09:00 RECEIVED CSP/AD
-------- ------- -------- ----- ----------------------------------------
MANNY    DD20010 10/21/91 09:00 CHANGED SMPTLIB TO INCLUDE DSSPACE
-------- ------- -------- ----- ----------------------------------------
MANNY    DD20010 10/19/91 09:00 CHANGED SMPTLIB TO POINT TO DB2S01
-------- ------- -------- ----- ----------------------------------------
TOMIAK   DMV0016 10/15/91 12:00 MOVED GLOBAL DATA SETS TO DB2S01
-------- ------- -------- ----- ----------------------------------------
-------LEVEL-01------------------------------------LEVEL-01-------------
-------LEVEL-01------------------------------------LEVEL-01-------------
-------LEVEL-01------------------------------------LEVEL-01-------------
./ ADD NAME=INFOTEL  0105-92248-93091-0759-00045-00027-00000-DD20009
************************************************************************
*****                                                              *****
*****                 INFOTEL PRODUCTS                             *****
*****                                                              *****
*****       INFOPAK - COMPRESSION ROUTINES                         *****
*****       INFOTOOL - DBA UTILITIES                               *****
*****       INFOSCOPE (?) - PLAN ANALYZER                          *****
*****                                                              *****
************************************************************************

NAME     USERID  DATE     TIME  DESCRIPTION OF CHANGE
-------- ------- -------- ----- ----------------------------------------
MUNDO    FMMCSC  09/01/92 13:45 XBDS.INSTALL.CNTL(INFO@DB2)
                                EXTRACTS INFOTOOL AND APPLIES ZAPS
-------- ------- -------- ----- ----------------------------------------
MUNDO    FMMCSC  09/01/92 13:40 XDBS.INSTALL.CNTL(INFOBR14)
                                ALLOCATES THE INSTALLATION LIBRARIES:
                                XDBS.INFOTOOL.DB2LIB
                                XDBS.INFOTOOL.MVSLOAD
                                XDBS.INFOTOOL.MVSLINK
                                XDBS.INFOTOOL.SAMPLIB
                                XDBS.INFOTOOL.DB2DBRM
                                XDBS.INFOTEL.LOADLIB
                                XDBS.INFOTEL.PARMLIB
-------- ------- -------- ----- ----------------------------------------
MUNDO    FMMCSC  09/01/92 13:30 XBDS.INSTALL.CNTL(INFO@PAK)
                                EXTRACTS INFOPAK AND APPLIES ZAPS
-------- ------- -------- ----- ----------------------------------------
MUNDO    FMMCSC  09/01/92 13:25 XDBS.INSTALL.CNTL(PAKBR14)
                                ALLOCATES THE INSTALLATION LIBRARIES:
                                XDBS.INFOPAK.DB2DBRM
                                XDBS.INFOPAK.DB2LINK
                                XDBS.INFOPAK.MVSLOAD
-------- ------- -------- ----- ----------------------------------------
MUNDO    FMMCSC  09/01/92 13:15 XBDS.INSTALL.CNTL(INFOUNLD)
                                COPIES THE TWO TAPE FILES TO DISK
                                ALLOCATES XDBS.INFO.INSTALL
                                          XDBS.INFO.SYSLIN
-------- ------- -------- ----- ----------------------------------------
MUNDO    FMMCSC  09/01/92 13:00 GOT A TAPESCAN OF PK4481
-------- ------- -------- ----- ----------------------------------------
-------LEVEL-01------------------------------------LEVEL-01-------------
-------LEVEL-01------------------------------------LEVEL-01-------------
-------LEVEL-01------------------------------------LEVEL-01-------------
-------- ------- -------- ----- ----------------------------------------
./ ADD NAME=LEVELS   0199-92205-94030-0753-00054-00049-00000-DD20001
************************************************************************
***           *****************************************              ***
***               DB2 SOFTWARE TRACKING LEVEL BOARD                  ***
***           *****************************************              ***
************************************************************************
                            MIGRATED           SMP/E UPDATED
ZONE         LEVEL      DATE      TIME       DATE    TIME   USERID
=========    =====    ========    =====    ========  =====  ========
GLOBAL         04     01/01/91    11:00    06/10/93  10:00  KETCSC
---------------------------------------------------SMP/E    -----GLOBAL
DBSD           01     02/27/92    11:00    11/27/91  09:00  DMV0016
---------------------------------------------------DB2      -----DBS
TV2R3          16     03/30/92    11:00    01/06/94  08:15  KETCSC
DV2R3          07     03/30/92    11:00    01/06/94  08:15  KETCSC
---------------------------------------------------DB2      -----V2R3
CSPD           01     02/27/92    11:00    10/21/91  16:00  DMV0016
---------------------------------------------------CSP      -----CSPD
CSPDVL         01     02/27/92    11:00    10/21/91  16:00  DMV0016
---------------------------------------------------CSP      -----CSPDVL
CSPPRD         01     02/27/92    11:00    10/21/91  16:00  DMV0016
---------------------------------------------------CSP      -----CSPPRD
CSPT           01     02/27/92    11:00    10/21/91  16:00  DMV0016
---------------------------------------------------CSP      -----CSPT
CSPX           02     10/25/93    12:59    05/18/93  17:01  LAWCSC
---------------------------------------------------CSP      -----CSPX
CSP370T        02     05/18/93    17:01    05/18/93  17:01  LAWCSC
---------------------------------------------------CSP      -----CSP370T
DB2M           15     11/04/93    15:53    11/04/93  09:30  ACSCPAB
---------------------------------------------------DB2      -----DB2M
DB2X           13     10/08/93    10:41    09/01/93  10:45  DD20008
---------------------------------------------------DB2      -----DB2X
BDDB2         13A     01/23/94    07:47    11/16/93  16:45  DD20001
DDB2           16     01/23/94    07:49    01/06/94  08:15  DD20001
---------------------------------------------------DB2      -----DDB2
BDSN          13A     01/06/94    08:28    11/16/93  16:45  DD20008
DSN            15     01/06/94    08:30    11/04/93  09:30  DD20008
---------------------------------------------------DB2      -----DSN
BD1DB          13     01/09/94    12:28    09/01/93  10:45  LAWCSC
D1DB           15     01/09/94    12:30    11/04/93  09:30  LAWCSC
---------------------------------------------------DB2      -----D1DB
BD2DB          13     01/09/94    09:24    09/01/93  10:45  LAWCSC
D2DB           15     01/09/94    09:27    11/04/93  09:30  LAWCSC
---------------------------------------------------DB2      -----D2DB
BPDB2         13A     01/30/94    07:50    11/16/93  16:45  DD20001
PDB2           16     01/30/94    07:53    01/06/94  08:15  DD20001
---------------------------------------------------DB2      -----PDB2
BP1DB          13     01/16/94    11:05    09/01/93  10:45  PETE
P1DB           15     01/16/94    11:08    11/04/93  09:30  PETE
---------------------------------------------------DB2      -----P1DB
TP2DB          15     12/02/93    10:00    11/04/93  09:30  LAWCSC
P2DB           15     12/03/93    11:52    11/04/93  09:30  LAWCSC
---------------------------------------------------DB2      -----P2DB
CSPE           02     01/26/94    12:09    05/18/93  17:01  LAWCSC
-----------------------------------------------------------------CSPE
./ ADD NAME=OEMDSLST 0117-93171-93357-1521-00063-00045-00063-KETCSC
DB2GRP    DB2GRP.CLIST                 X
DB2GRP    DB2GRP.CNTL                  X
DB2GRP    DB2GRP.DBRMLIB
DB2GRP    DB2GRP.EXEC
DB2GRP    DB2GRP.HELP
DB2GRP    DB2GRP.LOADLIB
DB2GRP    DB2GRP.MACLIB
DB2GRP    DB2GRP.MSGS
DB2GRP    DB2GRP.PANELS
DB2GRP    DB2GRP.SKELS
DB2GRP    DB2GRP.SOURCE
DB2GRP    DB2GRP.TABLES
DYNBKUP   DYNBKUP.DBRMLIB
DYNBKUP   DYNBKUP.IMAGCOPY
DYNBKUP   DYNBKUP.INPUT
DYNBKUP   DYNBKUP.LOADLIB              X
DYNBKUP   DYNBKUP.SOURCE
INFOTEL   INFOPAK.DB2DBRM
INFOTEL   INFOPAK.DB2LINK
INFOTEL   INFOPAK.MVSLOAD
INFOTEL   INFOTEL.LOADLIB              X
INFOTEL   INFOTEL.PARMLIB
INFOTEL   INFOTOOL.DB2DBRM
INFOTEL   INFOTOOL.MVSLINK
INFOTEL   INFOTOOL.MVSLOAD
INFOTEL   INFOTOOL.RELOAD
INFOTEL   INFOTOOL.SAMPLIB
INFOTEL   INFOTOOL.UNLOAD
PCSQL     PCSQL.CLIST
PCSQL     PCSQL.CNTL
PCSQL     PCSQL.LIBRARY
PCSQL     PCSQL.LOAD                   X
PLATINUM  PLATINUM.BPMODLIB
PLATINUM  PLATINUM.CLIST
PLATINUM  PLATINUM.CONTROL
PLATINUM  PLATINUM.DBRMLIB
PLATINUM  PLATINUM.LOADLIB             X
PLATINUM  PLATINUM.MODEL
PLATINUM  PLATINUM.PARMLIB
PLATINUM  PLATINUM.SPFMLIB
PLATINUM  PLATINUM.SPFPLIB
PLATINUM  PLATINUM.SPFSLIB
PLATINUM  PLATINUM.SPFTLIB
PLATINUM  PLATINUM.SRCLIB
PLATINUM  PLATINUM.XMESSAGE
PROEDIT   PROEDIT.CLIST
PROEDIT   PROEDIT.CONTROL
PROEDIT   PROEDIT.DBRMISO
PROEDIT   PROEDIT.ISPMLIB
PROEDIT   PROEDIT.ISPPLIB
PROEDIT   PROEDIT.ISPSLIB
PROEDIT   PROEDIT.LOADISO              X
PROEDIT   PROEDIT.PROFILE
PROEDIT   PROINSTL.CLINKLIB
PROEDIT   PROINSTL.PRODKEYS
TSOISPF   TSOISPF.CLIST                X
TSOISPF   TSOISPF.EXEC
TSOISPF   TSOISPF.HELP
TSOISPF   TSOISPF.LOADLIB
TSOISPF   TSOISPF.MSGS
TSOISPF   TSOISPF.PANELS
TSOISPF   TSOISPF.SKELS
TSOISPF   TSOISPF.TABLES
./ ADD NAME=OEMLVL   0199-93188-94014-0841-00136-00019-00000-FMMCSC
************************************************************************
***           *****************************************              ***
***               OEM SOFTWARE TRACKING LEVEL BOARD                  ***
***           *****************************************              ***
************************************************************************
                            MIGRATED           SMP/E UPDATED
PRODUCT     ZONE     LEVEL    DATE     TIME      DATE    TIME    USERID
========  ========   =====  ========   =====   ========  =====  ========
DB2GRP    BDB2M       01    11/26/93   15:13   11/14/93  16:00  KETCSC
DB2GRP    DB2M        01    11/26/93   15:13   11/14/93  16:00  KETCSC
---------------------------------------------------DB2GRP   -----DB2M
DB2GRP    DB2X        01    11/17/93   16:07   11/14/93  16:00  DD20008
---------------------------------------------------DB2GRP   -----DB2X
DB2GRP    DDB2        01    11/17/93   16:11   11/14/93  16:00  DD20008
---------------------------------------------------DB2GRP   -----DDB2
DB2GRP    DSN         01    11/18/93   08:55   11/14/93  16:00  KETCSC
---------------------------------------------------DB2GRP   -----DSN
DB2GRP    TD1DB       01    11/23/93   15:48   11/14/93  16:00  KETCSC
DB2GRP    D1DB        01    12/22/93   11:44   11/14/93  16:00  KETCSC
---------------------------------------------------DB2GRP   -----D1DB
DB2GRP    BD2DB       01    11/23/93   17:01   11/14/93  16:00  KETCSC
DB2GRP    D2DB        01    11/23/93   17:01   11/14/93  16:00  KETCSC
DB2GRP    TD2DB       01    12/23/93   15:27   11/14/93  16:00  KETCSC
---------------------------------------------------DB2GRP   -----D2DB
DB2GRP    PDB2        01    11/17/93   16:12   11/14/93  16:00  DD20008
---------------------------------------------------DB2GRP   -----PDB2
DB2GRP    P1DB        01    12/22/93   11:45   11/14/93  16:00  KETCSC
---------------------------------------------------DB2GRP   -----P1DB
DB2GRP    BP2DB       01    12/27/93   14:27   11/14/93  16:00  KETCSC
DB2GRP    P2DB        01    12/27/93   14:28   11/14/93  16:00  KETCSC
---------------------------------------------------DB2GRP   -----P2DB
DB2GRP    XDBS        01    11/26/93   13:57   11/14/93  16:00  DMV0016
---------------------------------------------------DB2GRP   -----XDBS
DYNBKUP   XDBS        01    05/15/91   11:00   05/15/91  13:45  MANN
DYNBKUP   P2DB        01    12/09/93   12:31   05/15/91  13:45  LAWCSC
---------------------------------------------------DYNBKUP  -----P2DB
DYNBKUP   DB2M        01    05/15/91   11:00   05/15/91  13:45  MANN
---------------------------------------------------DYNBKUP  -----DB2M
DYNBKUP   D2DB        01    05/15/91   11:00   05/15/91  13:45  MANN
---------------------------------------------------DYNBKUP  -----D2DB
DYNBKUP   D1DB        01    05/15/91   11:00   05/15/91  13:45  MANN
---------------------------------------------------DYNBKUP  -----D1DB
DYNBKUP   P1DB        01    05/15/91   11:00   05/15/91  13:45  MANN
---------------------------------------------------DYNBKUP  -----P1DB
DYNBKUP   DB2X        01    05/15/91   11:00   05/15/91  13:45  DD20006
---------------------------------------------------DYNBKUP  -----DB2X
DYNBKUP   PDB2        01    05/15/91   11:00   05/15/91  13:45  DD20006
---------------------------------------------------DYNBKUP  -----PDB2
DYNBKUP   DDB2        01    05/15/91   11:00   05/15/91  13:45  DD20006
---------------------------------------------------DYNBKUP  -----DDB2
DYNBKUP   DSN         01    05/15/91   11:00   05/15/91  13:45  DD20006
---------------------------------------------------DYNBKUP  -----DSN
INFOTEL   XDBS        01    03/30/93   11:00   12/01/92  13:45  FMMCSC
---------------------------------------------------INFOTEL  -----P2DB
INFOTEL   P2DB        01    12/08/93   13:20   12/01/92  13:45  LAWCSC
---------------------------------------------------INFOTEL  -----P2DB
INFOTEL   D2DB        01    12/01/92   11:00   12/01/92  13:45  FMMCSC
---------------------------------------------------INFOTEL  -----D2DB
INFOTEL   DB2M        01    12/01/92   10:10   12/01/92  13:45  FMMCSC
---------------------------------------------------INFOTEL  -----DB2M
INFOTEL   DB2X        01    12/01/92   10:10   12/01/92  13:45  DD20006
---------------------------------------------------INFOTEL  -----DB2X
INFOTEL   PDB2        01    03/30/93   10:10   12/01/92  13:45  DD20006
---------------------------------------------------INFOTEL  -----PDB2
INFOTEL   DDB2        01    03/30/93   10:10   12/01/92  13:45  DD20006
---------------------------------------------------INFOTEL  -----DDB2
INFOTEL   DSN         01    03/30/93   10:10   12/01/92  13:45  DD20006
---------------------------------------------------INFOTEL  -----DSN
OMEGDB2   DB2M        01    03/30/93   10:10   11/10/93  11:45  MJLCSC
OMEGDB2   TDB2M       01    03/30/93   10:10   11/10/93  11:45  MJLCSC
OMEGDB2   TOMGDB2     01    03/30/93   10:10   11/10/93  11:45  MJLCSC
---------------------------------------------------OMEGDB2  -----DB2M
PCSQL     XDBS        01    09/08/92   11:00   09/08/92  13:45  LAWCSC
---------------------------------------------------PCSQL    -----P2DB
PCSQL     P2DB        01    12/08/93   11:00   09/08/92  13:45  LAWCSC
---------------------------------------------------PCSQL    -----XDBS
PCSQL     DB2M        01    09/08/92   11:00   09/08/92  13:45  LAWCSC
---------------------------------------------------PCSQL    -----DB2M
PCSQL     DB2X        01    09/22/92   11:00   09/08/92  13:45  DD20006
---------------------------------------------------PCSQL    -----DB2X
PCSQL     PDB2        01    12/01/92   11:00   09/08/92  13:45  DD20006
---------------------------------------------------PCSQL    -----PDB2
PCSQL     DDB2        01    11/18/92   11:00   09/08/92  13:45  DD20006
---------------------------------------------------PCSQL    -----DDB2
PCSQL     DSN         01    11/09/92   11:00   09/08/92  13:45  DD20006
---------------------------------------------------PCSQL    -----DSN
PLATINUM  XDBS        01    06/15/93   13:45   06/15/93  11:45  MANN
---------------------------------------------------PLATINUM -----XDBS
PLATINUM  D1DB        01    10/18/93   17:08   06/15/93  11:45  FMMCSC
---------------------------------------------------PLATINUM -----D1DB
PLATINUM  PDB2        01    08/20/93   14:59   06/15/93  11:45  DD20009
---------------------------------------------------PLATINUM -----PDB2
PLATINUM  DDB2        01    08/20/93   14:22   06/15/93  11:45  DD20009
---------------------------------------------------PLATINUM -----DDB2
PLATINUM  DB2M        01    01/14/94   08:41   06/15/93  11:45  FMMCSC
---------------------------------------------------PLATINUM -----DB2M
PLATINUM  D2DB        01    01/13/94   08:24   06/15/93  11:45  FMMCSC
---------------------------------------------------PLATINUM -----D2DB
PLATINUM  DSN         01    07/02/93   11:00   06/15/93  11:45  DD20006
---------------------------------------------------PLATINUM -----DSN
PROEDIT   XDBS        01    06/01/92   11:00   06/01/92  11:00  MANN
---------------------------------------------------PROEDIT  -----XDBS
PROEDIT   P2DB        01    12/21/93   11:24   06/01/92  11:00  FMMCSC
---------------------------------------------------PROEDIT  -----P2DB
PROEDIT   DB2M        01    06/08/92   11:00   06/01/92  11:00  MANN
---------------------------------------------------PROEDIT  -----DB2M
PROEDIT   D2DB        01    07/28/92   11:00   06/01/92  11:00  MANN
---------------------------------------------------PROEDIT  -----D2DB
PROEDIT   DDB2        01    06/17/92   11:00   06/01/92  11:00  DD20006
---------------------------------------------------PROEDIT  -----DDB2
PROEDIT   PDB2        01    07/10/92   11:00   06/01/92  11:00  DD20006
---------------------------------------------------PROEDIT  -----PDB2
PROEDIT   DSN         01    09/02/92   11:00   06/01/92  11:00  DD20006
---------------------------------------------------PROEDIT  -----DSN
PROEDIT   DB2X        01    06/09/92   11:00   06/01/92  11:00  DD20006
---------------------------------------------------PROEDIT  -----DB2X
TSOISPF   DB2M        00    11/17/93   16:07   11/14/93  16:00  DD20008
---------------------------------------------------TSOISPF  -----DB2M
TSOISPF   DB2X        00    11/17/93   16:07   11/14/93  16:00  DD20008
---------------------------------------------------TSOISPF  -----DB2X
TSOISPF   DDB2        00    11/17/93   16:11   11/14/93  16:00  DD20008
---------------------------------------------------TSOISPF  -----DDB2
TSOISPF   DSN         00    11/17/93   16:14   11/14/93  16:00  DD20008
---------------------------------------------------TSOISPF  -----DSN
TSOISPF   D1DB        00    11/17/93   15:32   11/14/93  16:00  KETCSC
---------------------------------------------------TSOISPF  -----D1DB
TSOISPF   D2DB        00    11/17/93   15:32   11/14/93  16:00  KETCSC
---------------------------------------------------TSOISPF  -----D2DB
TSOISPF   PDB2        00    11/17/93   16:12   11/14/93  16:00  DD20008
---------------------------------------------------TSOISPF  -----PDB2
TSOISPF   P1DB        00    11/17/93   15:34   11/14/93  16:00  KETCSC
---------------------------------------------------TSOISPF  -----P1DB
TSOISPF   P2DB        00    11/17/93   15:34   11/14/93  16:00  KETCSC
---------------------------------------------------TSOISPF  -----P2DB
TSOISPF   XDBS        01    03/16/92   09:00   11/14/93  16:00  KETCSC
---------------------------------------------------TSOISPF  -----XDBS
./ ADD NAME=OMEGDB2  0113-92167-93195-1032-00322-00017-00000-MJLCSC
************************************************************************
*****                                                              *****
*****         CCCC   DDDD     CCCC    SSS      A                   *****
*****        C       D   D   C       S        A A                  *****
*****        C       D   D   C        SSS    AAAAA                 *****
*****        C       D   D   C           S   A   A                 *****
*****         CCCC   DDDD     CCCC    SSS    A   A                 *****
*****                                                              *****
*****        SINGLE SYSTEM IMAGE TARGET CHANGE LOG                 *****
*****                                                              *****
************************************************************************
NAME      USERID  DATE     TIME  DESCRIPTION OF CHANGE
-------- ------- -------- ----- ----------------------------------------
LOVARI   MJLCSC  11/25/92 16:00 XDBS.INSTALL.CNTL(JO2APCKM)
                                APPLY CHECK maintenance SYSMODS
-------- ------- -------- ----- ----------------------------------------
LOVARI   MJLCSC  11/25/92 11:30 XDBS.INSTALL.CNTL(JO2RECM)
                                receive maintenance SYSMODS
-------- ------- -------- ----- ----------------------------------------
-------- ------- -------- ----- ----------------------------------------
LOVARI   MJLCSC  08/27/92 09:30 XDBS.INSTALL.CNTL(JO2acc)
                                accepts SYSMODS to distribution
                                library datasets
-------- ------- -------- ----- ----------------------------------------
LOVARI   MJLCSC  08/27/92 08:50 XDBS.INSTALL.CNTL(JO2accck)
                                check conditions for SMP/E ACCEPT
-------- ------- -------- ----- ----------------------------------------
-------- ------- -------- ----- ----------------------------------------
LOVARI   MJLCSC  08/26/92 16:30 XDBS.INSTALL.CNTL(JO2apl)
                                apply SYSMODS to target library datasets
-------- ------- -------- ----- ----------------------------------------
LOVARI   MJLCSC  08/26/92 15:30 XDBS.INSTALL.CNTL(JO2aplck)
                                check conditions for SMP/E APPLY
-------- ------- -------- ----- ----------------------------------------
LOVARI   MJLCSC  08/26/92 14:30 XDBS.INSTALL.CNTL(JO2allib)
                                allocate target and dlib datasets
-------- ------- -------- ----- ----------------------------------------
LOVARI   MJLCSC  08/26/92 09:15 XDBS.INSTALL.CNTL(JO2REC)
                                received product function SYSMODS
-------- ------- -------- ----- ----------------------------------------
-------- ------- -------- ----- ----------------------------------------
TOMIAK   KETCSC  08/25/92 15:25 XDBS.INSTALL.CNTL(JO2inits)
LOVARI                          smp/e dddefs, options, etc...
-------- ------- -------- ----- ----------------------------------------
TOMIAK   KETCSC  08/25/92 15:24 XDBS.INSTALL.CNTL(JO2ALsmp)
LOVARI                          ALLOCATES smp/e libraries
-------- ------- -------- ----- ----------------------------------------
TOMIAK   KETCSC  08/25/92 15:22 XDBS.INSTALL.CNTL(JO2ALCSI)
LOVARI                          ALLOCATES VSAM CLUSTERS FOR CSIS.
-------- ------- -------- ----- ----------------------------------------
TOMIAK   KETCSC  08/25/92 13:45 SCREEN PRINTS FROM CLIST ARE:
LOVARI


SIPDASD ------------------ DEFINE DATASET PARAMETERS -------------------
COMMAND ===>
             _
 Enter the parameters required by your data center.
 NOTE: Do not use quotation marks for dataset qualifiers.

 OMEGAVIEW Receive Tape:
    Tape Volume Serial    ===> CY9773     Unit type ===> NOSILO

 SMP Datasets:
    High Level Qualifier  ===> XDBS.CANDLE
    Disk Volume Serial    ===> DB2S01     Unit type ===> 3390
                                     Work unit type ===> SYSDA

 TARGET Datasets:
    High Level Qualifier  ===> DBST.OMEGVIEW
    Disk Volume Serial    ===> DB2S01     Unit type ===> 3390

 DLIB Datasets:
    High Level Qualifier  ===> DBSD.OMEGVIEW
    Disk Volume Serial    ===> DB2S01     Unit type ===> 3390

 Press ENTER to display next panel.
 Enter END to return to Installation Menu.
 Press HELP for more information.


SIPFMIDS ---------------- SELECT TARGET SYSTEM OPTIONS -----------------
COMMAND ===>
             _

  SMP/E Release number:

   S  SMP/E Release 5
   _  SMP/E Release 4

  TARGET operating system:

   S  MVS/ESA - SP4
      MVS/ESA - SP3
   _  MVS/XA  - SP2
   _  MVS/370 - SP1






 Press ENTER to generate JCL for later job submission.
 Enter END to return to previous panel.

Creating jobstreams in XDBS.CANDLE.INSTCLST:

  For MVS/ESA SP4,  using SMP Release 5

    JMVALSMP: Allocate SMP datasets
    JMVALCSI: ALLOCATE CSI DATASET
    JMVALLIB: ALLOCATE TARGET AND DLIB DATASETS
    JMVINITS: INITIALIZE SMP CSI DATASET
    JMVREC: RECEIVE
    JMVAPLCK: APPLY CHECK
    JMVAPL: APPLY
    JMVACCCK: ACCEPT CHECK
    JMVACC: ACCEPT

End of jobstream generation.
-------- ------- -------- ----- ----------------------------------------
TOMIAK   KETCSC  08/25/92 13:40 TSO EX 'XDBS.CANDLE.INSTCLST(INSTALL)'
                                IT WILL CREATE JCL TO INSTALL THE BASE
                                PRODUCT.
-------- ------- -------- ----- ----------------------------------------
TOMIAK   KETCSC  08/25/92 13:30 SCREEN PRINTS FROM CLIST ARE:
LOVARI

.  .  .  .  .  .  .  .  .  .  .  .  .  .  .  .  .  .  .  .  .  .  .  .
------------------ PRODUCT SELECTION MENU - INSTALLER V105.M03 --  ROW 1
OPTION  ===>
             _

 Enter an S to the left of the product to be installed.

 To exit the Candle Installer please enter the END command
 following the OPTION statement.

       PRODUCT                      VERSION   RELEASE   INSTALLATION
        TITLE                        NUMBER    NUMBER    DATE

  _    AF OPERATOR                    V221      1.0     NOT INSTALLED
  _    CL/SUPERSESSION, CL/GATEWAY    V146      1.0     NOT INSTALLED
  _    DELTAMON FOR MVS               V320      1.0     NOT INSTALLED
  _    EPILOG AND DELTAMON FOR MVS    V320      1.0     NOT INSTALLED
  _    EPILOG FOR IMS                 V400      1.0     NOT INSTALLED
  _    EPILOG FOR MVS                 V320      1.0     NOT INSTALLED
  _    OMEGAMON FOR CICS/ESA          V550      1.0     NOT INSTALLED
  _    OMEGAMON FOR IMS               V400      1.0     NOT INSTALLED
  _    OMEGAMON FOR MVS               V720      1.0     NOT INSTALLED
  S    OMEGAMON II FOR DB2            V250      1.0     NOT INSTALLED
  _    OMEGAMON II FOR IMS            V100      1.0     NOT INSTALLED
  _    OMEGAMON II FOR MVS            V105      1.0     NOT INSTALLED


.  .  .  .  .  .  .  .  .  .  .  .  .  .  .  .  .  .  .  .  .  .  .  .
--------------------------- SMP/E INSTALLATION MENU --------------------
OPTION  ===> 1
             _

    OMEGAMON II FOR DB2
                                                           Last selected
 Perform steps 2 through 4 in order:                         Time   Date

    1   Display introductory panels

    2   Define installation parameters

    3   Allocate Candle product datasets

    4   Install using SMP/E

 Do step 5 only when the above steps have been completed:

    5   Complete the installation


 Enter HELP for more information.
 Enter END to return to product selection.



.  .  .  .  .  .  .  .  .  .  .  .  .  .  .  .  .  .  .  .  .  .  .  .
--------------------------- SMP/E INSTALLATION MENU --------------------
OPTION  ===> 2
             _

    OMEGAMON II FOR DB2
                                                           Last selected
 Perform steps 2 through 4 in order:                         Time   Date

==> 1   Display introductory panels                         13:17  92/08

    2   Define installation parameters

    3   Allocate Candle product datasets

    4   Install using SMP/E

 Do step 5 only when the above steps have been completed:

    5   Complete the installation


 Enter HELP for more information.
 Enter END to return to product selection.



.  .  .  .  .  .  .  .  .  .  .  .  .  .  .  .  .  .  .  .  .  .  .  .
-------------------------- DEFINE DATASET PARAMETERS -------------------
COMMAND ===>
             _
 Enter the parameters required by your data center.
 NOTE: Do not use quotation marks for dataset qualifiers.

 OMEGAMON II FOR DB2 Receive Tape:
    Tape Volume Serial    ===> CY9773     Unit type ===> NOSILO

 SMP Datasets:
    High Level Qualifier  ===> XDBS.CANDLE
    Disk Volume Serial    ===> DB2S01     Unit type ===> 3390
                                     Work unit type ===> SYSDA

 TARGET Datasets:
    High Level Qualifier  ===> DBST.OMEGDB2
    Disk Volume Serial    ===> DB2S01     Unit type ===> 3390

 DLIB Datasets:
    High Level Qualifier  ===> DBSD.OMEGDB2
    Disk Volume Serial    ===> DB2S01     Unit type ===> 3390

 Press ENTER to display next panel.
 Enter END to return to Installation Menu.


.  .  .  .  .  .  .  .  .  .  .  .  .  .  .  .  .  .  .  .  .  .  .  .
------------------------- SELECT TARGET SYSTEM OPTIONS -----------------
COMMAND ===>
             _

  SMP/E Release number:

   S  SMP/E Release 5
   _  SMP/E Release 4

  TARGET operating system:

   S  MVS/ESA - SP4
      MVS/ESA - SP3
   _  MVS/XA  - SP2
   _  MVS/370 - SP1






 Press ENTER to generate JCL for later job submission.
 Enter END to return to previous panel.



.  .  .  .  .  .  .  .  .  .  .  .  .  .  .  .  .  .  .  .  .  .  .  .
--------------------------- SMP/E INSTALLATION MENU -------------- JCL C
OPTION  ===>
             _

    OMEGAMON II FOR DB2
                                                           Last selected
 Perform steps 2 through 4 in order:                         Time   Date

    1   Display introductory panels                         13:17  92/08

==> 2   Define installation parameters                      13:21  92/08

    3   Allocate Candle product datasets

    4   Install using SMP/E

 Do step 5 only when the above steps have been completed:

    5   Complete the installation


 Enter HELP for more information.
 Enter END to return to product selection.

CREATING JOBSTREAMS IN XDBS.CANDLE.INSTCLST:

  FOR MVS/ESA SP4,  USING SMP RELEASE 5

    JO2ALSMP: ALLOCATE SMP DATASETS
    JO2ALCSI: ALLOCATE CSI DATASET
    JO2ALLIB: ALLOCATE TARGET AND DLIB DATASETS
    JO2INITS: INITIALIZE SMP CSI DATASET
    JO2REC: RECEIVE
    JO2APLCK: APPLY CHECK
    JO2APL: APPLY
    JO2ACCCK: ACCEPT CHECK
    JO2ACC: ACCEPT

END OF JOBSTREAM GENERATION.
-------- ------- -------- ----- ----------------------------------------
TOMIAK   KETCSC  08/25/92 13:15 TSO EX 'XDBS.CANDLE.INSTCLST(INSTALL)'
                                IT WILL CREATE JCL TO INSTALL THE BASE
                                PRODUCT.
-------- ------- -------- ----- ----------------------------------------
LOVARI   MJLCSC  08/25/92 11:45 COPIED XDBS.OMEG250.INSTCLST TO
                                XDBS.CANDLE.INSTCLST ON DB2S01
                                BECAUSE THE INSTALL CLIST WILL UPDATE
                                THE LIBRARY IT RUNS OUT OF.
-------- ------- -------- ----- ----------------------------------------
LOVARI   MJLCSC  08/25/92 10:30 XDBS.INSTALL.CNTL(OMEGUNLD)
                                COPIES CANDLE INSTALLER FROM TAPE 2 DISK
                                XDBS.OMEG250.INSTCLST ON DB2S01
-------- ------- -------- ----- ----------------------------------------
-------- ------- -------- ----- ----------------------------------------
SOPPITT  DD20010 06/14/92 11:30 REQUIRED MAINTENANCE APPLIED TO
                                'OMEGDB2.V200.DOFDLOAD' TO WORK WITH
                                LVL3 DB2 MAINT.    SYSTEM=DOFD
                                JOB='XDBS.INSTALL.CNTL(OMEGZAPS)'
./ ADD NAME=OMEGLVL  0152-93049-94030-0752-00033-00017-00000-DD20005
************************************************************************
***           *****************************************              ***
***           OMEGDB2 SOFTWARE TRACKING LEVEL BOARD                  ***
***           *****************************************              ***
************************************************************************
                            MIGRATED           SMP/E UPDATED
ZONE         LEVEL      DATE      TIME       DATE    TIME   USERID
=========    =====    ========    =====    ========  =====  ========
GLOBAL         02     08/25/92    15:25    11/25/92  14:20  MJLCSC
-----------------------------------------------------------------GLOBAL
OMEGDLB        01     08/27/92    09:00    08/27/92  12:20  MJLCSC
-----------------------------------------------------------------OMEGDLB
OMEGTGT        02     08/26/92    11:00    12/03/92  13:45  MJLCSC
-----------------------------------------------------------------OMEGTGT
TOMGDB2        02     08/26/92    11:00    12/06/93  09:45  MJLCSC
-----------------------------------------------------------------TOMGDB2
DSN             00     12/29/93    15:02    12/06/93  09:45  DD20005
-----------------------------------------------------------------DSN
BDDB2           02     01/23/94    08:02    12/03/92  13:45  DD20005
DDB2            00     01/23/94    08:05    12/06/93  09:45  DD20005
-----------------------------------------------------------------DDB2
BPDB2           02     01/30/94    07:49    12/03/92  13:45  DD20005
PDB2            00     01/30/94    07:52    12/06/93  09:45  DD20005
-----------------------------------------------------------------PDB2
BDB2M           00     01/12/94    17:39    12/06/93  09:45  MJLCSC
DB2M            00     01/12/94    17:41    12/06/93  09:45  MJLCSC
-----------------------------------------------------------------DB2M
P2DB            02     12/20/93    09:45    12/06/93  09:45  MJLCSC
-----------------------------------------------------------------P2DB
DB2X            00     12/21/93    09:19    12/06/93  09:45  DD20005
-----------------------------------------------------------------DB2X
D2DB            00     01/16/94    10:20    12/06/93  09:45  MJLCSC
-----------------------------------------------------------------D2DB
./ ADD NAME=OMEGTABL 0111-93049-93355-1434-00031-00028-00031-MJLCSC
ZONE     HIGH-LEVEL          ALLOWABLE SYSTEMS
-------- ------------------- ---------------------------------------
OMEGTGT  DBST.OMEGDB2        DOFX DOFD DOFP MVSX MVSW MVSP
TOMGDB2  XDBS.TOMGDB2.TARGET DOFX DOFD DOFP MVSX MVSW MVSP
DSN      DSN.OMEGDB2         DOFD DOFP
BDSN     DSN.OMEGDB2.BACKUP  DOFD DOFP
TDSN     DSN.OMEGDB2.TARGET  DOFD DOFP
DB2M     DB2M.OMEGDB2        MVSX MVSZ
BDB2M    DB2M.OMEGDB2.BACKUP MVSX MVSZ
TDB2M    DB2M.OMEGDB2.TARGET MVSX MVSZ
DB2X     DB2X.OMEGDB2        DOFX DOFD DOFP MVSX MVSP
BDB2X    DB2X.OMEGDB2.BACKUP DOFX DOFD DOFP MVSX MVSP
TDB2X    DB2X.OMEGDB2.TARGET DOFX DOFD DOFP MVSX MVSP
DDB2     DDB2.OMEGDB2        DOFD DOFP
BDDB2    DDB2.OMEGDB2.BACKUP DOFD DOFP
TDDB2    DDB2.OMEGDB2.TARGET DOFD DOFP
D1DB     D1DB.OMEGDB2        MVSP
BD1DB    D1DB.OMEGDB2.BACKUP MVSP
TD1DB    D1DB.OMEGDB2.TARGET MVSP
D2DB     D2DB.OMEGDB2        MVSW MVSP
BD2DB    D2DB.OMEGDB2.BACKUP MVSW MVSP
TD2DB    D2DB.OMEGDB2.TARGET MVSW MVSP
PDB2     PDB2.OMEGDB2        DOFD DOFP
BPDB2    PDB2.OMEGDB2.BACKUP DOFD DOFP
TPDB2    PDB2.OMEGDB2.TARGET DOFD DOFP
P1DB     P1DB.OMEGDB2        MVSP
BP1DB    P1DB.OMEGDB2.BACKUP MVSP
TP1DB    P1DB.OMEGDB2.TARGET MVSP
BP2DB    P2DB.OMEGDB2.BACKUP MVSW MVSP
P2DB     P2DB.OMEGDB2        MVSW MVSP
TP2DB    P2DB.OMEGDB2.TARGET MVSW MVSP
./ ADD NAME=OMEGTGT  0100-93049-93049-1155-00020-00020-00000-KETCSC
************************************************************************
*****                                                              *****
*****         CCCC   DDDD     CCCC    SSS      A                   *****
*****        C       D   D   C       S        A A                  *****
*****        C       D   D   C        SSS    AAAAA                 *****
*****        C       D   D   C           S   A   A                 *****
*****         CCCC   DDDD     CCCC    SSS    A   A                 *****
*****                                                              *****
*****        SINGLE SYSTEM IMAGE TARGET CHANGE LOG                 *****
*****                                                              *****
************************************************************************

NAME     USERID  DATE     TIME  DESCRIPTION OF CHANGE
-------- ------- -------- ----- ----------------------------------------
LOVARI   MJLCSC  08/25/92 09:00 START INSTALLATION OF PRODUCT
-------- ------- -------- ----- ----------------------------------------
-------LEVEL-01------------------------------------LEVEL-01-------------
-------LEVEL-01------------------------------------LEVEL-01-------------
-------LEVEL-01------------------------------------LEVEL-01-------------
-------- ------- -------- ----- ----------------------------------------
./ ADD NAME=OMGDSLST 0105-93049-94006-1612-00084-00035-00082-MJLCSC
CLIST
EMACLIB
GMACLIB
ISPLLIB
ISPMLIB
ISPPLIB
ISPSLIB
LINKLIB
LOADLIB
O2DATA
O2DBRM
O2HELP
O2MSGS
O2MSGSB
O2PARM
O2PROC
O2SAS
PROCSAVE
PROFSAVE
QMFCFRM
QMFFORM
QMFFORME
QMFPROC
QMFQUERY
RLVCMDS
RLVPARM
RLVPNENU
RLVSPENU
RO2JCL
RO2PARM
SAMPCFRM
SAMPFORM
SAMPLIB
SAMPPROC
SAMPQMF
SAMPSPFI
SMPLOG
SMPLOGA
SMPMTS
SMPPTS
SMPSCDS
SMPSTS
TCISRC
TCNCUST
TCNLOAD
TCNSAMP
TD2HPENU
TD2PNENU
TEBIPNL
TETLOAD
TETSAMP
TGMACLIB
TJIDATA
TLOADLIB
TLVCMDS
TLVCUST
TLVHPENU
TLVLOAD
TLVPARM
TLVPNENU
TLVSPENU
TOBHELP
TOBSAMP
TO2CHART
TO2CLIST
TO2DBRM
TO2DOC
TO2HELP
TO2IMSG
TO2IPNL
TO2ISKL
TO2MSGS
TO2PROC
TO2SAMP
TO2SPCH1
TO2SPFR1
TO2SPPR1
TO2SPQR1
TO2SPSAS
TO2SPSPU
TSDLOAD
TSDPNENU
VTPHLIB
VTPPLIB
./ ADD NAME=PCSQL    0105-92248-92259-1447-00027-00021-00000-LAWCSC
************************************************************************
*****                                                              *****
*****                 PC/SQL-LINK                                  *****
*****       PC/SQL-Link operates between a relational database     *****
***** located on a mainframe computer or database machine, and a   *****
***** PC or workstation connected to that central database.        *****
*****                                                              *****
************************************************************************

NAME     USERID  DATE     TIME  DESCRIPTION OF CHANGE
-------- ------- -------- ----- ----------------------------------------
Weston   LAWCSC  09/08/92 09:15 XDBS.INSTALL.CNTL(PCSQLULD)
                                Unload product loadlib,clist and library
                                Tape B01101 to:
                                  XDBS.PCSQL.V414.CLIST
                                  XDBS.PCSQL.V414.LIBRARY
                                  XDBS.PCSQL.V414.LOAD
-------- ------- -------- ----- ----------------------------------------
Weston   LAWCSC  09/08/92 08:49 XDBS.INSTALL.CNTL(PCSQLJCL)
                                Unload product install library Tape
                                B01101 to:
                                XDBS.PCSQL.V414.INSTALL
-------- ------- -------- ----- ----------------------------------------
-------LEVEL-01------------------------------------LEVEL-01-------------
-------LEVEL-01------------------------------------LEVEL-01-------------
-------LEVEL-01------------------------------------LEVEL-01-------------
-------- ------- -------- ----- ----------------------------------------
./ ADD NAME=PDB2     0192-90313-94030-1008-01731-00089-00000-DD20001
************************************************************************
*****                                                              *****
*****         Data Base 2                                          *****
*****         PRODUCTION DB2 LOG FILE                              *****
*****                                                              *****
************************************************************************

NAME     USERID  DATE     TIME  DESCRIPTION OF CHANGE
-------- ------- -------- ----- ----------------------------------------
SOPPITT  DD20001 01/30/94 07:53 Project: F94625
                                CHREQ# 32994
                                SOFTWARE WAS IMPLEMENTED FROM THE TARGET
                                ZONE TPDB2, PDB2.TARGET.*, TO THE
                                ACTIVE ZONE PDB2, PDB2.*
-------- ------- -------- ----- ----------------------------------------
LOVARI   DD20005 01/30/94 07:52 Project: DB2???
                                CHREQ# 00000
                                SOFTWARE WAS IMPLEMENTED FROM THE TARGET
                                ZONE TPDB2, PDB2.OMEGDB2.TARGET.*, TO TH
                                ACTIVE ZONE PDB2, PDB2.OMEGDB2.*
-------- ------- -------- ----- ----------------------------------------
LOVARI   DD20005 01/30/94 07:46 Project: DB2???
                                TAPE ARCHIVE OF BPDB2 WAS CREATED.
                                OUTPUT TAPE DSN = PDB2.OMEGDB2.BACKUP.LV
-------- ------- -------- ----- ----------------------------------------
Soppitt  DD20001 01/28/94 16:56 Project: F94625
                                TPDB2, WAS CLONED FROM A LEVEL 16
                                TV2R3 ZONE VIA IMPLEMENTATION DIALOG
-------- ------- -------- ----- ----------------------------------------
LOVARI   DD20005 01/25/94 09:16 OMEGAMON II FOR DB2 SOFTWARE
                                TPDB2, WAS CLONED FROM A LEVEL 2
                                TOMGDB2 ZONE VIA IMPLEMENTATION DIALOG
-------- ------- -------- ----- ----------------------------------------
SOPPITT  DD20001 11/28/93 07:54 Project: DB2???
                                CHREQ# 31860
                                SOFTWARE WAS IMPLEMENTED FROM THE TARGET
                                ZONE TPDB2, PDB2.TARGET.*, TO THE
                                ACTIVE ZONE PDB2, PDB2.*
-------- ------- -------- ----- ----------------------------------------
Soppitt  DD20001 11/24/93 21:45 Execute Install Clist to update ZPARMs:
                                    OUTBUFF=1000K (700k)
                                    WRTHRSH=50    (20)
                                DSNZPARM linked in 'PDB2.TARGET.DSNEXIT'
-------- ------- -------- ----- ----------------------------------------
SOPPITT  DD20001 11/24/93 15:44 Project: DB2???
                                TPDB2, WAS CLONED FROM A LEVEL 13A
                                DSN ZONE VIA IMPLEMENTATION DIALOG
-------- ------- -------- ----- ----------------------------------------
LOVARI   DD20005 09/19/93 08:37 Project: DB2???
                                CHREQ# 00000
                                SOFTWARE WAS IMPLEMENTED FROM THE TARGET
                                ZONE TPDB2, PDB2.TARGET.*, TO THE
                                ACTIVE ZONE PDB2, PDB2.*
-------- ------- -------- ----- ----------------------------------------
LOVARI   DD20005 09/19/93 08:31 Project: DB2???
                                TAPE ARCHIVE OF BPDB2 WAS CREATED.
                                OUTPUT TAPE DSN = PDB2.BACKUP.LVL9
-------- ------- -------- ----- ----------------------------------------
TOMIAK   DD20008 09/08/93 09:57 Project: DB2???
                                TPDB2, WAS CLONED FROM A LEVEL 10A
                                DDB2 ZONE VIA IMPLEMENTATION DIALOG
-------- ------- -------- ----- ----------------------------------------
Soppitt  DD20001 07/30/93 14:30 Execute Install Clist to turn on ACCTG
                                Class-2 trace at subsystem start-up.
                                Asm/Link DSNZPARM using
                                    'XDBS.PDB2.CNTL(DSN3ZPRM)'
                                Old module renamed OLDZPARM on DSNEXIT.
-------- ------- -------- ----- ----------------------------------------
MUNDO    DD20009 06/27/93 08:00 XDBS.DDB2.CNTL(IPAKBIND)
                                BIND ADD TPAKDB2 plan.
-------- ------- -------- ----- ----------------------------------------
MUNDO    DD20009 06/27/93 07:45 XDBS.DDB2.CNTL(DSNTIJUZ)
                                ASM/LINK DSNZPARM
-------- ------- -------- ----- ----------------------------------------
TOMIAK   DD20008 06/27/93 07:00 SYS2.SHARE.PROCLIB()
                                Project: DB2???
                                Moved procedures from SYS2.MVSF.PROCLIB
                                (PDB2DBM1) removed infopak from STEPLIB
                                (PDB2MSTR) added STAT and BSDS steps
                                           changed COND on other steps
-------- ------- -------- ----- ----------------------------------------
-------- ------- -------- ----- ----------------------------------------
MUNDO    DD20009 06/25/93 11:20 XDBS.PDB2.CNTL(IPKPLIB)
                                Project: DB2ITL
                                Links ipkmst for automatic location
                                of the INFOTEL parmlib.
-------- ------- -------- ----- ----------------------------------------
MUNDO    DD20009 06/25/93 11:19 XDBS.PDB2.CNTL(BATSPUFI)
                                Project: DB2ITL
                                create stogroup,dtabase,tablespace,index
                                for use by infotool.
-------- ------- -------- ----- ----------------------------------------
MUNDO    DD20009 06/25/93 11:16 XDBS.PDB2.CNTL(IPAKMIG)
                                Project: DB2ITL
                                Copies INFOPAK base libraries to target.
-------- ------- -------- ----- ----------------------------------------
MUNDO    DD20009 06/25/93 11:15 XDBS.PDB2.CNTL(ITOLIMPL)
                                Project: DB2ITL
                                Renames target to active
-------- ------- -------- ----- ----------------------------------------
MUNDO    DD20009 06/25/93 11:13 XDBS.PDB2.CNTL(ITOOLMIG)
                                Project: DB2ITL
                                Copies INFOtool base libraries to target
-------- ------- -------- ----- ----------------------------------------
-------- ------- -------- ----- ----------------------------------------
MUNDO    DD20009 04/11/93 08:50 SOFTWARE WAS IMPLEMENTED FROM THE TARGET
                                ZONE TPDB2, PDB2.TARGET.*, TO THE
                                ACTIVE ZONE PDB2, PDB2.*
-------- ------- -------- ----- ----------------------------------------
MUNDO    DD20009 04/11/93 08:43 TAPE ARCHIVE OF BPDB2 WAS CREATED.
                                OUTPUT TAPE DSN = PDB2.BACKUP.LVL7
-------- ------- -------- ----- ----------------------------------------
MUNDO    DD20009 04/08/93 10:25 TPDB2, WAS CLONED FROM A LEVEL 10
                                TV2R3 ZONE VIA IMPLEMENTATION DIALOG
-------- ------- -------- ----- ----------------------------------------
TOMIAK   DD20008 04/04/93 08:05 CHREQ# 27677
                                Using DF/DSS moved PDB2.PROINSTL.*
                                from DB2S01 to PDBS01.
-------- ------- -------- ----- ----------------------------------------
LOVARI   DD20005 02/24/93 08:49 OMEGAMON II FOR DB2 SOFTWARE CLONED FROM
                                ZONE TPDB2: PDB2.OMEGDB2.TARGET.*, TO
                                the ACTIVE ZONE PDB2: PDB2.OMEGDB2.*
-------- ------- -------- ----- ----------------------------------------
MUNDO    DD20009 01/17/93 10:28 SOFTWARE WAS IMPLEMENTED FROM THE TARGET
                                ZONE TPDB2, PDB2.TARGET.*, TO THE
                                ACTIVE ZONE PDB2, PDB2.*
-------- ------- -------- ----- ----------------------------------------
MUNDO    DD20009 01/17/93 10:21 TAPE ARCHIVE OF BPDB2 WAS CREATED.
                                OUTPUT TAPE DSN = PDB2.BACKUP.LVL3
-------- ------- -------- ----- ----------------------------------------
MUNDO    DD20009 01/13/93 14:10 TPDB2, WAS CLONED FROM A LEVEL 9
                                TV2R3 ZONE VIA IMPLEMENTATION DIALOG
-------- ------- -------- ----- ----------------------------------------
Tomiak   KETCSC    /  /     :   Recycle PDB2.
-------- ------- -------- ----- ----------------------------------------
Tomiak   KETCSC    /  /     :   XDBS.PDB2.CNTL(ZPRMIMPL)
                                IEBCOPY DSNZPARM to OLDZPARM and then
                                ZPRM1220 to DSNZPARM.
-------- ------- -------- ----- ----------------------------------------
-------- ------- -------- ----- ----------------------------------------
Tomiak   KETCSC  12/18/92 11:25 XDBS.PDB2.CNTL(ZPRM1220)
                                Assemble/link-edit parms as ZPRM1220.
-------- ------- -------- ----- ----------------------------------------
Tomiak   KETCSC  12/18/92 11:00 Executed DSNTINST to update IDBACK and
                                IDFORE. Old TSO value was 100 and Batch
                                was 20, new TSO is 70 and Batch is 50.


                 UPDATE DB2 - DATA SET NAMES PANEL 1
===>
     _
DSNT434I Warning,data sets marked with asterisks exist and will be overw
Data sets allocated by the installation CLIST for edited output:
  1  TEMP CLIST LIBRARY ===> PDB2.V23.DSNTEMP
  2  CLIST LIBRARY      ===> PDB2.V23.DSNCLIST
* 3  SAMPLE LIBRARY     ===> PDB2.DT921218.DSNSAMP

Data sets allocated by the installation jobs:
  4  DBRM LIBRARY       ===> PDB2.V23.DBRMLIB.DATA
  5  APPLICATION LOAD   ===> PDB2.V23.RUNLIB.LOAD
  6  DECLARATION LIBRARY===> PDB2.V23.SRCLIB.DATA

Data sets allocated by SMP/E and other methods:
  7  LINK LIST LIBRARY  ===> PDB2.TARGET.DSNLINK
  8  LOAD LIBRARY       ===> PDB2.TARGET.DSNLOAD
  9  MACRO LIBRARY      ===> PDB2.TARGET.DSNMACS
 10  LOAD DISTRIBUTION  ===> XDBS.V2R3.DSNALOAD
 11  EXIT LIBRARY       ===> PDB2.TARGET.DSNEXIT



PRESS:  ENTER to continue   RETURN to exit   HELP for more information



                 UPDATE DB2 - STORAGE SIZES
===>
     _

Check numbers and reenter to change:

 1  DATABASES         ===> 50         Concurrently in use
 2  MAX USERS         ===> 150        Concurrently running in DB2
 3  MAX REMOTE        ===> 0          Remotely accessing data in DB2
 4  MAX TSO CONNECT   ===> 70         Users on QMF or in DSN command
 5  MAX BATCH CONNECT ===> 50         Users in DSN command or utilities
 6  MIN BP0 BUFFERS   ===> 4000       Minimum number of buffers in BP0
 7  MAX BP0 BUFFERS   ===> 10000      Maximum number of buffers in BP0
 8  MIN BP1 BUFFERS   ===> 1000       Minimum number of buffers in BP1
 9  MAX BP1 BUFFERS   ===> 1000       Maximum number of buffers in BP1
10  MIN BP2 BUFFERS   ===> 500        Minimum number of buffers in BP2
11  MAX BP2 BUFFERS   ===> 2000       Maximum number of buffers in BP2
12  MIN BP32K BUFFERS ===> 48         Minimum number of buffers in BP32K
13  MAX BP32K BUFFERS ===> 48         Maximum number of buffers in BP32K




PRESS:  ENTER to continue   RETURN to exit   HELP for more information

-------- ------- -------- ----- ----------------------------------------
Tomiak   KETCSC  12/09/92 11:00 Moved new DYNBKUP and BIND imagsql.
-------- ------- -------- ----- ----------------------------------------
-------- ------- -------- ----- ----------------------------------------
Weston   DD20007 12/01/92 14:18 Bind Plan 'PCSQLTST' for dDB2 using
                                XDBS.PDB2.CNTL(PDB2PCBN) and Grant plan
                                public.
-------- ------- -------- ----- ----------------------------------------
Weston   DD20007 12/01/92 14:09 Propagated PC/SQL-Link to DDB2 using
                                XDBS.PDB2.CNTL(PDB2PCCP) creating
                                PDB2.PCSQL.CNTL,PDB2.PCSQL.CLIST,
                                PDB2.PCSQL.LIBRARY, and PDB2.PCSQL.LOAD.
-------- ------- -------- ----- ----------------------------------------
SOPPITT  DD20010 11/08/92 08:46 EZTREIVE plan, DQSMCMD, rebound for DB2
                                V2R3.
-------- ------- -------- ----- ----------------------------------------
SOPPITT  DD20010 11/08/92 08:20 QMF plan (QMF310) rebound.
-------- ------- -------- ----- ----------------------------------------
SOPPITT  DD20010 11/08/92 07:30 Asm, Link,Bind DSNTIAD & PLANS using job
                                XDBS.PDB2.CNTL(DSN3IJTM)
-------- ------- -------- ----- ----------------------------------------
SOPPITT  DD20010 11/08/92 07:26 SPUFI, DCLGEN, DSNCV plans rebound using
                                XDBS.PDB2.CNTL(DSN3IJSG)
-------- ------- -------- ----- ----------------------------------------
TOMIAK   DMV0016 11/08/92 06:36 Start PDB2 on V2R3
-------- ------- -------- ----- ----------------------------------------
TOMIAK   DD20008 11/08/92 06:33 XDBS.PDB2.CNTL(DSN3IJUZ)
                                Assemble DSNZPARM and convert BSDS
-------- ------- -------- ----- ----------------------------------------
TOMIAK   DD20008 11/08/92 06:20 SOFTWARE WAS IMPLEMENTED FROM THE TARGET
                                ZONE TPDB2, PDB2.TARGET.*, TO THE
                                ACTIVE ZONE PDB2, PDB2.*
-------- ------- -------- ----- ----------------------------------------
TOMIAK   DD20008 11/08/92 05:56 XDBS.PDB2.CNTL(DSN2CHK6)
                                Check V2R2 CATALOG
-------- ------- -------- ----- ----------------------------------------
TOMIAK   DD20008 11/08/92 05:56 XDBS.PDB2.CNTL(DSN2CHK1)
                                Check V2R2 DIRECTORY
-------- ------- -------- ----- ----------------------------------------
TOMIAK   DMV0016 11/08/92 05:41 Quiesced PDB2 on DOFP
-------- ------- -------- ----- ----------------------------------------
TOMIAK   DD20010 11/08/92 05:00 Quiesced OMEGDB2 and OMEGPDB2 on DOFP
-------- ------- -------- ----- ----------------------------------------
TOMIAK   DD20010 11/08/92 05:00 XDBS.PDB2.CNTL(DSN2IJIC)
                                IMAGCOPY V2R2 CATALOG and DIRECTORY
-------- ------- -------- ----- ----------------------------------------
-------- ------- -------- ----- ----------------------------------------
TOMIAK   DMV0016 10/11/92 12:32 THE PDB2 ZONE HAS BEEN RESTORED FROM
                                IT'S BACKUP, BPDB2. REFER TO THE
                                LVL TRCKING BOARD TO VERIFY LEVEL
-------- ------- -------- ----- ----------------------------------------
TOMIAK   DMV0016 10/11/92 10:50 Ex 'PDB2.DSQCLSTE(DSQ1EINS)' +
                                  'QMFPRE(PDB2)'
                                Panel values given below:-


                          QMF INSTALLATION DIALOGS               INVALID
ISPF Command ===>
                  _

   INSTALL TYPE             ===> MIGRATION      ("I"-INITIAL, when no pr
                                                     level of QMF exists
                                                     the system.
                                                 "M"-MIGRATION, when a p
                                                     level of QMF does e
                                                     in the system.

   SCOPE OF INSTALL         ===> FULL           ("F"-FULL, when this is
                                                     first QMF V3R1 inst
                                                 "D"-DB ONLY, when insta
                                                     QMF V3R1 into anoth
                                                     database.

   PREVIOUS QMF LEVEL       ===> V2R3           ("V2R2","V2R3","V2R4","V
     (MIGRATION INSTALLS ONLY)


   PRESS:  ENTER to continue    PF13 for help    PF15  to end





                          QMF INSTALLATION DIALOGS
ISPF Command ===>
                  _


   QMF APPLICATION PLAN ID  ===> QMF310

   QMF CATALOG ALIAS        ===> PDB2

   QMF TABLES VOLUME        ===> PDB202











   PRESS:  ENTER to continue    PF13 for help    PF15  to end





                          QMF INSTALLATION DIALOGS
ISPF Command ===>
                  _

   DB2 LOAD LIBRARY         ===> PDB2.DSNLOAD

   DB2 RELEASE LEVEL        ===> 23          ('21'=V2R1,'22'=V2R2,'23'=V

   DB2 SUBSYSTEM ID         ===> PDB2

   DB2 USER CATALOG (ICF)   ===> PDB2

   USER CATALOG PASSWORD    ===>

   TABLESPACE PASSWORD      ===>                    (For QMF control tab
     (VSAM)
   DB2 LOCATION NAME        ===>                    (DB2 V2R2 installs o

   DB2 DEFAULT PUNCTUATION  ===> .                  (',' OR '.')
     CHARACTER

   PRESS:  ENTER to continue    PF13 for help    PF15  to end





                          QMF INSTALLATION DIALOGS
ISPF Command ===>
                  _

   Modify the Job cards below to represent your installation requirement
   The "USER" and "PASSWORD" parameters must be specified in systems usi
   RACF. Use a userid with the appropriate authority for the database. S
   the "QUERY MANAGEMENT FACILITY: INSTALLATION GUIDE FOR MVS" publicati
   for more detail.


   If you will be performing the installation in foreground and do not w
   the JCL files to be tailored, enter an 'X' here.  ===>


   JOB STATEMENT INFORMATION:
   ===> //DD20010  JOB (A006,SYTM),'10DB2GRP: DSQ1EINS',
   ===> //          CLASS=K,MSGCLASS=X,MSGLEVEL=(1,1),
   ===> //          NOTIFY=DD20010
   ===> //*

   PRESS:  ENTER to continue    PF13 for help    PF15  to end





                          QMF INSTALLATION DIALOGS
ISPF Command ===>
                  _




   Currently working on installation into DB2 subsystem PDB2

   You can now re-specify the install parameters, tailor the installatio
   files, install QMF with the tailored files in foreground, quit and ru
   the tailored install files in batch, or quit and return here later.


   ENTER CHOICE HERE        ===> T              ("P" - INPUT PARAMETERS,
                                                 "T" - TAILOR INSTALL FI
                                                 "I" - INSTALL IN FOREGR




   PRESS:  ENTER to continue    PF13 for help    PF15  to end



-------- ------- -------- ----- ----------------------------------------
Soppitt  DD20010 10/11/92 12.52 Execute XDBS.PDB2.CNTL(DSN3IJFV)
                                Reformat BSDS for fallback to V2.2.
-------- ------- -------- ----- ----------------------------------------
Soppitt  DD20010 10/11/92 11.38 Execute XDBS.PDB2.CNTL(DSN3IJSG)
                                Create new system databases for V2.3.
                                (BIND steps not run).
-------- ------- -------- ----- ----------------------------------------
Soppitt  DD20010 10/11/92 11.34 Execute XDBS.PDB2.CNTL(DSN3IJTC)
                                Asm, Link dynamic sql pgm.  BIND plan.
-------- ------- -------- ----- ----------------------------------------
Soppitt  DD20010 10/11/92 11.02 Execute XDBS.PDB2.CNTL(DSN3IJTC)
                                Tailor DB2 catalog for ver 2.3
-------- ------- -------- ----- ----------------------------------------
Soppitt  DD20010 10/11/92 10:07 Execute XDBS.PDB2.CNTL(DSN3IJID)
                                Init. new dircty/catlg tablespaces.
-------- ------- -------- ----- ----------------------------------------
Soppitt  DD20010 10/11/92 10:05 Execute XDBS.PDB2.CNTL(DSN3IJIN)
                                Create new dircty/catlg tablespaces,
                                non-VSAM datasets.
-------- ------- -------- ----- ----------------------------------------
Soppitt  DD20010 10/11/92 09:54 Execute XDBS.PDB2.CNTL(DSN3IJUZ)
                                Asm/link DSNZPARM,DSNHDECP.
                                Migrate BSDS's
-------- ------- -------- ----- ----------------------------------------
Soppitt  DD20010 10/11/92 09:33 SOFTWARE WAS IMPLEMENTED FROM THE TARGET
                                ZONE TPDB2, PDB2.TARGET.*, TO THE
                                ACTIVE ZONE PDB2, PDB2.*
-------- ------- -------- ----- ----------------------------------------
Soppitt  DD20010 10/11/92 09:25 TAPE ARCHIVE OF BPDB2 WAS CREATED.
                                OUTPUT TAPE DSN = PDB2.BACKUP.LVL2
-------- ------- -------- ----- ----------------------------------------
Tomiak   DD20008 10/11/92 08:30 XDBS.PDB2.CNTL(DSN2CHKR)
                                Check catalog and directory
-------- ------- -------- ----- ----------------------------------------
Tomiak   DMV0016 10/11/92 08:56 =STOP DB2
-------- ------- -------- ----- ----------------------------------------
Tomiak   DD20008 10/11/92 08:53 XDBS.INSTALL.SPUFI.IN(DSNTIAD)
                                SQL to find DSNTIAD plans
                                  DSNTIAD   DD20010   920917
                                  DSNTIAD2  TS01KT    900312
                                  DSNTIAD3  TS01KT    900312
                                  DSNTIAUL  RMFS190   900809
                                  DSNTIA13  TS01KT    900312
                                  DSNTIA21  TS01KT    900312
                                  DSNTIA22  TS01KT    900312
                                  DSNTIB22  TS01BL    901003
-------- ------- -------- ----- ----------------------------------------
Tomiak   DD20008 10/11/92 08:30 XDBS.PDB2.CNTL(DSN2IJIC)
                                IMAGCOPY catalog and directory
-------- ------- -------- ----- ----------------------------------------
-------- ------- -------- ----- ----------------------------------------
Soppitt  DD20010 10/09/92 17:00 Installation clist, INVKDSNT, was run
                                (via %XDBSALC) against the target zone,
                                PDB2.TARGET, to migrate to V2.3.
                                Panel values given below:-



 DSNTIPA1            INSTALL, UPDATE, AND MIGRATE DB2 - MAIN PANEL
 ===>
      _

 Check parameters and reenter to change:

  1  INSTALL TYPE         ===> MIGRATE   Install, Update, or Migrate

 Enter the following 2 values for migration only
  2  FROM RELEASE         ===> 2.2       1.3 or 2.2
  3  DATA SET NAME(MEMBER)===> PDB2.TARGET.DSNSAMP(DSNTIDPD)

 Enter name of your input data sets (DSNLOAD, DSNMACS, DSNSAMP, DSNCLIST
  4  PREFIX               ===> PDB2.TARGET
  5  SUFFIX               ===>

 Enter to set or save panel values (by reading or writing the named memb
  6  INPUT MEMBER NAME    ===> DSNTIDXA  Enter to read old panel values
  7  OUTPUT MEMBER NAME   ===> DSNTIDPD  Enter to write new panel values




 PRESS:  ENTER to continue   RETURN to exit   HELP for more information



 DSNTIPA2        MIGRATE DB2 - DATA PARAMETERS
 ===>
      _

 Check parameters and reenter to change:

  1  CATALOG ALIAS       ===> PDB2                  Alias of MVS catalog
                                                    DB2 subsystem data s
  2  DEFINE CATALOG      ===> NO                    YES or NO
  3  VOLUME SERIAL 1     ===> PDBS01                CLIST allocation
  4  VOLUME SERIAL 2     ===> FDB001                Non-VSAM data
  5  VOLUME SERIAL 3     ===> FDB001                Default, temporary d
  6  VOLUME SERIAL 4     ===> FDB001                Directory, catalog d
  7  VOLUME SERIAL 5     ===> FDB001                Directory, catalog i
  8  VOLUME SERIAL 6     ===> FDB001                Log copy 1, BSDS 2
  9  VOLUME SERIAL 7     ===> FDB001                Log copy 2, BSDS 1
 10  PERMANENT UNIT NAME ===> 3390                  Device type for MVS
                                                    and partitioned data
 11  TEMPORARY UNIT NAME ===> SYSDA                 Device type for
                                                    temporary data sets



 PRESS:  ENTER to continue   RETURN to exit   HELP for more information



 DSNTIPH         MIGRATE DB2 - SYSTEM RESOURCE DATA SET NAMES
 ===>
      _

 Enter data below:

 Bootstrap Data Sets (BSDS):
   1 COPY 1 NAME         ===> PDB2.BSDS01
   2 COPY 2 NAME         ===> PDB2.BSDS02

 Active Logs:
   3 NUMBER OF COPIES    ===> 2        2 or 1.  Number of active log cop
   4 COPY 1 PREFIX       ===> PDB2.LOGCOPY1
   5 COPY 2 PREFIX       ===> PDB2.LOGCOPY2

 Archive Logs:
   6 NUMBER OF COPIES    ===> 2        2 or 1.  Number of archive log co
   7 COPY 1 PREFIX       ===> PDB2.ARCHLOG1
   8 COPY 2 PREFIX       ===> PDB2.ARCHLOG2
   9 TIMESTAMP ARCHIVES  ===> NO       YES or NO



 PRESS:  ENTER to continue   RETURN to exit   HELP for more information



 DSNTIPT         MIGRATE DB2 - DATA SET NAMES PANEL 1
 ===>
      _

 Data sets allocated by the installation CLIST for edited output:
   1  TEMP CLIST LIBRARY ===> PDB2.V23.DSNTEMP
   2  CLIST LIBRARY      ===> PDB2.V23.DSNCLIST
   3  SAMPLE LIBRARY     ===> PDB2.V23.DSNSAMP

 Data sets allocated by the installation jobs:
   4  DBRM LIBRARY       ===> PDB2.V23.DBRMLIB.DATA
   5  APPLICATION LOAD   ===> PDB2.V23.RUNLIB.LOAD
   6  DECLARATION LIBRARY===> PDB2.V23.SRCLIB.DATA

 Data sets allocated by SMP/E and other methods:
   7  LINK LIST LIBRARY  ===> PDB2.TARGET.DSNLINK
   8  LOAD LIBRARY       ===> PDB2.TARGET.DSNLOAD
   9  MACRO LIBRARY      ===> PDB2.TARGET.DSNMACS
  10  LOAD DISTRIBUTION  ===> XDBS.V2R3.DSNALOAD
  11  EXIT LIBRARY       ===> PDB2.TARGET.DSNEXIT



 PRESS:  ENTER to continue   RETURN to exit   HELP for more information



 DSNTIPU         MIGRATE DB2 - DATA SET NAMES PANEL 2
 ===>
      _

 Enter data set names below:
  1  ASSEMBLER            ===>
  2  C COMPILER           ===> EDC.V1R1M1.SEDCCOMP
  3  C COMPILER MESSAGES  ===> EDC.V1R1M1.SEDCMSGS
  4  C LIBRARY HEADERS    ===> EDC.V1R1M1.SEDCHDRS
  5  C LINK EDIT STUBS    ===> EDC.V1R1M1.SEDCBASE
  6  C DYNAMIC RUNTIME    ===> EDC.V1R1M1.SEDCLINK
  7  COBOL COMPILER       ===>
  8  COBOL LINK EDIT      ===> SYS1.COBLIB
  9  VS COBOL II COMPILER ===> SYS1.COB2COMP
 10  VS COBOL II LINK     ===> SYS1.COB2LIB
 11  COMMON LINK EDIT     ===> PLI.V2R2M0.SIBMBASE
 12  COMMON DYNAMIC       ===> PLI.V2R2M0.SIBMLINK
 13  FORTRAN COMPILER     ===> SYS1.VSF2COMP
 14  FORTRAN LINK EDIT    ===> SYS1.VSF2FORT
 15  PL/I COMPILER        ===> PLI.V2R2M0.PLICOMP
 16  PL/I LINK EDIT       ===> PLI.V2R2M0.PLIBASE


 PRESS:  ENTER to continue   RETURN to exit   HELP for more information



 DSNTIPW         MIGRATE DB2 - DATA SET NAMES PANEL 3
 ===>
      _

 Enter data set names below:
  1  SYSTEM MACLIB        ===> SYS1.MACLIB
  2  SYSTEM PROCEDURES    ===> PDB2.INSTALL.PROCLIB
  3  SORT LIBRARY         ===> SYS1.SORTLIB
  4  IMS RESLIB           ===> PDB2.TARGET.RLRESLIB
  5  ISPF ISPLINK MODULE  ===> ISP.ISPLOAD













 PRESS:  ENTER to continue   RETURN to exit   HELP for more information



 DSNTIPV         MIGRATE DB2 - CICS
 ===>
      _

 Enter data below:

  1 CICS RELEASE         ===> 2         0 = not using CICS
                                        1 = CICS/OS/VS 1.7.0
                                        2 = CICS/MVS 2.1
                                        3 = CICS/ESA 3.1.1 or 3.2

  2 CICS COBOL LIBRARY   ===> XCICS.TC212P3.COBLIB
  3 CICS COBOL II LIBRARY===> SYS1.COB2CICS
  4 CICS PL/I  LIBRARY   ===> XCICS.TC212P3.PL1LIB
  5 CICS LOADLIB         ===> XCICS.TC212P3.LOADLIB

 The following fields are required if option 3 was selected in field 1;
 they are optional if option 2 was selected in field 1:
  6 CSD NAME (FOR RDO)   ===>
  7 GROUP NAME           ===>           CICS RDO group name
  8 NEW GROUP            ===>           YES or NO
  9 LIST NAME            ===>           CICS RDO list name

 PRESS:  ENTER to continue   RETURN to exit   HELP for more information
 .  .  .  .  .  .  .  .  .  .  .  .  .  .  .  .  .  .  .  .  .  .  .  .


 DSNTIPD         MIGRATE DB2 - SIZES
 ===>
      _

 Check numbers and reenter to change:

  1  DATABASES          ===> 200        In this subsystem
  2  TABLES             ===> 20         Per database (average)
  3  COLUMNS            ===> 30         Per table (average)
  4  VIEWS              ===> 3          Per table (average)
  5  TABLE SPACES       ===> 20         Per database (average)
  6  PLANS              ===> 1000       In this subsystem
  7  PLAN STATEMENTS    ===> 30         SQL statements per plan (average
  8  PACKAGES           ===> 300        In this subsystem
  9  PACKAGE STATEMENTS ===> 10         SQL statements per package (aver
 10  PACKAGE LIST SIZE  ===> 2          Package lists per plan (average)
 11  EXECUTED STMTS     ===> 15         SQL statements executed (average
 12  TABLES IN STMT     ===> 2          Tables per SQL statement (averag
 13  TEMP 4K SPACE      ===> 16777216   Bytes of 4K-page work space
 14  TEMP 4K DATA SETS  ===> 3          Number of data sets for 4K data
 15  TEMP 32K SPACE     ===> 8388608    Bytes of 32K-page work space
 16  TEMP 32K DATA SETS ===> 1          Number of data sets for 32K data

 PRESS:  ENTER to continue   RETURN to exit   HELP for more information
 .  .  .  .  .  .  .  .  .  .  .  .  .  .  .  .  .  .  .  .  .  .  .  .


 DSNTIPE         MIGRATE DB2 - STORAGE SIZES
 ===>
      _

 Check numbers and reenter to change:

  1  DATABASES         ===> 50         Concurrently in use
  2  MAX USERS         ===> 150        Concurrently running in DB2
  3  MAX REMOTE        ===> 0          Remotely accessing data in DB2
  4  MAX TSO CONNECT   ===> 100        Users on QMF or in DSN command
  5  MAX BATCH CONNECT ===> 20         Users in DSN command or utilities
  6  MIN BP0 BUFFERS   ===> 4000       Minimum number of buffers in BP0
  7  MAX BP0 BUFFERS   ===> 10000      Maximum number of buffers in BP0
  8  MIN BP1 BUFFERS   ===> 1000       Minimum number of buffers in BP1
  9  MAX BP1 BUFFERS   ===> 1000       Maximum number of buffers in BP1
 10  MIN BP2 BUFFERS   ===> 500        Minimum number of buffers in BP2
 11  MAX BP2 BUFFERS   ===> 2000       Maximum number of buffers in BP2
 12  MIN BP32K BUFFERS ===> 48         Minimum number of buffers in BP32
 13  MAX BP32K BUFFERS ===> 48         Maximum number of buffers in BP32




 PRESS:  ENTER to continue   RETURN to exit   HELP for more information
 .  .  .  .  .  .  .  .  .  .  .  .  .  .  .  .  .  .  .  .  .  .  .  .


 DSNTIPN         MIGRATE DB2 - TRACING
 ===>
      _

 Enter data below:

  1  AUDIT TRACE      ===> NO          Audit classes to start. NO,YES,li

  2  TRACE AUTO START ===> NO          Global classes to start. YES, NO,
  3  TRACE SIZE       ===> 65536       Trace table size in bytes.  4K-39

  4  SMF ACCOUNTING   ===> 1           Accounting classes to start. NO,Y
  5  SMF STATISTICS   ===> YES         Statistics classes to start. NO,Y
  6  STATISTICS TIME  ===> 30          Time interval in minutes.  1-1440

  7  MONITOR TRACE    ===> NO          Monitor classes to start. NO, YES
  8  MONITOR SIZE     ===> 8192        Default monitor buffer size. 8K-1

  9  CHECKPOINT FREQ  ===> 1000        Number of log records per checkpo




 PRESS:  ENTER to continue   RETURN to exit   HELP for more information
 .  .  .  .  .  .  .  .  .  .  .  .  .  .  .  .  .  .  .  .  .  .  .  .


 DSNTIPO         MIGRATE DB2 - OPERATOR FUNCTIONS
 ===>
      _

 Enter data below:

  1  WTO ROUTE CODES    ===> 1
                                        Routing codes for WTORs
  2  RECALL DATABASE    ===> YES        Use DFHSM automatic recall. YES
  3  RECALL DELAY       ===> 120        Seconds to wait for automatic re

  4  RLF AUTO START     ===> NO         Resource Limit Facility.  NO or
  5  RLST NAME SUFFIX   ===> 01         Resource Limit Spec. Table (RLST
  6  RLST ACCESS ERROR  ===> NOLIMIT    Action on RLST access error. Val
                                        NOLIMIT - Run without limit
                                        NORUN   - Do not run at all
                                        1-5000000 - Limit in CPU service

  7  DSNZPARM NAME      ===> DSNZPARM   Enter name of new DB2 parameter
  8  AUTO BIND          ===> YES        Use automatic bind. YES or NO
  9  SITE TYPE          ===> LOCALSITE    LOCALSITE or RECOVERYSITE


 PRESS:  ENTER to continue   RETURN to exit   HELP for more information
 .  .  .  .  .  .  .  .  .  .  .  .  .  .  .  .  .  .  .  .  .  .  .  .


 DSNTIPF         MIGRATE DB2 - APPLICATION PROGRAMMING DEFAULTS
 ===>
      _

 Enter data below:

  1  LANGUAGE DEFAULT     ===> COB2     ASM, ASMH, C, COBOL, COB2, FORTR
  2  DECIMAL POINT IS     ===> .        . or ,
  3  MINIMUM DIVIDE SCALE ===> NO       NO or YES for a minimum of 3 dig
                                        to right of decimal after divisi
  4  STRING DELIMITER     ===> '        DEFAULT, " or ' (COBOL or COB2 o
  5  SQL STRING DELIMITER ===> '        DEFAULT, " or '
  6  MIXED DATA           ===> NO       NO or YES for mixed DBCS data
  7  CODED CHARACTER SET  ===> 37       The CCSID of your SBCS or mixed
  8  DATE FORMAT          ===> ISO      ISO, JIS, USA, EUR, LOCAL
  9  TIME FORMAT          ===> ISO      ISO, JIS, USA, EUR, LOCAL
 10  LOCAL DATE LENGTH    ===> 0        0 (no exit), or value between 10
 11  LOCAL TIME LENGTH    ===> 0        0 (no exit), or value between  8
 12  STD SQL LANGUAGE     ===> NO       NO or 86
 13  DECIMAL ARITHMETIC   ===> DEC15    DEC15, DEC31, 15, 31



 PRESS:  ENTER to continue   RETURN to exit   HELP for more information
 .  .  .  .  .  .  .  .  .  .  .  .  .  .  .  .  .  .  .  .  .  .  .  .


 DSNTIPI         MIGRATE DB2 - IRLM PANEL 1
 ===>
      _

 Enter data below:

  1  INSTALL IRLM       ===> YES        IRLM is required for DB2. Should
                                        IRLM distributed with DB2 be ins
  2  SUBSYSTEM NAME     ===> IRL2       IRLM MVS subsystem name
  3  RESOURCE TIMEOUT   ===> 60         Seconds to wait for unavailable
  4  TIME INTERVAL      ===> 500        Milliseconds between lock proces
  5  AUTO START         ===> YES        Start IRLM if not up. YES or NO
  6  PROC NAME          ===> IRLMDOFF   Name of start procedure for IRLM
  7  TIME TO AUTOSTART  ===> 300        Time DB2 will wait for IRLM auto









 PRESS:  ENTER to continue   RETURN to exit   HELP for more information
 .  .  .  .  .  .  .  .  .  .  .  .  .  .  .  .  .  .  .  .  .  .  .  .


 DSNTIPJ         MIGRATE DB2 - IRLM PANEL 2
 ===>
      _

 Enter data below:

  1  CROSS MEMORY           ===> NO        Local storage and cross memor
  2  MAXIMUM ECSA           ===> 5242880   Control block storage (1M - 9
  3  LOCKS PER TABLE(SPACE) ===> 1000      Maximum before lock escalatio
  4  LOCKS PER USER         ===> 10000     Maximum before resource unava
  5  PARTNER                ===>           VTAM name of other IRLM.  Req
                                           for intersystem communication
  6  IDENTIFIER             ===> 1         Number for this IRLM (1-8)
  7  DEADLOCK TIME          ===> 15        Detection interval in seconds
  8  DEADLOCK CYCLE         ===> 4         Number of LOCAL cycles before
  9  INTERNAL TRACE         ===> NO        Automatic start of tracing







 PRESS:  ENTER to continue   RETURN to exit   HELP for more information
 .  .  .  .  .  .  .  .  .  .  .  .  .  .  .  .  .  .  .  .  .  .  .  .


 DSNTIPP         MIGRATE DB2 - PROTECTION
 ===>
      _

 Enter data below:

  1  MVS CATALOG       ===>            MVS catalog control password
  2  BSDS PASSWORD     ===>            Bootstrap data sets password
  3  LOG PASSWORD      ===>            Active log data sets password
  4  ARCHIVE LOG PW    ===>            Archive log data sets password
  5  ARCHIVE LOG RACF  ===> NO         RACF protect archive log data set
  6  DIRECTORY/CATALOG ===>            DB2 directory and catalog passwor
  7  USE PROTECTION    ===> YES        DB2 authorization enabled.  YES o
  8  SYSTEM ADMIN 1    ===> DD20010    Authid of system administrator
  9  SYSTEM ADMIN 2    ===> DB01EP     Authid of system administrator
 10  SYSTEM OPERATOR 1 ===> DD20010    Authid of system operator
 11  SYSTEM OPERATOR 2 ===> OPERUSR    Authid of system operator
 12  UNKNOWN AUTHID    ===> DOFUSER    Authid of default (unknown) user
 13  RESOURCE AUTHID   ===> SYSIBM     Authid of Resource Limit Table cr




 PRESS:  ENTER to continue   RETURN to exit   HELP for more information
 .  .  .  .  .  .  .  .  .  .  .  .  .  .  .  .  .  .  .  .  .  .  .  .


 DSNTIPM         MIGRATE DB2 - MVS PARMLIB UPDATES
 ===>
      _

 Check data and reenter to change:

  1  SUBSYSTEM NAME      ===> PDB2       Name for connecting to DB2
  2  SUBSYSTEM PREFIX    ===> =          One character to denote subsyst
  3  SUBSYSTEM MEMBER    ===> 00         xx in IEFSSNxx
  4  SUBSYSTEM SEQUENCE  ===> 88888888   Sequence number for insertion
  5  AUTH MEMBER         ===> 00         xx in IEAAPFxx APF member name
  6  AUTH SEQUENCE       ===> 88888888   Sequence number for insertion
  7  LINK LIST ENTRY     ===> 00         xx in LNKLSTxx for DSNLINK
  8  LINK LIST SEQUENCE  ===> 88888888   Sequence number for insertion









 PRESS:  ENTER to continue   RETURN to exit   HELP for more information
 .  .  .  .  .  .  .  .  .  .  .  .  .  .  .  .  .  .  .  .  .  .  .  .


 DSNTIPL         MIGRATE DB2 - ACTIVE LOG DATA SET PARAMETERS
 ===>
      _

 Enter data below:

   1 NUMBER OF LOGS    ===> 3        Number data sets per active log cop
   2 INPUT BUFFER      ===> 28672    Size in bytes (28K-60K)
   3 OUTPUT BUFFER     ===> 409600   Size in bytes (40K-4000K)
   4 WRITE THRESHOLD   ===> 20       Buffers filled before write (1-256)
   5 ARCHIVE LOG FREQ  ===> 24       Hours per archive run
   6 UPDATE RATE       ===> 3600     Updates, inserts, and deletes per h











 PRESS:  ENTER to continue   RETURN to exit   HELP for more information
 .  .  .  .  .  .  .  .  .  .  .  .  .  .  .  .  .  .  .  .  .  .  .  .


 DSNTIPA         MIGRATE DB2 - ARCHIVE LOG DATA SET PARAMETERS
 ===>
      _

 Enter data below:

   1  ALLOCATION UNITS ===> BLK       Blk, Trk, or Cyl
   2  PRIMARY QUANTITY ===>           Primary space allocation
   3  SECONDARY QTY.   ===>           Secondary space allocation
   4  CATALOG DATA     ===> NO        YES or NO to catalog archive data
   5  DEVICE TYPE      ===> TAPE3480  Unit name for archive logs
   6  BLOCK SIZE       ===> 28672     Rounded up to 4096 multiple
   7  MAX CONCURRENT   ===> 3         Number of input volumes allocated
   8  RECORDING MAX    ===> 500       Number of data sets recorded in BS
   9  MSVGP 1          ===>           Mass storage volume group (MSVGP)
  10  MSVGP 2          ===>           MSVGP for second archive copy
  11  WRITE TO OPER    ===> YES       Issue WTOR before mount for archiv
  12  WTOR ROUTE CODE  ===> 1,3,4
                                      Routing codes for archive WTORs
  13  RETENTION PERIOD ===> 0030      Days to retain archive log data se
  14  QUIESCE PERIOD   ===> 5         Maximum quiesce interval (1-999)
  15  COMPACT DATA     ===> NO        YES or NO for data compaction

 PRESS:  ENTER to continue   RETURN to exit   HELP for more information
 .  .  .  .  .  .  .  .  .  .  .  .  .  .  .  .  .  .  .  .  .  .  .  .


 DSNTIPS         MIGRATE DB2 - DATABASES AND SPACES TO START AUTOMATICAL
 ===>
      _

 Enter data below:

  1  ===> RESTART       RESTART or DEFER the objects named below.
     The objects to restart or defer may be ALL in item 2, a database
     name, or database name.space name.

  2  ==> ALL               14  ==>                   26  ==>
  3  ==>                   15  ==>                   27  ==>
  4  ==>                   16  ==>                   28  ==>
  5  ==>                   17  ==>                   29  ==>
  6  ==>                   18  ==>                   30  ==>
  7  ==>                   19  ==>                   31  ==>
  8  ==>                   20  ==>                   32  ==>
  9  ==>                   21  ==>                   33  ==>
 10  ==>                   22  ==>                   34  ==>
 11  ==>                   23  ==>                   35  ==>
 12  ==>                   24  ==>                   36  ==>
 13  ==>                   25  ==>                   37  ==>

 PRESS:  ENTER to continue   RETURN to exit   HELP for more information
 .  .  .  .  .  .  .  .  .  .  .  .  .  .  .  .  .  .  .  .  .  .  .  .


 DSNTIPR         MIGRATE DB2 - DISTRIBUTED DATA FACILITY
 ===>
      _

 Enter data below:

  1 DDF STARTUP OPTION   ===> COMMAND   NO (DDF not startable),
                                        AUTO (automatic start up), or
                                        COMMAND (start by command)
  2 DB2 LOCATION NAME    ===> PDB2              The name other DB2s use
                                                refer to this DB2
  3 DB2 NETWORK LUNAME   ===> DOFPPDB2  The name VTAM uses to refer to t
  4 DB2 NETWORK PASSWORD ===> DOFPPDB2  Password for connecting to other
  5 RLST ACCESS ERROR    ===> NOLIMIT   Action on non-local RLST access
                                        NOLIMIT   - Run without limit
                                        NORUN     - Do not run at all
                                        1-5000000 - Limit in CPU service






 PRESS:  ENTER to continue   RETURN to exit   HELP for more information
 .  .  .  .  .  .  .  .  .  .  .  .  .  .  .  .  .  .  .  .  .  .  .  .


 DSNTIPZ         MIGRATE DB2 - DATA DEFINITION CONTROL SUPPORT
 ===>
      _

 Enter data below:

  1 INSTALL DD CONTROL SUPT. ===> NO        YES - activate the support
                                            NO  - omit DD control suppor
  2 CONTROL ALL APPLICATIONS ===> NO        YES or NO
  3 REQUIRE FULL NAMES       ===> YES       YES or NO
  4 UNREGISTERED DDL DEFAULT ===> ACCEPT    Action for unregistered DDL:
                                            ACCEPT - allow it
                                            REJECT - prohibit it
                                            APPL   - consult ART

  5 REGISTRATION OWNER       ===> DSNRGCOL          Qualifier for ART an
  6 REGISTRATION DATABASE    ===> DSNRGFDB          Database name
  7 APPL REGISTRATION TABLE  ===> DSN_REGISTER_APPL Table name
  8 OBJT REGISTRATION TABLE  ===> DSN_REGISTER_OBJT Table name

 Note: ART = Application Registration Table
       ORT = Object      Registration Table

 PRESS:  ENTER to continue   RETURN to exit   HELP for more information
 .  .  .  .  .  .  .  .  .  .  .  .  .  .  .  .  .  .  .  .  .  .  .  .


 DSNTIPY         MIGRATE DB2 - JOB EDITING
 ===>
      _

 Enter data below:

  1  REMOTE LOCATION   ===>                  Remote location for COBOL
                                             organization application
  2  COBOL TYPE        ===> COB2             COBOL for sample applicatio
                                             (COBOL OR COB2)

 Enter job card information for install and sample jobs:

  3 ===>
  4 ===>
  5 ===>
  6 ===>






 PRESS:  ENTER to continue   RETURN to exit   HELP for more information
 .  .  .  .  .  .  .  .  .  .  .  .  .  .  .  .  .  .  .  .  .  .  .  .


 DSNTIPC         MIGRATE DB2 - CLIST CALCULATIONS - PANEL 1
 ===>
      _

  You may update the EDMPOOL size if necessary.

    1  DSNT485I  EDMPOOL STORAGE SIZE    =    14312  K
    2  DSNT485I  BUFFER POOL SIZE        =    23536  K
    3  DSNT485I  SORT POOL SIZE          =     2353  K
    4  DSNT485I  RID POOL SIZE           =    11768  K
    5  DSNT485I  DATA SET STORAGE SIZE   =     3600  K
    6  DSNT485I  CODE STORAGE SIZE       =     4200  K
    7  DSNT485I  WORKING STORAGE SIZE    =     6300  K
    8  DSNT486I  TOTAL MAIN STORAGE      =    66069  K
    9  DSNT448I  RECOMMENDED REAL STORAGE=    60202  K
   10  DSNT487I  TOTAL STORAGE BELOW 16M =     1050  K (WITH SWA ABOVE 1
   11  DSNT438I  WARNING,
                 IRLM LOCK MAXIMUM SPACE =   366210  K, AVAILABLE =



 PRESS:  ENTER to continue   RETURN to exit   HELP for more information


 .  .  .  .  .  .  .  .  .  .  .  .  .  .  .  .  .  .  .  .  .  .  .  .
-------- ------- -------- ----- ----------------------------------------
SYSADM   DD20010 10/09/92 09:46 TPDB2, WAS CLONED FROM A LEVEL 7
                                TV2R3 ZONE VIA IMPLEMENTATION DIALOG
-------- ------- -------- ----- ----------------------------------------
TOMIAK   DD20008 06/14/92 21:00 UPDATED LOGLOAD AND OUTBUFF USING
                                XDBS.INSTALL.CNTL(PDB2IJUZ)
                                BACKOUT IS OLDPARM
                                LOGLOAD=15000 FROM 1000
                                OUTBUFF=700K FROM 400K


                    INSTALL, UPDATE, AND MIGRATE DB2      EDITED JCL, WA
===>
     _

Check parameters and reenter to change:

 1  INSTALL TYPE         ===> UPDATE    Install, Update, or Migrate

Enter the following 2 values for migration only
 2  FROM RELEASE         ===>           1.3 or 2.1
 3  DATA SET NAME(MEMBER)===>

Enter name of your input data sets (DSNLOAD, DSNMACS, DSNSAMP, DSNCLIST)
 4  PREFIX               ===> PDB2
 5  SUFFIX               ===>

Enter to set or save panel values (by reading or writing the named membe
 6  INPUT MEMBER NAME    ===> DSNTIDFG  Enter to read old panel values
 7  OUTPUT MEMBER NAME   ===> DSNTIDFG  Enter to write new panel values

Enter name to create edited JCL and CLIST output:
 8  DATA SET NAME PREFIX ===> PDB2.UPDATE

PRESS:  ENTER to continue   END to exit   HELP for more information



                 UPDATE DB2 - LOG DATA SETS
===>
     _

Enter data below:

 1  NUMBER OF COPIES===> 2          1 or 2
 2  INPUT BUFFER    ===> 28672      Size in bytes (28K-60K)
 3  OUTPUT BUFFER   ===> 716800     Size in bytes (40K-4000K)
 4  WRITE THRESHOLD ===> 20         Number buffers filled before write (













PRESS:  ENTER to continue   END to exit   HELP for more information



                 UPDATE DB2 - TRACING
===>
     _

Enter data below:

 1  AUDIT TRACE      ===> NO          Audit classes to start. NO,YES,lis

 2  TRACE AUTO START ===> NO          Global classes to start. YES, NO,
 3  TRACE SIZE       ===> 65536       Trace table size in bytes.  4K-396

 4  SMF ACCOUNTING   ===> 1           Accounting classes to start. NO,YE
 5  SMF STATISTICS   ===> YES         Statistics classes to start. NO,YE
 6  STATISTICS TIME  ===> 30          Time interval in minutes.  1-1440

 7  MONITOR TRACE    ===> NO          Monitor classes to start. NO, YES,
 8  MONITOR SIZE     ===> 8192        Default monitor buffer size. 8K-1M

 9  CHECKPOINT FREQ  ===> 15000       Number of log records per checkpoi




PRESS:  ENTER to continue   END to exit   HELP for more information

------------------------------------------------------------------------

                    INSTALL, UPDATE, AND MIGRATE DB2 - MAIN PANEL
===>
     _

Check parameters and reenter to change:

 1  INSTALL TYPE         ===> MIGRATE   Install, Update, or Migrate

Enter the following 2 values for migration only
 2  FROM RELEASE         ===> 2.1       1.3 or 2.1
 3  DATA SET NAME(MEMBER)===> 'PDB2.DSNSAMP(DSNTIDFF)'

Enter name of your input data sets (DSNLOAD, DSNMACS, DSNSAMP, DSNCLIST)
 4  PREFIX               ===> PDB2
 5  SUFFIX               ===>

Enter to set or save panel values (by reading or writing the named membe
 6  INPUT MEMBER NAME    ===> DSNTIDXA  Enter to read old panel values
 7  OUTPUT MEMBER NAME   ===> DSNTIDFG  Enter to write new panel values

Enter name to create edited JCL and CLIST output:
 8  DATA SET NAME PREFIX ===> PDB2.MIGRATE

PRESS:  ENTER to continue   END to exit   HELP for more information



                MIGRATE DB2 - DATA PARAMETERS
===>
     _

Check parameters and reenter to change:

 1  CATALOG ALIAS       ===> PDB2                  Alias of ICF catalog
                                                   DB2 subsystem data se
 2  DEFINE CATALOG      ===> NO                    YES or NO
 3  VOLUME SERIAL 1     ===> PDB202                Volume 1 for DB2 data
 4  VOLUME SERIAL 2     ===> PDB203                Volume 2 for DB2 data
 5  VOLUME SERIAL 3     ===> PDB202                Volume 3 for DB2 data
 6  VOLUME SERIAL 4     ===> PDB203                Volume 4 for DB2 data
 7  VOLUME SERIAL 5     ===> PDB202                Volume 5 for DB2 data
 8  VOLUME SERIAL 6     ===> PDB203                Volume 6 for DB2 data
 9  PERMANENT UNIT NAME ===> 3390                  Device type for ICF c
                                                   and partitioned data
10  TEMPORARY UNIT NAME ===> SYSDA                 Device type for
                                                   temporary data sets




PRESS:  ENTER to continue   END to exit   HELP for more information



                MIGRATE DB2 - SIZES
===>
     _

Check numbers and reenter to change:

 1  DATABASES          ===> 200        In this subsystem
 2  TABLES             ===> 20         Per database (average)
 3  COLUMNS            ===> 30         Per table (average)
 4  VIEWS              ===> 3          Per table (average)
 5  TABLE SPACES       ===> 20         Per database (average)
 6  PLANS              ===> 1000       In this subsystem
 7  PLAN STATEMENTS    ===> 30         SQL statements per plan (average)
 8  EXECUTED STMTS     ===> 15         SQL statements executed (average)
 9  TABLES IN STMT     ===> 2          Tables per SQL statement (average
10  TEMP 4K SPACE      ===> 16777216   Bytes of 4K-page work space
11  TEMP 4K DATA SETS  ===> 3          Number of data sets for 4K data
12  TEMP 32K SPACE     ===> 8388608    Bytes of 32K-page work space
13  TEMP 32K DATA SETS ===> 1          Number of data sets for 32K data
14  ARCHIVE LOG FREQ   ===> 6          Hours per archive run
15  UPDATE RATE        ===> 60000      Updates, inserts, and deletes per


PRESS:  ENTER to continue   END to exit   HELP for more information



                MIGRATE DB2 - STORAGE SIZES
===>
     _

Check numbers and reenter to change:

 1  DATABASES         ===> 50         Concurrently in use
 2  MAX USERS         ===> 150        Concurrently running in DB2
 3  MAX REMOTE        ===> 0          Remotely accessing data in DB2
 4  MAX TSO CONNECT   ===> 100        Users on QMF or in DSN command
 5  MAX BATCH CONNECT ===> 20         Users in DSN command or utilities
 6  MIN BP0 BUFFERS   ===> 4000       Minimum number of buffers in BP0
 7  MAX BP0 BUFFERS   ===> 10000      Maximum number of buffers in BP0
 8  MIN BP1 BUFFERS   ===> 1000       Minimum number of buffers in BP1
 9  MAX BP1 BUFFERS   ===> 1000       Maximum number of buffers in BP1
10  MIN BP2 BUFFERS   ===> 500        Minimum number of buffers in BP2
11  MAX BP2 BUFFERS   ===> 2000       Maximum number of buffers in BP2
12  MIN BP32K BUFFERS ===> 48         Minimum number of buffers in BP32K
13  MAX BP32K BUFFERS ===> 48         Maximum number of buffers in BP32K




PRESS:  ENTER to continue   END to exit   HELP for more information



                MIGRATE DB2 - TRACING
===>
     _

Enter data below:

 1  AUDIT TRACE      ===> NO          Audit classes to start. NO,YES,lis

 2  TRACE AUTO START ===> NO          Global classes to start. YES, NO,
 3  TRACE SIZE       ===> 65536       Trace table size in bytes.  4K-396

 4  SMF ACCOUNTING   ===> 1           Accounting classes to start. NO,YE
 5  SMF STATISTICS   ===> YES         Statistics classes to start. NO,YE
 6  STATISTICS TIME  ===> 30          Time interval in minutes.  1-1440

 7  MONITOR TRACE    ===> NO          Monitor classes to start. NO, YES,
 8  MONITOR SIZE     ===> 8192        Default monitor buffer size. 8K-1M

 9  CHECKPOINT FREQ  ===> 15000       Number of log records per checkpoi




PRESS:  ENTER to continue   END to exit   HELP for more information



                MIGRATE DB2 - OPERATOR FUNCTIONS
===>
     _

Enter data below:

 1  WTO ROUTE CODES    ===> 1
                                       Routing codes for WTORs
 2  RECALL DATABASE    ===> YES        Use HSM automatic recall. YES or
 3  RECALL DELAY       ===> 120        Seconds to wait for automatic rec

 4  RLF AUTO START     ===> NO         Resource Limit Facility.  NO or Y
 5  RLST NAME SUFFIX   ===> 01         Resource Limit Spec. Table (RLST)
 6  RLST ACCESS ERROR  ===> NOLIMIT    Action on RLST access error. Valu
                                       NOLIMIT - Run without limit
                                       NORUN   - Do not run at all
                                       1-5000000 - Limit in CPU service

 7  DSNZPARM NAME      ===> DSNZPARM   Enter name of new DB2 parameter m



PRESS:  ENTER to continue   END to exit   HELP for more information




                MIGRATE DB2 - APPLICATION PROGRAMMING DEFAULTS
===>
     _

Enter data below:

 1  LANGUAGE DEFAULT     ===> COBOL    ASM, ASMH, C, COBOL, COB2, FORTRA
 2  DECIMAL POINT IS     ===> .        . or ,
 3  MINIMUM DIVIDE SCALE ===> NO       NO or YES for a minimum of 3 digi
                                       to right of decimal after divisio
 4  STRING DELIMITER     ===> '        DEFAULT, " or '
 5  SQL STRING DELIMITER ===> '        DEFAULT, " or '
 6  MIXED DATA           ===> NO       NO or YES for mixed DBCS data
 7  CHARACTER SET        ===> ALPHANUM ALPHANUM or KATAKANA
 8  DATE FORMAT          ===> ISO      ISO, JIS, USA, EUR, LOCAL
 9  TIME FORMAT          ===> ISO      ISO, JIS, USA, EUR, LOCAL
10  LOCAL DATE LENGTH    ===> 0        0 (no exit), or value between 10
11  LOCAL TIME LENGTH    ===> 0        0 (no exit), or value between  8
12  STD SQL LANGUAGE     ===> NO       NO or 86



PRESS:  ENTER to continue   END to exit   HELP for more information




                MIGRATE DB2 - IRLM PANEL 1
===>
     _

Enter data below:

 1  INSTALL IRLM       ===> YES        IRLM is required for DB2. Should
                                       IRLM distributed with DB2 be inst
 2  SUBSYSTEM NAME     ===> IRL2       IRLM MVS subsystem name
 3  RESOURCE TIMEOUT   ===> 60         Seconds to wait for unavailable r
 4  TIME INTERVAL      ===> 500        Milliseconds between lock process
 5  AUTO START         ===> YES        Start IRLM if not up. YES or NO
 6  PROC NAME          ===> IRLMDOFF   Name of start procedure for IRLM
 7  TIME TO AUTOSTART  ===> 300        Time DB2 will wait for IRLM autos









PRESS:  ENTER to continue   END to exit   HELP for more information



                MIGRATE DB2 - IRLM PANEL 2
===>
     _

Enter data below:

 1  CROSS MEMORY           ===> NO        Local storage and cross memory
 2  MAXIMUM ECSA           ===> 5242880   Control block storage (1M - 99
 3  LOCKS PER TABLE(SPACE) ===> 1000      Maximum before lock escalation
 4  LOCKS PER USER         ===> 10000     Maximum before resource unavai
 5  PARTNER                ===>           VTAM name of other IRLM.  Requ
                                          for intersystem communication
 6  IDENTIFIER             ===> 1         Number for this IRLM (1-8)
 7  DEADLOCK TIME          ===> 15        Detection interval in seconds
 8  DEADLOCK CYCLE         ===> 4         Number of LOCAL cycles before
 9  INTERNAL TRACE         ===> NO        Automatic start of tracing







PRESS:  ENTER to continue   END to exit   HELP for more information



                MIGRATE DB2 - PROTECTION
===>
     _

Enter data below:

 1  ICF CATALOG       ===>            ICF catalog control password
 2  BSDS PASSWORD     ===>            Bootstrap data sets password
 3  LOG PASSWORD      ===>            Active log data sets password
 4  ARCHIVE LOG PW    ===>            Archive log data sets password
 5  ARCHIVE LOG RACF  ===> NO         RACF protect archive log data sets
 6  DIRECTORY/CATALOG ===>            DB2 directory and catalog password
 7  USE PROTECTION    ===> YES        DB2 authorization enabled.  YES or
 8  SYSTEM ADMIN 1    ===> DD20010    Authid of system administrator
 9  SYSTEM ADMIN 2    ===> DB01EP     Authid of system administrator
10  SYSTEM OPERATOR 1 ===> DD20010    Authid of system operator
11  SYSTEM OPERATOR 2 ===> OPERUSR    Authid of system operator
12  UNKNOWN AUTHID    ===> DOFUSER    Authid of default (unknown) user
13  RESOURCE AUTHID   ===> SYSIBM     Authid of Resource Limit Table cre




PRESS:  ENTER to continue   END to exit   HELP for more information



                MIGRATE DB2 - MVS PARMLIB UPDATES
===>
     _

Check data and reenter to change:

 1  SUBSYSTEM NAME      ===> PDB2       Name for connecting to DB2
 2  SUBSYSTEM PREFIX    ===> =          One character to denote subsyste
 3  SUBSYSTEM MEMBER    ===> 00         xx in IEFSSNxx
 4  SUBSYSTEM SEQUENCE  ===> 88888888   Sequence number for insertion
 5  AUTH MEMBER         ===> 00         xx in IEAAPFxx APF member name
 6  AUTH SEQUENCE       ===> 88888888   Sequence number for insertion
 7  LINK LIST ENTRY     ===> 00         xx in LNKLSTxx for DSNLINK
 8  LINK LIST SEQUENCE  ===> 88888888   Sequence number for insertion









PRESS:  ENTER to continue   END to exit   HELP for more information



                MIGRATE DB2 - LOG DATA SETS
===>
     _

Enter data below:

 1  NUMBER OF COPIES  ===> 2        2 or 1.  Number of active log copies
 2  DATA SET PREFIX 1 ===> PDB2.LOGCOPY1
 3  DATA SET PREFIX 2 ===> PDB2.LOGCOPY2
 4  NUMBER OF LOGS    ===> 3        Number data sets per active log copy
 5  INPUT BUFFER      ===> 28672    Size in bytes (28K-60K)
 6  OUTPUT BUFFER     ===> 700K     Size in bytes (40K-4000K)
 7  WRITE THRESHOLD   ===> 20       Buffers filled before write (1-256)
 8  BOOTSTRAP NAME 1  ===> PDB2.BSDS01
 9  BOOTSTRAP NAME 2  ===> PDB2.BSDS02








PRESS:  ENTER to continue   END to exit   HELP for more information



                MIGRATE DB2 - ARCHIVE LOG DATA SETS
===>
     _

Enter data below:

 1  NUMBER OF COPIES ===> 2         2 or 1.  Number of archive log copie
 2  ARCHIVE PREFIX   ===> PDB2.ARCHLOG1
 3   COPY 2 PREFIX   ===> PDB2.ARCHLOG2
 4  CATALOG DATA     ===> NO        YES or NO to catalog archive data se
 5  DEVICE TYPE      ===> 3480      Unit name for archive logs
 6  BLOCK SIZE       ===> 28672     Rounded up to 4096 multiple
 7  MAX CONCURRENT   ===> 3         Number of input volumes allocated
 8  RECORDING MAX    ===> 500       Number of data sets recorded in BSDS
 9  MSVGP 1          ===>           Mass storage volume group (MSVGP)
10  MSVGP 2          ===>           MSVGP for second archive copy
11  WRITE TO OPER    ===> YES       Issue WTOR before mount for archive
12  WTOR ROUTE CODE  ===> 1,3,4
                                    Routing codes for archive WTORs
13  RETENTION PERIOD ===> 0030      Days to retain archive log data sets
14  COMPACT DATA     ===> NO        YES or NO for data compaction


PRESS:  ENTER to continue   END to exit   HELP for more information



             MIGRATE DB2 - DATABASES AND SPACES TO START AUTOMATICALLY
===>
     _

Enter data below:

 1  ===> RESTART       RESTART or DEFER the objects named below.
    The objects to restart or defer may be ALL in item 2, a database
    name, or database name.space name.

 2  ==> ALL               14  ==>                   26  ==>
 3  ==>                   15  ==>                   27  ==>
 4  ==>                   16  ==>                   28  ==>
 5  ==>                   17  ==>                   29  ==>
 6  ==>                   18  ==>                   30  ==>
 7  ==>                   19  ==>                   31  ==>
 8  ==>                   20  ==>                   32  ==>
 9  ==>                   21  ==>                   33  ==>
10  ==>                   22  ==>                   34  ==>
11  ==>                   23  ==>                   35  ==>
12  ==>                   24  ==>                   36  ==>
13  ==>                   25  ==>                   37  ==>

PRESS:  ENTER to continue   END to exit   HELP for more information



                MIGRATE DB2  DISTRIBUTED DATA FACILITY
===>
     _

Enter data below:

 1 DDF STARTUP OPTION   ===> COMMAND   NO (DDF not startable),
                                       AUTO (automatic start up), or
                                       COMMAND (start by command)
 2 DB2 LOCATION NAME    ===> DOFPPDB2          The name other DB2s use t
                                               refer to this DB2
 3 DB2 NETWORK LUNAME   ===> DOFPPDB2  The name VTAM uses to refer to th
 4 DB2 NETWORK PASSWORD ===> DOFPPDB2  Password for connecting to other
 5 RLST ACCESS ERROR    ===> NOLIMIT   Action on non-local RLST access e
                                       NOLIMIT   - Run without limit
                                       NORUN     - Do not run at all
                                       1-5000000 - Limit in CPU service

 6 SAMPLE TEST LOCATION ===> DOFDDDB2          Location name used in pha
                                               (DSNTEJ6) of DB2 sample
                                               applications

PRESS:  ENTER to continue   END to exit   HELP for more information



-------- ------- -------- ----- ----------------------------------------
-------- ------- -------- ----- ----------------------------------------
SOPPITT  DD20010 06/12/92 11:30 CICS ATTACHMENT MODULES RE-LINKED AS
                                PER LVL3 MAINT INSTRUCTIONS (DSNCIJSU)
-------- ------- -------- ----- ----------------------------------------
SOPPITT  DD20010 06/12/92 11:00 CATALOG TABLESPACES RECLUSTERED USING
                                JOB DSNQRCLS.  RUNSTATS PERFORMED ON
                                CATALOG AFTER RECLUSTERING.
-------- ------- -------- ----- ----------------------------------------
-------- ------- -------- ----- ----------------------------------------
SYSADM   DD20010 07/12/92 09:16 SOFTWARE WAS IMPLEMENTED FROM THE TARGET
                                ZONE TPDB2, PDB2.TARGET.*, TO THE
                                ACTIVE ZONE PDB2, PDB2.*
-------- ------- -------- ----- ----------------------------------------
SYSADM   DD20010 07/12/92 09:08 TAPE ARCHIVE OF BPDB2 WAS CREATED.
                                OUTPUT TAPE DSN = PDB2.BACKUP.LVL1
-------- ------- -------- ----- ----------------------------------------
SYSADM   DD20010 07/10/92 15:46 TPDB2, WAS CLONED FROM A LEVEL 3
                                TDBST ZONE VIA IMPLEMENTATION DIALOG
-------- ------- -------- ----- ----------------------------------------
BORGES   DD20002 04/08/92 06:17 SOFTWARE WAS IMPLEMENTED FROM THE TARGET
                                ZONE TPDB2, PDB2.TARGET.*, TO THE
                                ACTIVE ZONE PDB2, PDB2.*
-------- ------- -------- ----- ----------------------------------------
BORGES   DD20002 04/07/92 15:20 TPDB2, WAS CLONED FROM A LEVEL 2
                                TDBST ZONE VIA IMPLEMENTATION DIALOG
-------- ------- -------- ----- ----------------------------------------
TOMIAK   DMV0016 03/22/92 08:00 CHREG# 21362
                                MOVE DSNAUX02
-------- ------- -------- ----- ----------------------------------------
DD20010  DD20010 03/22/92 07:55 SOFTWARE WAS IMPLEMENTED FROM THE TARGET
                                ZONE TPDB2, PDB2.TARGET.*, TO THE
                                ACTIVE ZONE PDB2, PDB2.*
-------- ------- -------- ----- ----------------------------------------
DD20010  DD20010 03/22/92 07:55 BACKUP ZONE WAS CREATED FROM ACTIVE
                                PDB2 ZONE (PDB2.*), FROM A LEVEL 0
-------- ------- -------- ----- ----------------------------------------
DD20002  DD20002 03/17/92 10:12 TPDB2, WAS CLONED FROM A LEVEL 1
                                TDBST ZONE VIA IMPLEMENTATION DIALOG
-------- ------- -------- ----- ----------------------------------------
ADONE    DB01GA  01/11/91 13:00 CHG0084 - C91011B
                                REPAIR SYSIBM TABLES FOR UL74130
-------- ------- -------- ----- ----------------------------------------
ADONE    DB01GA  12/18/90 15:00 CHG0064 - C90351B
                                CHANGE DSNDB07.DSN4K SIZE AND VOLSER
-------- ------- -------- ----- ----------------------------------------
JAFFE    TS01MJ  11/30/90 12:00 CHG0042 - C90334A
                                CHANGE DSNCRCTP RCT (DOFFFXPR) TO
                                  FURTHER CONTROL THREADS
                                CCSPRODN.TABLE.SOURCE(DSNCRCTP)
                                CCSPRODN.TABLE.SOURCE(FTXRCTPR)
-------- ------- -------- ----- ----------------------------------------
GRAVES   CP01KG  11/30/90 12:00 CHG0037 - C90330A
                                CHG RCT TO SPECIFY AUTH=GROUP FOR ALL
                                FAIRTAX REGIONS.
-------- ------- -------- ----- ----------------------------------------
GRAVES   CP02KG  11/23/90 10:00 CHG0035 - C90324B
                                CHG DSNCRCTP RCT TO SPECIFY AUTH=GROUP
                                CCSPRODN.TABLE.SOURCE(DSNCRCTP)
                                ALSO CHANGE THREAD SPECIFICATIONS.
                                CCSPRODN.TABLE.SOURCE(FTXRCTPR)
                                CCSPRODN.TABLE.SOURCE(I1RCTPR)
                                CCSPRODN.TABLE.SOURCE(I14RCTPR)
                                CCSPRODN.TABLE.SOURCE(PROTRCTP)
                                CCSPRODN.TABLE.SOURCE(RCT$DB2P)
-------- ------- -------- ----- --------------------------------------
PANICALI DB01EP  11/13/90 15:00 C90317A - CHG0032
                                INCREASE THE BUFFERPOOL 0  PARM TO 10000
                                 PAGES FROM 4000 PAGES IN ORDER TO
                                 HANDLE INCREASED VOLUMES.

                                INCREASE THE BUFFERPOOL 2  PARM TO 2000
                                 PAGES FROM 500 PAGES IN ORDER TO
                                 KEEP INDEXES IN CORE IN THE BUFFER.

                                 MEMBER MODIFIED AND SUBMITTED IS:
                                 PDB2.DOFF.JCLLIB($$NTIJUZ).
-------- ------- -------- ----- --------------------------------------
LEVITT    TS01BL  11/09/90 12:02 CXXXXXX - CHGXXXX
                                 REFRESHED INFOPAK DATASETS WITH 9021
                                 PASSWORD
-------- ------- -------- ----- ----------------------------------------
-------TRIAL MIGRATION ----------------------- TRIAL MIGRATION ---------
-------TRIAL MIGRATION ----------------------- TRIAL MIGRATION ---------
-------TRIAL MIGRATION ----------------------- TRIAL MIGRATION ---------
-------TRIAL MIGRATION ----------------------- TRIAL MIGRATION ---------
-------- ------- -------- ----- --------------------------------------
ANDERBRG TS03KA  09/29/90 15:00 ROLL SMPE TO DDB2/QMF/DXT
-------- ------- -------- ----- ----------------------------------------
TOMIAK   TS03KT  09/28/90 09:00 SYS2.DB2.CNTL(SMPROLL)
-------- ------- -------- ----- ----------------------------------------
TOMIAK   TS03KT  06/08/90 11:30 SYS2.DB2.CNTL(SMPROLL)
                                SMPROLL FOR ZONE UPDATES
                                PTF UL72609 AND ITS PREREQS:
                                  UL66718,UL69482
                                    UL60121,UL64920,UL64955,UL58435
                                      UL66461,UL59796
                                PTF UL66203
-------- ------- -------- ----- --------------------------------------
TOMIAK   TS03KT  06/03/90 09:00 SYS2.DB2.CNTL(DDB2PDB2) (EMERGENCY FIX)
-------- ------- -------- ----- ----------------------------------------
TOMIAK   TS03KT  05/18/90 16:45 SMPROLL FOR ZONE UPDATES
                                  INCLUDES PTF UL66203
-------- ------- -------- ----- ----------------------------------------
LEVITT   TS01BL  03/07/90 09:30 MIGRATED TO DB2 VERSION 2
                                CREATED DDF FOR PDB2
-------- ------- -------- ----- ----------------------------------------
TOMIAK   DOFN008 01/29/90 17:14 QMF BATCH IVP
-------- ------- -------- ----- ----------------------------------------
TOMIAK   DOFN008 01/29/90 15:30 QMF ONLINE IVP
-------- ------- -------- ----- ----------------------------------------
TOMIAK   DOFN008 01/29/90 15:00 TAILOR INVOCATION CLIST
-------- ------- -------- ----- ----------------------------------------
TOMIAK   DOFN008 01/29/90 14:11 DSQ1EIVS - CREATE DATABASE AND TABLES
-------- ------- -------- ----- ----------------------------------------
TOMIAK   DOFN008 01/29/90 14:00 TAILOR SYSIN MEMBERS TO STANDARDS
                          14:09  1) DSQ1ESTC - IVP DATABASE
-------- ------- -------- ----- ----------------------------------------
TOMIAK   DOFN008 01/29/90 14:07 DSQ1STGJ - CREATE DATABASE AND STOGROUP
-------- ------- -------- ----- ----------------------------------------
TOMIAK   DOFN008 01/29/90 14:00 TAILOR SYSIN MEMBERS TO STANDARDS
                          14:05  1) DSQ1STGC - DEFAULT "SAVE DATA" BASE
-------- ------- -------- ----- ----------------------------------------
TOMIAK   DOFN008 01/29/80 12:44 DSQ1BINJ - BIND QMF PLAN
-------- ------- -------- ----- ----------------------------------------
TOMIAK   DOFN008 01/29/80 12:37 DSQ1TBLJ - CREATE QMF CONTROL TABLES
-------- ------- -------- ----- ----------------------------------------
TOMIAK   DOFN008 01/29/80 12:35 DSQ1BSQL - BIND QMF INSTALL PLAN
-------- ------- -------- ----- ----------------------------------------
TOMIAK   DOFN008 01/29/90 12:00 TAILOR SYSIN MEMBERS TO STANDARDS
                          12:08  1) DSQ1BSUB - SUBSYSTEM ID
                          12:15  2) DSQ1ESTA - PDB2QMF, FDB001
                          12:15  3) DSQ1ESTB - PDB2QMF, FDB001
                          12:23  4) DSQ1TBLU - VCAT PDB2QMF
                          12:23  5) DSQ1TBLI - VCAT PDB2QMF
-------- ------- -------- ----- ----------------------------------------
TOMIAK   DOFN008 01/29/90 11:59 DSQ1CHRT TO INSTALL SAMPLE CHART FORMS
-------- ------- -------- ----- ----------------------------------------
TOMIAK   DOFN008 01/29/90 11:53 DSQ1EMAP TO INSTALL QMF/GDDM MAP GROUPS
-------- ------- -------- ----- ----------------------------------------
TOMIAK   DOFN008 01/29/90 09:05 CLONED RUNNING DATASETS WITH IEBCOPY ON
                                FDB001 FROM TARGET LIBS.
-------- ------- -------- ----- ----------------------------------------
TOMIAK   DOFN008 01/29/90 09:00 CREATED PDB2QMF AND DDB2QMF ALIAS IN
                                CATALOG.PRODUCTS
-------- ------- -------- ----- ----------------------------------------
TOMIAK   DOFN008 01/17/90 11:45 11) $SNTIJIC - IMAGE COPIES
TOMIAK   DOFN008 01/17/90 10:00 ADDED DB2 ENTRIES TO DOFFCICS
-------- ------- -------- ----- --------------------------------------
TOMIAK   DOFN008 01/16/90 09:00 CREATED PDB2 SUBSYSTEM
                          15:06 1)  $SNTIJIN - CREATE DB2 DSNS
                          15:13 2)  $SNTIJID - INITIALIZE DB2 DSNS
                          15:22 3)  $SNTIJUZ - EXECUTION PARAMETERS
                          15:28 4)  $SNTIJSU - LINK CICS ROUTINES
                          15:32 5)  $SNTIJEX - USER AUTH EXITS
                          15:35 6)  $SNTIJMV - MOVE IN PROCS
                          17:38 7)  $SNTIJTM - DEFINE TEMP,BIND
                          17:43 8)  $SNTIJSG - DEFINE STOGROUP,BIND
                          17:44 9)  $GRANT   - PUBLIC PRIVILEGES
                          17:44 10) $SYSADM  - SYSTEM ADMINISTRATOR
 -------- ------- -------- ----- --------------------------------------
 TOMIAK    DOFN008 01/16/90 09:00 CREATED FDB001 VOLUME FOR PDB2
 -------- ------- -------- ----- --------------------------------------

!!!!!!!!!!!!!!!!!!!!!!!!!!!!!!!!!!!!!!!!!!!!!!!!!!!!!!!!!!!!!!!!!!!!!
!!!!!!!!!!!!      ADD NEW ENTRIES AT THE TOP          !!!!!!!!!!!!!!!
!!!!!!!!!!!!!!!!!!!!!!!!!!!!!!!!!!!!!!!!!!!!!!!!!!!!!!!!!!!!!!!!!!!!!

./ ADD NAME=PLATINUM 0117-93099-93182-1501-00815-00040-00000-DD20006
************************************************************************
*****                                                              *****
*****                PLATINUM PRODUCTS                             *****
*****                                                              *****
*****       QUICK INSTALL - INSTALLS PLATINUM PRODUCTS             *****
*****       QUICK COPY    - IMAGE COPY UTILITY                     *****
*****       RAPID REORG   - REORG UTILITY                          *****
*****       BATCH PROCESSOR - RUNS IN ????GROUND (PLAN ANALYZER)   *****
*****       PLAN ANALYZER   - SQL PLAN ANALYZER                    *****
*****                                                              *****
************************************************************************

NAME     USERID  DATE     TIME  DESCRIPTION OF CHANGE
-------- ------- -------- ----- ----------------------------------------
PRISCIAN DD20006 07/01/93 15:00 Project: DB2PLA
                                XDBS.INSTALL.CNTL(PLATPSWD)
                                ASSEMBLE PASSWORDS.
                                UPDATE PASSWORDS IN
                                XDBS.PLATINUM.SRCLIB(PASSWORD).
                                EXPIRES 7/31/93.
-------- ------- -------- ----- ----------------------------------------
PRISCIAN MANN    06/15/93 15:50 Project: DB2PLA
                                XDBS.INSTALL.CNTL(PLATPSWD)
                                ASSEMBLE PASSWORDS.
                                UPDATE PASSWORDS IN
                                XDBS.PLATINUM.SRCLIB(PASSWORD).
                                ADDED PLAN ANALYZER AND BATCH PROCESSOR.
-------- ------- -------- ----- ----------------------------------------
PRISCIAN MANN    06/15/93 15:15 Project: DB2PLA
                                XDBS.INSTALL.CNTL(PLATUL4)
                                UNLOAD PERMANENT XDBS.PLATINUM.***
                                XDBS.PLATINUM.CONTROL CREATED BY
                                PREVIOUS STEP (CLIST INVKQKIN).
                                PLATINUM PRODUCTS NOW INCLUDE:
                                PLAN ANALYZER, BATCH PROCESSOR
                                RAPID REORG, QUICK COPY.
-------- ------- -------- ----- ----------------------------------------
PRISCIAN MANN    06/15/93 14:30 Project: DB2PLA
                                INVOKE CLIST ==> INVKQKIN PLATTEMP


 PIPM  R01.00 ---- PLATINUM INSTALLATION PROCESSOR MAIN MENU ---- 93/06/
 COMMAND ===> 0
               _


                        QUICK INSTALL OPTIONS:

   0   PROFILE           - SETUP PROFILE OPTIONS

   1   SELECTIVE INSTALL - INSTALL SELECTED PLATINUM DB2 PRODUCTS

   2   COMPLETE INSTALL  - INSTALL ALL PLATINUM DB2 PRODUCTS

   3   RESUME            - CONTINUE AN INSTALL OPTION AT A PREVIOUS LOCA

   4   INDIVIDUAL STEPS  - PERFORM SINGLE STEPS OF QUICK INSTALL

   X   EXIT              - EXIT PLATINUM QUICK INSTALL

 SELECT AN OPTION AND PRESS ENTER TO BEGIN THE INSTALLATION PROCESS.

 PRESS PF1 FOR HELP OR PF3 TO EXIT THE INSTALLATION PROCESSOR.


  --- COPYRIGHT  1992   PLATINUM TECHNOLOGY INC.  ALL RIGHTS RESERVED --


 PIPPROF  R01.00 ----------------- PIP PROFILE -----------------  93/06/
 COMMAND ===> 1
               _


  SELECT AN OPTION BY TYPING A NUMBER.  THEN PRESS ENTER.   AFTER ALL SE
  HAVE BEEN PROCESSED, TYPE END OR PRESS PF3 TO CONTINUE.


                      1.  GLOBAL PARAMETERS

                      2.  DB2 PARAMETERS

                      3.  EXECUTION PARAMETERS

                      4.  SETUP SCREEN COLORS






  PRESS PF1 FOR HELP.




 PIPPROF1  R01.00 ---------- PIP - GLOBAL  PARAMETERS ----------  93/06/
 COMMAND ===>

   TYPE THE INFORMATION IN THE FIELDS BELOW.  THEN PRESS ENTER TO UPDATE
   PRESS PF3 OR TYPE END TO RETURN TO THE PROFILE MENU.

      VOLUME SERIAL NUMBER OF CURRENT INSTALLATION TAPE  .... P209AA
      HIGH LEVEL QUALIFIER
      TO BE USED FOR CURRENT INSTALLATION ....... XDBS.PLATINUM

      VOLUME SERIAL NUMBER OF PREVIOUS INSTALLATION TAPE  ...
                                                              _
      HIGH LEVEL QUALIFIER
      OF PREVIOUSLY INSTALLED PRODUCTS ..........













 PIPM  R01.00 ---- PLATINUM INSTALLATION PROCESSOR MAIN MENU ---- 93/06/
 COMMAND ===> 1
               _


                        QUICK INSTALL OPTIONS:

   0   PROFILE           - SETUP PROFILE OPTIONS

   1   SELECTIVE INSTALL - INSTALL SELECTED PLATINUM DB2 PRODUCTS

   2   COMPLETE INSTALL  - INSTALL ALL PLATINUM DB2 PRODUCTS

   3   RESUME            - CONTINUE AN INSTALL OPTION AT A PREVIOUS LOCA

   4   INDIVIDUAL STEPS  - PERFORM SINGLE STEPS OF QUICK INSTALL

   X   EXIT              - EXIT PLATINUM QUICK INSTALL

 SELECT AN OPTION AND PRESS ENTER TO BEGIN THE INSTALLATION PROCESS.

 PRESS PF1 FOR HELP OR PF3 TO EXIT THE INSTALLATION PROCESSOR.


  --- COPYRIGHT  1992   PLATINUM TECHNOLOGY INC.  ALL RIGHTS RESERVED --


 PIPVOL   R01.00 ------------- PIP - VOLUME SERIAL -------------  93/06/
 COMMAND ===>

   TYPE THE INFORMATION IN THE FIELDS BELOW.  THEN PRESS ENTER.

      VOLUME SERIAL NUMBER OF
      CURRENT INSTALLATION TAPE ........ P209AA     (REQUIRED)



   IF THE FIELDS BELOW ARE NOT BLANK, VERIFY THAT BOTH ARE CORRECT.

      HIGH LEVEL QUALIFIER OF PREVIOUSLY
      INSTALLED PLATINUM PRODUCTS  .....
                                         _


      VOLUME SERIAL NUMBER OF
      PREVIOUS INSTALLATION TAPE .......



 PRESS PF1 FOR HELP OR PF3 TO RETURN TO THE INSTALLATION MAIN MENU.




 PIPROD  R01.00 --- PLATINUM PRODUCT SELECTION ---  93/06/15  15:1  ROW
 COMMAND ===>                                                  SCROLL ==

 CHOOSE THE PRODUCTS THAT YOU WISH TO INSTALL BY TYPING AN S IN THE SELE
 FIELD.  THEN PRESS ENTER TO REGISTER YOUR SELECTIONS.  AFTER ALL SELECT
 HAVE BEEN MADE PRESS PF3 TO CONTINUE PROCESSING.

 PRODUCTS ARE UNLOADED FROM THE P209AA INSTALLATION TAPE.

 SELECT   PRODUCT NAME           RELEASE LEVEL         STATUS

 (   )    RC/UPDATE              V3.1, PRODUCTION
 (   )    RC/MIGRATOR            V3.1, PRODUCTION
 (   )    RC/QUERY               V3.2, PRODUCTION
 (   )    RC/SECURE              V2.3, PRODUCTION
 (   )    DATABASE ANALYZER      V2.0, PRODUCTION
 ( S )    PUT                    V2.0, PRODUCTION      INSTALLING
 (   )    PIPELINE               V2.1, PRODUCTION
 (   )    PG/O                   V2.2, PRODUCTION
 (   )    SQL/EASE               V1.3, PRODUCTION
 ( S )    PLAN ANALYZER          V1.3, PRODUCTION      INSTALLING
 (   )    QQF                    V3.5, PRODUCTION
   _
 (   )    PACKAGE/IT             V1.0, PRODUCTION
 (   )    GOVERNOR FACILITY      V1.0, PRODUCTION


 PIPPARM   R01.00 ---------- PIP - GENERAL PARAMETERS ----------  93/06/
 COMMAND ===>
              _

   TYPE THE INFORMATION IN THE FIELDS BELOW.  THEN PRESS ENTER.

      JOBNAME FOR INSTALLATION  ... PLATQKIN
      ACCOUNTING INFORMATION  ..... A006,SYTM,99,99
      EXECUTION CLASS  ............ J
      MESSAGE CLASS  .............. V
      UNIT NAME FOR DASD  ......... SYSDA

      VOLUME SERIAL NUMBER OF INSTALLATION TAPE  ... P209AA
      TEMPORARY HIGH LEVEL QUALIFIER FROM UNLOAD ... XDBS.PLATTEMP

      HIGH LEVEL QUALIFIER FOR USER LIBRARIES ... XDBS.PLATINUM
      DASD VOLUME FOR USER LIBRARIES ............ DB2S01
      USER LIBRARIES BLOCK SIZE  ................ 3120
      LOADLIB BLOCK SIZE  ....................... 23200


 PRESS PF1 FOR HELP OR PF3 TO RETURN TO THE INSTALLATION MAIN MENU.

-------- ------- -------- ----- ----------------------------------------
PRISCIAN MANN    06/15/93  9:30 XDBS.INSTALL.CNTL(PLATPSWD)
                                ASSEMBLE PASSWORDS FOR UTILITIES.
                                UPDATE PASSWORDS IN
                                XDBS.PLATINUM.SRCLIB(PASSWORD).
-------- ------- -------- ----- ----------------------------------------
PRISCIAN MANN    04/14/93 14:45 XDBS.INSTALL.CNTL(PLATPSWD)
                                ASSEMBLE PASSWORDS.
                                JOBSTREAM CREATED BY QUICK INSTALL.
                                UPDATE PASSWORDS IN
                                XDBS.PLATINUM.SRCLIB(PASSWORD)
-------- ------- -------- ----- ----------------------------------------
PRISCIAN MANN    04/14/93 15:30 Project: DB2PLT
                                INVOKE CLIST ==> INVKPLAT XDBS

 PIPINDV  R01.00 -------- INSTALLATION INDIVIDUAL STEPS  -------  93/04/
 COMMAND ===>
              _

  SELECT AN OPTION BY TYPING THE LETTER. THEN PRESS ENTER.  AFTER ALL SE
  HAVE BEEN PROCESSED, TYPE END OR PRESS PF3 TO RETURN TO THE MAIN MENU.

         1.  LINK          - LINK PRODUCTS
         2.  PARMLIB       - EDIT PARMLIB MEMBERS
         3.  PASSWORD      - ENTER PASSWORDS
         4.  OBJECTS       - CREATE PLATINUM DB2 OBJECTS
         5.  BIND          - BIND PLATINUM PRODUCTS
         6.  PPA/SQL-EASE  - ADDITIONAL PPA/SQL-EASE STEPS
         7.  CUSTOMIZATION - PRODUCT CUSTOMIZATION
         8.  MODEL         - MODEL LIBRARY CUSTOMIZATION
         9.  PGF           - GOVERNOR FACILITY CONVERSIONS.
        10.  FIXES         - DISPLAY PRODUCT FIXES APPLIED
        11.  VERIFY        - VERIFY PLATINUM PRODUCTS

         A.  ALL STEPS     - ALL STEPS, IN ORDER

         B   BACKUP TO LAST MENU.
         Q   QUIT, SAVING CURRENT LOCATION.
         C   CANCEL, WITHOUT SAVING CURRENT LOCATION.
  PRESS PF1 FOR HELP.


 PIPPRML  R01.00 ------------ PLATINUM PARMLIB MENU ------------  93/04/
 COMMAND ===>
              _


  SELECT AN OPTION BY TYPING A NUMBER.  THEN PRESS ENTER.  AFTER ALL SEL
  HAVE BEEN PROCESSED, TYPE END OR PRESS PF3 TO CONTINUE.



             1.  EDIT PARMLIB MEMBERS TO SET PARAMETERS.

             B.  BACKUP, DISPLAY PREVIOUS MENU.

             Q.  QUIT, SAVING CURRENT LOCATION.

             C.  CANCEL, WITHOUT SAVING CURRENT LOCATION.




  PRESS PF1 FOR HELP.





 PIPDBSED  R01.00 ------------ PIP - PARMLIB(SETUP) ------------  93/04/
 COMMAND ===>
              _

   TYPE THE INFORMATION IN THE FIELDS BELOW.  THEN PRESS ENTER.

      COMPANY NAME..............> CDCSA/NYC
      WORK UNIT NAME............> SYSDA
      DISPLAY ALL PRODUCTS .....> NO       (YES OR NO)

  NATIONAL LANGUAGE SETTINGS:

      VERTICAL BAR CHARACTER....> 
      DECIMAL POINT CHARACTER...> .        (. OR ,)
      MIXED DBCS/SBCS DATA......> NO       (YES OR NO)
      DATE FORMAT ..............> YY/MM/DD
      TIME DELIMITER ...........> :        (IE : , . )
      DISPLAY SECONDS ..........> NO       (YES OR NO)

 PRESS PF1 FOR HELP                   PRESS PF3 TO SKIP EDITING OF SETUP







 PIPDBSEM  R01.00 ------------ PIP - PARMLIB(SETUP) ------------  93/04/
 COMMAND ===>
              _

   DB2 SUBSYSTEM ............> DB2M
   VSAM CATALOG ALIAS .......> DB2M
   DB2 LOAD LIBRARIES .......>
                      .......>
                      .......>
                      .......>
   SYSADM ...................> BORGY
   SYSADM2 ..................> PETE

   LOCATION ...>                    LOCATIONS SUBSYSTEM ID ...>
   LOCATION ...>                    LOCATIONS SUBSYSTEM ID ...>
   LOCATION ...>                    LOCATIONS SUBSYSTEM ID ...>
   LOCATION ...>                    LOCATIONS SUBSYSTEM ID ...>
   LOCATION ...>                    LOCATIONS SUBSYSTEM ID ...>
   LOCATION ...>                    LOCATIONS SUBSYSTEM ID ...>
   LOCATION ...>                    LOCATIONS SUBSYSTEM ID ...>
   LOCATION ...>                    LOCATIONS SUBSYSTEM ID ...>

  PRESS ENTER FOR ADDITIONAL SUBSYSTEMS.
  PRESS PF3 (END) WHEN INFORMATION FOR ALL SUBSYSTEMS IS COMPLETE



 PIPDBSEM  R01.00 ------------ PIP - PARMLIB(SETUP) ------------  93/04/
 COMMAND ===>
              _

   DB2 SUBSYSTEM ............> DB2M
   VSAM CATALOG ALIAS .......> DB2M
   DB2 LOAD LIBRARIES .......> DB2M.DSNEXIT
                      .......> DB2M.DSNLOAD
                      .......>
                      .......>
   SYSADM ...................> BORGY
   SYSADM2 ..................> PETE

   LOCATION ...>                    LOCATIONS SUBSYSTEM ID ...>
   LOCATION ...>                    LOCATIONS SUBSYSTEM ID ...>
   LOCATION ...>                    LOCATIONS SUBSYSTEM ID ...>
   LOCATION ...>                    LOCATIONS SUBSYSTEM ID ...>
   LOCATION ...>                    LOCATIONS SUBSYSTEM ID ...>
   LOCATION ...>                    LOCATIONS SUBSYSTEM ID ...>
   LOCATION ...>                    LOCATIONS SUBSYSTEM ID ...>
   LOCATION ...>                    LOCATIONS SUBSYSTEM ID ...>

  PRESS ENTER FOR ADDITIONAL SUBSYSTEMS.
  PRESS PF3 (END) WHEN INFORMATION FOR ALL SUBSYSTEMS IS COMPLETE



 PIPINDV  R01.00 -------- INSTALLATION INDIVIDUAL STEPS  -------  93/04/
 COMMAND ===>
              _

  SELECT AN OPTION BY TYPING THE LETTER. THEN PRESS ENTER.  AFTER ALL SE
  HAVE BEEN PROCESSED, TYPE END OR PRESS PF3 TO RETURN TO THE MAIN MENU.

         1.  LINK          - LINK PRODUCTS
         2.  PARMLIB       - EDIT PARMLIB MEMBERS
         3.  PASSWORD      - ENTER PASSWORDS
         4.  OBJECTS       - CREATE PLATINUM DB2 OBJECTS
         5.  BIND          - BIND PLATINUM PRODUCTS
         6.  PPA/SQL-EASE  - ADDITIONAL PPA/SQL-EASE STEPS
         7.  CUSTOMIZATION - PRODUCT CUSTOMIZATION
         8.  MODEL         - MODEL LIBRARY CUSTOMIZATION
         9.  PGF           - GOVERNOR FACILITY CONVERSIONS.
        10.  FIXES         - DISPLAY PRODUCT FIXES APPLIED
        11.  VERIFY        - VERIFY PLATINUM PRODUCTS

         A.  ALL STEPS     - ALL STEPS, IN ORDER

         B   BACKUP TO LAST MENU.
         Q   QUIT, SAVING CURRENT LOCATION.
 .  .  .  .  .  .  .  .  .  .  .  .  .  .  .  .  .  .  .  .  .  .  .  .
 -----------------------  ISPF/PDF PRIMARY OPTION MENU  ----------------


 PIPPWM  R01.00 --------- PLATINUM PASSWORD ENTRY MENU ---------  93/04/
 COMMAND ===>
              _


  SELECT AN OPTION BY TYPING A NUMBER.  THEN PRESS ENTER.  AFTER ALL SEL
  HAVE BEEN PROCESSED, TYPE END OR PRESS PF3 TO CONTINUE.


             1.  ENTER PASSWORDS FOR PLATINUM PRODUCTS.

             2.  COPY EXISTING PLATINUM PASSWORDS.

             3.  EDIT PLATINUM PASSWORD MODULE.

             4.  GENERATE JCL TO LINK AND VERIFY PASSWORD MODULE.

             B.  BACKUP, DISPLAY PREVIOUS MENU.

             Q.  QUIT, SAVING CURRENT LOCATION.

             C.  CANCEL, WITHOUT SAVING CURRENT LOCATION.

 .  .  .  .  .  .  .  .  .  .  .  .  .  .  .  .  .  .  .  .  .  .  .  .
 -----------------------  ISPF/PDF PRIMARY OPTION MENU  ----------------


 PIPWNEW   R01.00 ----------- PLATINUM PASSWORD ENTRY ----------  93/04/
 COMMAND ===>
              _


   TYPE THE INFORMATION IN THE FIELD BELOW.  THEN PRESS ENTER TO REGISTE
   PASSWORD.  PRESS PF3 OR TYPE END TO RETURN TO THE PASSWORD MENU.



               PASSWORD  ...












 .  .  .  .  .  .  .  .  .  .  .  .  .  .  .  .  .  .  .  .  .  .  .  .
 -----------------------  ISPF/PDF PRIMARY OPTION MENU  ----------------


 PIPPWM  R01.00 --------- PLATINUM PASSWORD ENTRY MENU ---------  93/04/
 COMMAND ===>
              _


  SELECT AN OPTION BY TYPING A NUMBER.  THEN PRESS ENTER.  AFTER ALL SEL
  HAVE BEEN PROCESSED, TYPE END OR PRESS PF3 TO CONTINUE.


             1.  ENTER PASSWORDS FOR PLATINUM PRODUCTS.

             2.  COPY EXISTING PLATINUM PASSWORDS.

             3.  EDIT PLATINUM PASSWORD MODULE.

             4.  GENERATE JCL TO LINK AND VERIFY PASSWORD MODULE.

             B.  BACKUP, DISPLAY PREVIOUS MENU.

             Q.  QUIT, SAVING CURRENT LOCATION.

             C.  CANCEL, WITHOUT SAVING CURRENT LOCATION.

 .  .  .  .  .  .  .  .  .  .  .  .  .  .  .  .  .  .  .  .  .  .  .  .
 -----------------------  ISPF/PDF PRIMARY OPTION MENU  ----------------


 PIPPWJ   R01.00 --------- PLATINUM PASSWORD PARAMETERS --------  93/04/
 COMMAND ===>
              _


   TYPE THE INFORMATION IN THE FIELDS BELOW.  THEN PRESS ENTER.

      JOBNAME FOR ASSEMBLY  ..... PLATQKIN
      ACCOUNTING INFORMATION  ... A006,SYTM,99,99
      EXECUTION CLASS  .......... J
      MESSAGE CLASS  ............ V

      HIGH LEVEL IDENTIFIER ....: XDBS.PLATINUM










-------- ------- -------- ----- ----------------------------------------
PRISCIAN MANN    04/14/93 11:03 XDBS.INSTALL.CNTL(PLATUL4)
                                UNLOAD PERMANENT XDBS.PLATINUM.***
                                JOBSTREAM CREATED BY QUICK INSTALL.
                                CONTAINS QUICKCOPY AND RAPID REORG.
-------- ------- -------- ----- ----------------------------------------
PRISCIAN MANN    04/14/93 10:30 Project: DB2PLT
                                INVOKE CLIST ==> INVKQKIN PLATTEMP
 PIPM  R01.00 ---- PLATINUM INSTALLATION PROCESSOR MAIN MENU ---- 93/04/
 COMMAND ===>
              _


                        QUICK INSTALL OPTIONS:

   0   PROFILE           - SETUP PROFILE OPTIONS

   1   SELECTIVE INSTALL - INSTALL SELECTED PLATINUM DB2 PRODUCTS

   2   COMPLETE INSTALL  - INSTALL ALL PLATINUM DB2 PRODUCTS

   3   RESUME            - CONTINUE AN INSTALL OPTION AT A PREVIOUS LOCA

   4   INDIVIDUAL STEPS  - PERFORM SINGLE STEPS OF QUICK INSTALL

   X   EXIT              - EXIT PLATINUM QUICK INSTALL

 SELECT AN OPTION AND PRESS ENTER TO BEGIN THE INSTALLATION PROCESS.

 PRESS PF1 FOR HELP OR PF3 TO EXIT THE INSTALLATION PROCESSOR.


  --- COPYRIGHT  1992   PLATINUM TECHNOLOGY INC.  ALL RIGHTS RESERVED --


 PIPPROF  R01.00 ----------------- PIP PROFILE -----------------  93/04/
 COMMAND ===>
              _


  SELECT AN OPTION BY TYPING A NUMBER.  THEN PRESS ENTER.   AFTER ALL SE
  HAVE BEEN PROCESSED, TYPE END OR PRESS PF3 TO CONTINUE.


                      1.  GLOBAL PARAMETERS

                      2.  DB2 PARAMETERS

                      3.  EXECUTION PARAMETERS

                      4.  SETUP SCREEN COLORS






  PRESS PF1 FOR HELP.




 PIPPROF1  R01.00 ---------- PIP - GLOBAL  PARAMETERS ----------  93/04/
 COMMAND ===>
              _

   TYPE THE INFORMATION IN THE FIELDS BELOW.  THEN PRESS ENTER TO UPDATE
   PRESS PF3 OR TYPE END TO RETURN TO THE PROFILE MENU.

      VOLUME SERIAL NUMBER OF CURRENT INSTALLATION TAPE  .... P209AA
      HIGH LEVEL QUALIFIER
      TO BE USED FOR CURRENT INSTALLATION ....... XDBS.PLATINUM

      VOLUME SERIAL NUMBER OF PREVIOUS INSTALLATION TAPE  ...
      HIGH LEVEL QUALIFIER
      OF PREVIOUSLY INSTALLED PRODUCTS ..........













 PIPPROF2  R01.00 ------------ PIP - DB2 PARAMETERS ------------  93/04/
 COMMAND ===>
              _

   TYPE THE INFORMATION IN THE FIELDS BELOW.  THEN PRESS ENTER TO UPDATE
   PRESS PF3 OR TYPE END TO RETURN TO PROFILE MENU.

      DB2 SUBSYSTEM  .............. DB2M

      DB2 VERSION  ................ V2.3

      VSAM HIGH LEVEL VCAT  ....... DB2M

      DB2 SYSADM  ................. BORGY
      DB2 SYSADM2  ................ PETE

      DB2 LOAD LIBRARY  ........... DB2M.DSNLOAD










 PIPPROF4   R01.00 --------- PIP - EXECUTION PARAMETERS --------  93/04/
 COMMAND ===>
              _

   TYPE THE INFORMATION IN THE FIELDS BELOW.  THEN PRESS ENTER TO UPDATE
   PRESS PF3 OR TYPE END TO RETURN TO PROFILE MENU.

      JOBNAME FOR INSTALLATION  ... PLATQKIN
      ACCOUNTING INFORMATION  ..... A006,SYTM,99,99
      EXECUTION CLASS  ............ J
      MESSAGE CLASS  .............. V
      UNIT NAME FOR DASD  ......... SYSDA
      DASD VOLUME
      FOR USER LIBRARIES  ......... DB2S01

      RC/MIGRATOR DSN MASK ........ %USERID..%OBJECT
      PLATINUM UTILITIES .......... Y

      RC/SECURE SECURITY ADMINISTRATOR  ..... RCSADM
      RC/SECURE SECURITY ADMINISTRATOR 2  ... RCSADM2
      RC/SECURE GRANT ID  ................... RCSECUR
      RC/SECURE DEPARTMENTS ................. YES

 PRESS PF1 FOR HELP OR PF3 TO RETURN TO THE INSTALLATION MAIN MENU.



 PIPPROF5  R01.00 ------------ PIP SET SCREEN COLORS -----------  93/04/
 COMMAND ===>
              _


   CHOOSE YOUR SCREEN COLORS BELOW.  ENTER THE FIRST CHARACTER OF THE CO
   YOUR CHOICE, OR BLANK THE FIELD TO RESET DEFAULT COLOR.  PRESS PF3  T
   RETURN TO PROFILE MENU.

                   FIELD TYPE/INTENSITY   COLOR
                      INPUT  / HIGH ..... RED
                      INPUT  / LOW ...... GREEN
                      OUTPUT / HIGH ..... WHITE
                      OUTPUT / LOW ...... BLUE
                      TEXT   / HIGH ..... WHITE
                      TEXT   / LOW ...... BLUE

 -----------------------------------------------------------------------

        W - WHITE      P - PINK       B - BLUE      T - TURQUOISE
        R - RED        Y - YELLOW     G - GREEN






 PIPVOL   R01.00 ------------- PIP - VOLUME SERIAL -------------  93/04/
 COMMAND ===>
              _

   TYPE THE INFORMATION IN THE FIELDS BELOW.  THEN PRESS ENTER.

      VOLUME SERIAL NUMBER OF
      CURRENT INSTALLATION TAPE ........ P209AA     (REQUIRED)



   IF THE FIELDS BELOW ARE NOT BLANK, VERIFY THAT BOTH ARE CORRECT.

      HIGH LEVEL QUALIFIER OF PREVIOUSLY
      INSTALLED PLATINUM PRODUCTS  .....


      VOLUME SERIAL NUMBER OF
      PREVIOUS INSTALLATION TAPE .......



 PRESS PF1 FOR HELP OR PF3 TO RETURN TO THE INSTALLATION MAIN MENU.


 PIPROD  R01.00 --- PLATINUM PRODUCT SELECTION ---  93/04/14  10:5  ROW
 COMMAND ===>                                                  SCROLL ==
              _

 CHOOSE THE PRODUCTS THAT YOU WISH TO INSTALL BY TYPING AN S IN THE SELE
 FIELD.  THEN PRESS ENTER TO REGISTER YOUR SELECTIONS.  AFTER ALL SELECT
 HAVE BEEN MADE PRESS PF3 TO CONTINUE PROCESSING.

 PRODUCTS ARE UNLOADED FROM THE P209AA INSTALLATION TAPE.

 SELECT   PRODUCT NAME           RELEASE LEVEL         STATUS

 (   )    RC/UPDATE              V3.1, PRODUCTION
 (   )    RC/MIGRATOR            V3.1, PRODUCTION
 (   )    RC/QUERY               V3.2, PRODUCTION
 (   )    RC/SECURE              V2.3, PRODUCTION
 (   )    DATABASE ANALYZER      V2.0, PRODUCTION
 ( S )    PUT                    V2.0, PRODUCTION      INSTALLING
 (   )    PIPELINE               V2.1, PRODUCTION
 (   )    PG/O                   V2.2, PRODUCTION
 (   )    SQL/EASE               V1.3, PRODUCTION
 (   )    PLAN ANALYZER          V1.3, PRODUCTION
 (   )    QQF                    V3.5, PRODUCTION
 (   )    PACKAGE/IT             V1.0, PRODUCTION
 (   )    GOVERNOR FACILITY      V1.0, PRODUCTION


 PIPPARM   R01.00 ---------- PIP - GENERAL PARAMETERS ----------  93/04/
 COMMAND ===>
              _

   TYPE THE INFORMATION IN THE FIELDS BELOW.  THEN PRESS ENTER.

      JOBNAME FOR INSTALLATION  ... PLATQKIN
      ACCOUNTING INFORMATION  ..... A006,SYTM,99,99
      EXECUTION CLASS  ............ J
      MESSAGE CLASS  .............. V
      UNIT NAME FOR DASD  ......... SYSDA

      VOLUME SERIAL NUMBER OF INSTALLATION TAPE  ... P209AA
      TEMPORARY HIGH LEVEL QUALIFIER FROM UNLOAD ... XDBS.PLATTEMP

      HIGH LEVEL QUALIFIER FOR USER LIBRARIES ... XDBS.PLATINUM
      DASD VOLUME FOR USER LIBRARIES ............ DB2S01
      USER LIBRARIES BLOCK SIZE  ................ 3120
      LOADLIB BLOCK SIZE  ....................... 23200


 PRESS PF1 FOR HELP OR PF3 TO RETURN TO THE INSTALLATION MAIN MENU.



-------- ------- -------- ----- ----------------------------------------
PRISCIAN MANN    04/13/93 16:30 XDBS.TSOISPF.CLIST(INVKQKIN)
                                ALTLIB FOR XDBS.PLATTEMP.CLIST IN ORDER
                                TO EXECUTE QUICK INSTALL.
-------- ------- -------- ----- ----------------------------------------
PRISCIAN MANN    04/13/93 15:10 XDBS.INSTALL.CNTL(PLATUL3B)
                                PLATUL3B WAS COPIED FROM
                                XDBS.PLATTEMP.UNLOAD.CNTL(ULDALL).
                                COPIES 14 TAPE(P209AJ) FILES TO D1DB01:
                                          XDBS.PLATTEMP.CLIST
                                          XDBS.PLATTEMP.DBRMLIB
                                          XDBS.PLATTEMP.SPFMLIB
                                          XDBS.PLATTEMP.SPFPLIB
                                          XDBS.PLATTEMP.SPFTLIB
                                          XDBS.PLATTEMP.SPFSLIB
                                          XDBS.PLATTEMP.SRCLIB
                                          XDBS.PLATTEMP.MODEL
                                          XDBS.PLATTEMP.BPMODLIB
                                          XDBS.PLATTEMP.PRODDATA
                                          XDBS.PLATTEMP.TEXTLIB
                                          XDBS.PLATTEMP.COBIN
                                          XDBS.PLATTEMP.PARMLIB
                                          XDBS.PLATTEMP.XMESSAGE
-------- ------- -------- ----- ----------------------------------------
PRISCIAN MANN    04/13/93 15:07 XDBS.INSTALL.CNTL(PLATUL3A)
                                PLATUL3A WAS COPIED FROM
                                XDBS.PLATTEMP.UNLOAD.CNTL(ULDALL).
                                ALLOCATES XDBS.PLATTEMP.CLIST
                                          XDBS.PLATTEMP.DBRMLIB
                                          XDBS.PLATTEMP.SPFMLIB
                                          XDBS.PLATTEMP.SPFPLIB
                                          XDBS.PLATTEMP.SPFTLIB
                                          XDBS.PLATTEMP.SPFSLIB
                                          XDBS.PLATTEMP.SRCLIB
                                          XDBS.PLATTEMP.MODEL
                                          XDBS.PLATTEMP.BPMODLIB
                                          XDBS.PLATTEMP.PRODDATA
                                          XDBS.PLATTEMP.TEXTLIB
                                          XDBS.PLATTEMP.COBIN
                                          XDBS.PLATTEMP.PARMLIB
                                          XDBS.PLATTEMP.XMESSAGE
-------- ------- -------- ----- ----------------------------------------
PRISCIAN MANN    04/13/93 15:06 XDBS.INSTALL.CNTL(PLATUL2B)
                                PLATUL2B WAS COPIED FROM
                                XDBS.PLATTEMP.UNLOAD.CNTL(ULDALL).
                                COPIES 1 TAPE(P209AJ) FILE TO D1DB01:
                                          XDBS.PLATTEMP.LOADLIB
-------- ------- -------- ----- ----------------------------------------
PRISCIAN MANN    04/13/93 14:58 XDBS.INSTALL.CNTL(PLATUL2A)
                                PLATUL2A WAS COPIED FROM
                                XDBS.PLATTEMP.UNLOAD.CNTL(ULDALL).
                                ALLOCATES XDBS.PLATTEMP.LOADLIB
-------- ------- -------- ----- ----------------------------------------
PRISCIAN MANN    03/31/93 13:00 XDBS.INSTALL.CNTL(PLATUL1)
                                COPIES ONE TAPE(P209AJ) FILE TO D1DB01:
                                ALLOCATES XDBS.PLATTEMP.UNLOAD.CNTL.
-------- ------- -------- ----- ----------------------------------------
-------LEVEL-01------------------------------------LEVEL-01-------------
-------LEVEL-01------------------------------------LEVEL-01-------------
-------LEVEL-01------------------------------------LEVEL-01-------------
-------- ------- -------- ----- ----------------------------------------
./ ADD NAME=P1DB     0141-91311-94016-1236-01364-00021-00000-PETE
************************************************************************
*****                                                              *****
*****                    DATA BASE                                 *****
*****       CDCSA Production  1                                    *****
*****                                                              *****
************************************************************************

  NAME     ID      DATE   TIME  DESCRIPTION OF CHANGE
-------- ------- -------- ----- ----------------------------------------
Soppitt  DB2CSC  01/16/94 11:49 Project: F94625
                                Rebind SPUFI, CATVIS, DSNTEP2 plans,
                                BIND QMF311 packages/plans as part of
                                level-15 maintenance.
-------- ------- -------- ----- ----------------------------------------
Soppitt  PETE    01/16/94 11:28 Execute Install Clist to change
                                LOGLOAD from  200 ===> 1000
                                Asm/Link DSNZPARM to P1DB.DSNEXIT
                                  using job 'XDBS.P1DB.CNTL(ZPRM0114)'
-------- ------- -------- ----- ----------------------------------------
SOPPITT  PETE    01/16/94 11:08 Project: F94625
                                CHREQ# 32767
                                SOFTWARE WAS IMPLEMENTED FROM THE TARGET
                                ZONE TP1DB, P1DB.TARGET.*, TO THE
                                ACTIVE ZONE P1DB, P1DB.*
-------- ------- -------- ----- ----------------------------------------
SOPPITT  PETE    01/14/94 17:03 Project: F94625
                                product: DB2
                                TP1DB, WAS CLONED FROM A LEVEL-15
                                D1DB ZONE VIA IMPLEMENTATION DIALOG
-------- ------- -------- ----- ----------------------------------------
SOPPITT  PETE    01/14/94 16:57 Project: F94625
                                TAPE ARCHIVE OF BP1DB WAS CREATED.
                                OUTPUT TAPE DSN = P1DB.BACKUP.LVL12
-------- ------- -------- ----- ----------------------------------------
TOMIAK 2 KETCSC  12/22/93 11:45 Project: DB2???
                                product: DB2GRP
                                P1DB, WAS CLONED FROM A LEVEL
                                XDBS ZONE VIA IMPLEMENTATION DIALOG
-------- ------- -------- ----- ----------------------------------------
WESTON 4 LAWCSC  11/07/93 08:37 Project: DB2???
                                CHREQ# 00000
                                SOFTWARE WAS IMPLEMENTED FROM THE TARGET
                                ZONE TP1DB, P1DB.TARGET.*, TO THE
                                ACTIVE ZONE P1DB, P1DB.*
-------- ------- -------- ----- ----------------------------------------
WESTON 4 LAWCSC  11/07/93 08:30 Project: DB2???
                                TAPE ARCHIVE OF BP1DB WAS CREATED.
                                OUTPUT TAPE DSN = P1DB.BACKUP.LVL6
-------- ------- -------- ----- ----------------------------------------
WESTON 4 LAWCSC  11/05/93 14:04 Project: DB2???
                                TP1DB, WAS CLONED FROM A LEVEL 13
                                D1DB ZONE VIA IMPLEMENTATION DIALOG
-------- ------- -------- ----- ----------------------------------------
Soppitt  PETE    07/30/93 14:30 Execute Install Clist to turn on ACCTG
                                Class-2 trace at subsystem start-up.
                                Asm/Link DSNZPARM using
                                    'XDBS.P1DB.CNTL(DSN3ZPRM)'
                                Old module renamed OLDZPARM on DSNEXIT.
-------- ------- -------- ----- ----------------------------------------
TOMIAK   KETCSC  07/04/93 09:00 SYS2.PROCLIB()
                                Moved procedures to shared libarary
                                (P1DBDIST)
                                (P1DBDBM1)
                                (IRLMP1DB)
                                (P1DBMSTR) added STAT, BSDS, and backup
                                   steps.
                                Project: DB2???
-------- ------- -------- ----- ----------------------------------------
SOPPITT  DB2CSC  07/04/93 08:29 Project: DB2F11
                                CHREQ# 29277
                                Plan QMF310 rebound as part of Lvl06
                                maint implemented with Lvl11.
-------- ------- -------- ----- ----------------------------------------
SOPPITT  PETE    07/04/93 08:03 Project: DB2F11
                                CHREQ# 29277
                                SOFTWARE WAS IMPLEMENTED FROM THE TARGET
                                ZONE TP1DB, P1DB.TARGET.*, TO THE
                                ACTIVE ZONE P1DB, P1DB.*
-------- ------- -------- ----- ----------------------------------------
SOPPITT  PETE    07/04/93 07:53 Project: DB2F11
                                TP1DB, WAS CLONED FROM A LEVEL 11
                                TV2R3 ZONE VIA IMPLEMENTATION DIALOG
-------- ------- -------- ----- ----------------------------------------
-------- ------- -------- ----- ----------------------------------------
Tomiak   KETCSC  12/09/92 11:00 Moved new DYNBKUP and BIND imagsql.
-------- ------- -------- ----- ----------------------------------------
-------- ------- -------- ----- ----------------------------------------
Soppitt  DB2CSC  08/27/92 13:00 QMF Installation clist DSQ1EINS, was
                                executed in migration mode to migrate
                                QMF from V2.4 to V3.1.  Input as below:




 DXYEIN10                  QMF INSTALLATION DIALOGS
 ISPF Command ===>
                   _

    INSTALL TYPE             ===> MIGRATION      ("I"-INITIAL, when no p
                                                      level of QMF exist
                                                      the system.
                                                  "M"-MIGRATION, when a
                                                      level of QMF does
                                                      in the system.

    SCOPE OF INSTALL         ===> D              ("F"-FULL, when this is
                                                      first QMF V3R1 ins
                                                  "D"-DB ONLY, when inst
                                                      QMF V3R1 into anot
                                                      database.

    PREVIOUS QMF LEVEL       ===> V2R3           ("V2R2","V2R3","V2R4","
      (MIGRATION INSTALLS ONLY)


    PRESS:  ENTER to continue    PF13 for help    PF15  to end





 DXYEIN11                  QMF INSTALLATION DIALOGS
 ISPF Command ===>
                   _


    QMF APPLICATION PLAN ID  ===> QMF310

    QMF CATALOG ALIAS        ===> P1DB

    QMF TABLES VOLUME        ===> HRA001











    PRESS:  ENTER to continue    PF13 for help    PF15  to end





 DXYEIN12                  QMF INSTALLATION DIALOGS
 ISPF Command ===>
                   _

    DB2 LOAD LIBRARY         ===> P1DB.DSNLOAD

    DB2 RELEASE LEVEL        ===> 23          ('21'=V2R1,'22'=V2R2,'23'=

    DB2 SUBSYSTEM ID         ===> P1DB

    DB2 USER CATALOG (ICF)   ===> ICAT.XSYSTEM

    USER CATALOG PASSWORD    ===>

    TABLESPACE PASSWORD      ===>                    (For QMF control ta
      (VSAM)
    DB2 LOCATION NAME        ===>                    (DB2 V2R2 installs

    DB2 DEFAULT PUNCTUATION  ===> .                  (',' OR '.')
      CHARACTER

    PRESS:  ENTER to continue    PF13 for help    PF15  to end





 DXYEIN18                  QMF INSTALLATION DIALOGS
 ISPF Command ===>
                   _

    Modify the Job cards below to represent your installation requiremen
    The "USER" and "PASSWORD" parameters must be specified in systems us
    RACF. Use a userid with the appropriate authority for the database.
    the "QUERY MANAGEMENT FACILITY: INSTALLATION GUIDE FOR MVS" publicat
    for more detail.


    If you will be performing the installation in foreground and do not
    the JCL files to be tailored, enter an 'X' here.  ===>


    JOB STATEMENT INFORMATION:
    ===> //DB2CSC   JOB (A006,SYTM),'10DB2PXS',
    ===> //         CLASS=S,MSGCLASS=V,MSGLEVEL=(1,1),
    ===> //         NOTIFY=DB2CSC
    ===> //*

    PRESS:  ENTER to continue    PF13 for help    PF15  to end





 DXYEIN00                  QMF INSTALLATION DIALOGS
 ISPF Command ===>
                   _




    Currently working on installation into DB2 subsystem P1DB

    You can now re-specify the install parameters, tailor the installati
    files, install QMF with the tailored files in foreground, quit and r
    the tailored install files in batch, or quit and return here later.


    ENTER CHOICE HERE        ===> T              ("P" - INPUT PARAMETERS
                                                  "T" - TAILOR INSTALL F
                                                  "I" - INSTALL IN FOREG




    PRESS:  ENTER to continue    PF13 for help    PF15  to end




-------- ------- -------- ----- ----------------------------------------
TOMIAK G DB2CSC  09/27/92 11:05 SOFTWARE WAS IMPLEMENTED FROM THE TARGET
                                ZONE TP1DB, P1DB.TARGET.*, TO THE
                                ACTIVE ZONE P1DB, P1DB.*
-------- ------- -------- ----- ----------------------------------------
TOMIAK G DB2CSC  09/27/92 11:01 TAPE ARCHIVE OF BP1DB WAS CREATED.
                                OUTPUT TAPE DSN = P1DB.BACKUP.LVL1
-------- ------- -------- ----- ----------------------------------------
Soppitt  DB2CSC  09/25/92 16:00 Installation clist, INVKDSNT, was run
                                (via %XDBSALC) against the target zone,
                                DSN.TARGET, to migrate to V2.3.
                                Panel values given below:-




                     INSTALL, UPDATE, AND MIGRATE DB2 - MAIN PANEL
 ===>
      _

 Check parameters and reenter to change:

  1  INSTALL TYPE         ===> MIGRATE   Install, Update, or Migrate

 Enter the following 2 values for migration only
  2  FROM RELEASE         ===> 2.2       1.3 or 2.2
  3  DATA SET NAME(MEMBER)===> P1DB.TARGET.DSNSAMP(DSNTIDP1)

 Enter name of your input data sets (DSNLOAD, DSNMACS, DSNSAMP, DSNCLIST
  4  PREFIX               ===> P1DB.TARGET
  5  SUFFIX               ===>

 Enter to set or save panel values (by reading or writing the named memb
  6  INPUT MEMBER NAME    ===> DSNTIDXA  Enter to read old panel values
  7  OUTPUT MEMBER NAME   ===> DSNTIDP1  Enter to write new panel values




 PRESS:  ENTER to continue   RETURN to exit   HELP for more information



                 MIGRATE DB2 - DATA PARAMETERS
 ===>
      _

 Check parameters and reenter to change:

  1  CATALOG ALIAS       ===> P1DB                  Alias of MVS catalog
                                                    DB2 subsystem data s
  2  DEFINE CATALOG      ===> NO                    YES or NO
  3  VOLUME SERIAL 1     ===> HRA001                CLIST allocation
  4  VOLUME SERIAL 2     ===> HRA001                Non-VSAM data
  5  VOLUME SERIAL 3     ===> HRA001                Default, temporary d
  6  VOLUME SERIAL 4     ===> XDB001                Directory, catalog d
  7  VOLUME SERIAL 5     ===> HRA001                Directory, catalog i
  8  VOLUME SERIAL 6     ===> XDB001                Log copy 1, BSDS 2
  9  VOLUME SERIAL 7     ===> HRA001                Log copy 2, BSDS 1
 10  PERMANENT UNIT NAME ===> 3380                  Device type for MVS
                                                    and partitioned data
 11  TEMPORARY UNIT NAME ===> SYSDA                 Device type for
                                                    temporary data sets



 PRESS:  ENTER to continue   RETURN to exit   HELP for more information



                 MIGRATE DB2 - SYSTEM RESOURCE DATA SET NAMES
 ===>
      _

 Enter data below:

 Bootstrap Data Sets (BSDS):
   1 COPY 1 NAME         ===> P1DB.BSDS01
   2 COPY 2 NAME         ===> P1DB.BSDS02

 Active Logs:
   3 NUMBER OF COPIES    ===> 2        2 or 1.  Number of active log cop
   4 COPY 1 PREFIX       ===> P1DB.LOGCOPY1
   5 COPY 2 PREFIX       ===> P1DB.LOGCOPY2

 Archive Logs:
   6 NUMBER OF COPIES    ===> 2        2 or 1.  Number of archive log co
   7 COPY 1 PREFIX       ===> P1DB.ARCHLOG1
   8 COPY 2 PREFIX       ===> P1DB.ARCHLOG2
   9 TIMESTAMP ARCHIVES  ===> NO       YES or NO



 PRESS:  ENTER to continue   RETURN to exit   HELP for more information



                 MIGRATE DB2 - DATA SET NAMES PANEL 1
 ===>
      _

 Data sets allocated by the installation CLIST for edited output:
   1  TEMP CLIST LIBRARY ===> P1DB.V23.DSNTEMP
   2  CLIST LIBRARY      ===> P1DB.V23.DSNCLIST
   3  SAMPLE LIBRARY     ===> P1DB.V23.DSNSAMP

 Data sets allocated by the installation jobs:
   4  DBRM LIBRARY       ===> P1DB.V23.DBRMLIB.DATA
   5  APPLICATION LOAD   ===> P1DB.V23.RUNLIB.LOAD
   6  DECLARATION LIBRARY===> P1DB.V23.SRCLIB.DATA

 Data sets allocated by SMP/E and other methods:
   7  LINK LIST LIBRARY  ===> P1DB.TARGET.DSNLINK
   8  LOAD LIBRARY       ===> P1DB.TARGET.DSNLOAD
   9  MACRO LIBRARY      ===> P1DB.TARGET.DSNMACS
  10  LOAD DISTRIBUTION  ===> XDBS.V2R3.DSNALOAD
  11  EXIT LIBRARY       ===> P1DB.TARGET.DSNEXIT



 PRESS:  ENTER to continue   RETURN to exit   HELP for more information



 DSNTIPU         MIGRATE DB2 - DATA SET NAMES PANEL 2
 ===>
      _

 Enter data set names below:
  1  ASSEMBLER            ===>
  2  C COMPILER           ===> EDC.V1R1M1.SEDCCOMP
  3  C COMPILER MESSAGES  ===> EDC.V1R1M1.SEDCMSGS
  4  C LIBRARY HEADERS    ===> EDC.V1R1M1.SEDCHDRS
  5  C LINK EDIT STUBS    ===> EDC.V1R1M1.SEDCBASE
  6  C DYNAMIC RUNTIME    ===> EDC.V1R1M1.SEDCLINK
  7  COBOL COMPILER       ===>
  8  COBOL LINK EDIT      ===> SYS1.COBLIB
  9  VS COBOL II COMPILER ===> SYS1.COB2COMP
 10  VS COBOL II LINK     ===> SYS1.COB2LIB
 11  COMMON LINK EDIT     ===> PLI.V2R2M0.SIBMBASE
 12  COMMON DYNAMIC       ===> PLI.V2R2M0.SIBMLINK
 13  FORTRAN COMPILER     ===> SYS1.VSF2COMP
 14  FORTRAN LINK EDIT    ===> SYS1.VSF2FORT
 15  PL/I COMPILER        ===> PLI.V2R2M0.PLICOMP
 16  PL/I LINK EDIT       ===> PLI.V2R2M0.PLIBASE


 PRESS:  ENTER to continue   RETURN to exit   HELP for more information



 DSNTIPW         MIGRATE DB2 - DATA SET NAMES PANEL 3
 ===>
      _

 Enter data set names below:
  1  SYSTEM MACLIB        ===> SYS1.MACLIB
  2  SYSTEM PROCEDURES    ===> P1DB.INSTALL.PROCLIB
  3  SORT LIBRARY         ===> SYS1.SORTLIB
  4  IMS RESLIB           ===> P1DB.TARGET.RLRESLIB
  5  ISPF ISPLINK MODULE  ===> ISP.ISPLOAD













 PRESS:  ENTER to continue   RETURN to exit   HELP for more information



 DSNTIPV         MIGRATE DB2 - CICS
 ===>
      _

 Enter data below:

  1 CICS RELEASE         ===> 2         0 = not using CICS
                                        1 = CICS/OS/VS 1.7.0
                                        2 = CICS/MVS 2.1
                                        3 = CICS/ESA 3.1.1 or 3.2

  2 CICS COBOL LIBRARY   ===> XCICS.TC212M3.COBLIB
  3 CICS COBOL II LIBRARY===> SYS1.COB2CICS
  4 CICS PL/I  LIBRARY   ===> XCICS.TC212M3.PL1LIB
  5 CICS LOADLIB         ===> XCICS.TC212M3.LOADLIB

 The following fields are required if option 3 was selected in field 1;
 they are optional if option 2 was selected in field 1:
  6 CSD NAME (FOR RDO)   ===>
  7 GROUP NAME           ===>           CICS RDO group name
  8 NEW GROUP            ===>           YES or NO
  9 LIST NAME            ===>           CICS RDO list name

 PRESS:  ENTER to continue   RETURN to exit   HELP for more information



 DSNTIPD         MIGRATE DB2 - SIZES
 ===>
      _

 Check numbers and reenter to change:

  1  DATABASES          ===> 200        In this subsystem
  2  TABLES             ===> 40         Per database (average)
  3  COLUMNS            ===> 30         Per table (average)
  4  VIEWS              ===> 3          Per table (average)
  5  TABLE SPACES       ===> 40         Per database (average)
  6  PLANS              ===> 200        In this subsystem
  7  PLAN STATEMENTS    ===> 30         SQL statements per plan (average
  8  PACKAGES           ===> 300        In this subsystem
  9  PACKAGE STATEMENTS ===> 10         SQL statements per package (aver
 10  PACKAGE LIST SIZE  ===> 2          Package lists per plan (average)
 11  EXECUTED STMTS     ===> 15         SQL statements executed (average
 12  TABLES IN STMT     ===> 2          Tables per SQL statement (averag
 13  TEMP 4K SPACE      ===> 16777216   Bytes of 4K-page work space
 14  TEMP 4K DATA SETS  ===> 1          Number of data sets for 4K data
 15  TEMP 32K SPACE     ===> 4194304    Bytes of 32K-page work space
 16  TEMP 32K DATA SETS ===> 1          Number of data sets for 32K data

 PRESS:  ENTER to continue   RETURN to exit   HELP for more information



 DSNTIPE         MIGRATE DB2 - STORAGE SIZES
 ===>
      _

 Check numbers and reenter to change:

  1  DATABASES         ===> 50         Concurrently in use
  2  MAX USERS         ===> 100        Concurrently running in DB2
  3  MAX REMOTE        ===> 2          Remotely accessing data in DB2
  4  MAX TSO CONNECT   ===> 20         Users on QMF or in DSN command
  5  MAX BATCH CONNECT ===> 20         Users in DSN command or utilities
  6  MIN BP0 BUFFERS   ===> 1000       Minimum number of buffers in BP0
  7  MAX BP0 BUFFERS   ===> 1000       Maximum number of buffers in BP0
  8  MIN BP1 BUFFERS   ===> 0          Minimum number of buffers in BP1
  9  MAX BP1 BUFFERS   ===> 0          Maximum number of buffers in BP1
 10  MIN BP2 BUFFERS   ===> 0          Minimum number of buffers in BP2
 11  MAX BP2 BUFFERS   ===> 0          Maximum number of buffers in BP2
 12  MIN BP32K BUFFERS ===> 12         Minimum number of buffers in BP32
 13  MAX BP32K BUFFERS ===> 12         Maximum number of buffers in BP32




 PRESS:  ENTER to continue   RETURN to exit   HELP for more information



 DSNTIPN         MIGRATE DB2 - TRACING
 ===>
      _

 Enter data below:

  1  AUDIT TRACE      ===> NO          Audit classes to start. NO,YES,li

  2  TRACE AUTO START ===> NO          Global classes to start. YES, NO,
  3  TRACE SIZE       ===> 65536       Trace table size in bytes.  4K-39

  4  SMF ACCOUNTING   ===> 1           Accounting classes to start. NO,Y
  5  SMF STATISTICS   ===> YES         Statistics classes to start. NO,Y
  6  STATISTICS TIME  ===> 15          Time interval in minutes.  1-1440

  7  MONITOR TRACE    ===> NO          Monitor classes to start. NO, YES
  8  MONITOR SIZE     ===> 8192        Default monitor buffer size. 8K-1

  9  CHECKPOINT FREQ  ===> 200         Number of log records per checkpo




 PRESS:  ENTER to continue   RETURN to exit   HELP for more information



 DSNTIPO         MIGRATE DB2 - OPERATOR FUNCTIONS
 ===>
      _

 Enter data below:

  1  WTO ROUTE CODES    ===> 1
                                        Routing codes for WTORs
  2  RECALL DATABASE    ===> YES        Use DFHSM automatic recall. YES
  3  RECALL DELAY       ===> 120        Seconds to wait for automatic re

  4  RLF AUTO START     ===> NO         Resource Limit Facility.  NO or
  5  RLST NAME SUFFIX   ===> 01         Resource Limit Spec. Table (RLST
  6  RLST ACCESS ERROR  ===> NOLIMIT    Action on RLST access error. Val
                                        NOLIMIT - Run without limit
                                        NORUN   - Do not run at all
                                        1-5000000 - Limit in CPU service

  7  DSNZPARM NAME      ===> DSNZPARM   Enter name of new DB2 parameter
  8  AUTO BIND          ===> YES        Use automatic bind. YES or NO
  9  SITE TYPE          ===> LOCALSITE    LOCALSITE or RECOVERYSITE


 PRESS:  ENTER to continue   RETURN to exit   HELP for more information



 DSNTIPF         MIGRATE DB2 - APPLICATION PROGRAMMING DEFAULTS
 ===>
      _

 Enter data below:

  1  LANGUAGE DEFAULT     ===> COB2     ASM, ASMH, C, COBOL, COB2, FORTR
  2  DECIMAL POINT IS     ===> .        . or ,
  3  MINIMUM DIVIDE SCALE ===> NO       NO or YES for a minimum of 3 dig
                                        to right of decimal after divisi
  4  STRING DELIMITER     ===> DEFAULT  DEFAULT, " or ' (COBOL or COB2 o
  5  SQL STRING DELIMITER ===> DEFAULT  DEFAULT, " or '
  6  MIXED DATA           ===> NO       NO or YES for mixed DBCS data
  7  CODED CHARACTER SET  ===> 37       The CCSID of your SBCS or mixed
  8  DATE FORMAT          ===> ISO      ISO, JIS, USA, EUR, LOCAL
  9  TIME FORMAT          ===> ISO      ISO, JIS, USA, EUR, LOCAL
 10  LOCAL DATE LENGTH    ===> 0        0 (no exit), or value between 10
 11  LOCAL TIME LENGTH    ===> 0        0 (no exit), or value between  8
 12  STD SQL LANGUAGE     ===> NO       NO or 86
 13  DECIMAL ARITHMETIC   ===> DEC15    DEC15, DEC31, 15, 31



 PRESS:  ENTER to continue   RETURN to exit   HELP for more information



 DSNTIPI         MIGRATE DB2 - IRLM PANEL 1
 ===>
      _

 Enter data below:

  1  INSTALL IRLM       ===> YES        IRLM is required for DB2. Should
                                        IRLM distributed with DB2 be ins
  2  SUBSYSTEM NAME     ===> IRL2       IRLM MVS subsystem name
  3  RESOURCE TIMEOUT   ===> 60         Seconds to wait for unavailable
  4  TIME INTERVAL      ===> 500        Milliseconds between lock proces
  5  AUTO START         ===> YES        Start IRLM if not up. YES or NO
  6  PROC NAME          ===> IRLMP1DB   Name of start procedure for IRLM
  7  TIME TO AUTOSTART  ===> 300        Time DB2 will wait for IRLM auto









 PRESS:  ENTER to continue   RETURN to exit   HELP for more information



 DSNTIPJ         MIGRATE DB2 - IRLM PANEL 2
 ===>
      _

 Enter data below:

  1  CROSS MEMORY           ===> NO        Local storage and cross memor
  2  MAXIMUM ECSA           ===> 5242880   Control block storage (1M - 9
  3  LOCKS PER TABLE(SPACE) ===> 1000      Maximum before lock escalatio
  4  LOCKS PER USER         ===> 10000     Maximum before resource unava
  5  PARTNER                ===>           VTAM name of other IRLM.  Req
                                           for intersystem communication
  6  IDENTIFIER             ===> 2         Number for this IRLM (1-8)
  7  DEADLOCK TIME          ===> 15        Detection interval in seconds
  8  DEADLOCK CYCLE         ===> 4         Number of LOCAL cycles before
  9  INTERNAL TRACE         ===> NO        Automatic start of tracing







 PRESS:  ENTER to continue   RETURN to exit   HELP for more information



 DSNTIPP         MIGRATE DB2 - PROTECTION
 ===>
      _

 Enter data below:

  1  MVS CATALOG       ===>            MVS catalog control password
  2  BSDS PASSWORD     ===>            Bootstrap data sets password
  3  LOG PASSWORD      ===>            Active log data sets password
  4  ARCHIVE LOG PW    ===>            Archive log data sets password
  5  ARCHIVE LOG RACF  ===> NO         RACF protect archive log data set
  6  DIRECTORY/CATALOG ===>            DB2 directory and catalog passwor
  7  USE PROTECTION    ===> YES        DB2 authorization enabled.  YES o
  8  SYSTEM ADMIN 1    ===> DB2CSC     Authid of system administrator
  9  SYSTEM ADMIN 2    ===> CSCDB2     Authid of system administrator
 10  SYSTEM OPERATOR 1 ===> DB2CSC     Authid of system operator
 11  SYSTEM OPERATOR 2 ===> SYSOPR     Authid of system operator
 12  UNKNOWN AUTHID    ===> UNKNOWN    Authid of default (unknown) user
 13  RESOURCE AUTHID   ===> SYSIBM     Authid of Resource Limit Table cr




 PRESS:  ENTER to continue   RETURN to exit   HELP for more information



 DSNTIPM         MIGRATE DB2 - MVS PARMLIB UPDATES
 ===>
      _

 Check data and reenter to change:

  1  SUBSYSTEM NAME      ===> P1DB       Name for connecting to DB2
  2  SUBSYSTEM PREFIX    ===> !          One character to denote subsyst
  3  SUBSYSTEM MEMBER    ===> 00         xx in IEFSSNxx
  4  SUBSYSTEM SEQUENCE  ===> 88888888   Sequence number for insertion
  5  AUTH MEMBER         ===> 00         xx in IEAAPFxx APF member name
  6  AUTH SEQUENCE       ===> 88888888   Sequence number for insertion
  7  LINK LIST ENTRY     ===> 00         xx in LNKLSTxx for DSNLINK
  8  LINK LIST SEQUENCE  ===> 88888888   Sequence number for insertion









 PRESS:  ENTER to continue   RETURN to exit   HELP for more information



 DSNTIPL         MIGRATE DB2 - ACTIVE LOG DATA SET PARAMETERS
 ===>
      _

 Enter data below:

   1 NUMBER OF LOGS    ===> 3        Number data sets per active log cop
   2 INPUT BUFFER      ===> 28672    Size in bytes (28K-60K)
   3 OUTPUT BUFFER     ===> 409600   Size in bytes (40K-4000K)
   4 WRITE THRESHOLD   ===> 20       Buffers filled before write (1-256)
   5 ARCHIVE LOG FREQ  ===> 6        Hours per archive run
   6 UPDATE RATE       ===> 3600     Updates, inserts, and deletes per h











 PRESS:  ENTER to continue   RETURN to exit   HELP for more information



 DSNTIPA         MIGRATE DB2 - ARCHIVE LOG DATA SET PARAMETERS
 ===>
      _

 Enter data below:

   1  ALLOCATION UNITS ===> BLK       Blk, Trk, or Cyl
   2  PRIMARY QUANTITY ===>           Primary space allocation
   3  SECONDARY QTY.   ===>           Secondary space allocation
   4  CATALOG DATA     ===> NO        YES or NO to catalog archive data
   5  DEVICE TYPE      ===> 3480      Unit name for archive logs
   6  BLOCK SIZE       ===> 28672     Rounded up to 4096 multiple
   7  MAX CONCURRENT   ===> 2         Number of input volumes allocated
   8  RECORDING MAX    ===> 500       Number of data sets recorded in BS
   9  MSVGP 1          ===>           Mass storage volume group (MSVGP)
  10  MSVGP 2          ===>           MSVGP for second archive copy
  11  WRITE TO OPER    ===> YES       Issue WTOR before mount for archiv
  12  WTOR ROUTE CODE  ===> 1,3,4
                                      Routing codes for archive WTORs
  13  RETENTION PERIOD ===> 31        Days to retain archive log data se
  14  QUIESCE PERIOD   ===> 5         Maximum quiesce interval (1-999)
  15  COMPACT DATA     ===> NO        YES or NO for data compaction

 PRESS:  ENTER to continue   RETURN to exit   HELP for more information



 DSNTIPS         MIGRATE DB2 - DATABASES AND SPACES TO START AUTOMATICAL
 ===>
      _

 Enter data below:

  1  ===> RESTART       RESTART or DEFER the objects named below.
     The objects to restart or defer may be ALL in item 2, a database
     name, or database name.space name.

  2  ==> ALL               14  ==>                   26  ==>
  3  ==>                   15  ==>                   27  ==>
  4  ==>                   16  ==>                   28  ==>
  5  ==>                   17  ==>                   29  ==>
  6  ==>                   18  ==>                   30  ==>
  7  ==>                   19  ==>                   31  ==>
  8  ==>                   20  ==>                   32  ==>
  9  ==>                   21  ==>                   33  ==>
 10  ==>                   22  ==>                   34  ==>
 11  ==>                   23  ==>                   35  ==>
 12  ==>                   24  ==>                   36  ==>
 13  ==>                   25  ==>                   37  ==>

 PRESS:  ENTER to continue   RETURN to exit   HELP for more information



 DSNTIPR         MIGRATE DB2 - DISTRIBUTED DATA FACILITY
 ===>
      _

 Enter data below:

  1 DDF STARTUP OPTION   ===> COMMAND   NO (DDF not startable),
                                        AUTO (automatic start up), or
                                        COMMAND (start by command)
  2 DB2 LOCATION NAME    ===> P1DB              The name other DB2s use
                                                refer to this DB2
  3 DB2 NETWORK LUNAME   ===> MVSPP1DB  The name VTAM uses to refer to t
  4 DB2 NETWORK PASSWORD ===> MVSPP1DB  Password for connecting to other
  5 RLST ACCESS ERROR    ===> NOLIMIT   Action on non-local RLST access
                                        NOLIMIT   - Run without limit
                                        NORUN     - Do not run at all
                                        1-5000000 - Limit in CPU service






 PRESS:  ENTER to continue   RETURN to exit   HELP for more information



 DSNTIPZ         MIGRATE DB2 - DATA DEFINITION CONTROL SUPPORT
 ===>
      _

 Enter data below:

  1 INSTALL DD CONTROL SUPT. ===> NO        YES - activate the support
                                            NO  - omit DD control suppor
  2 CONTROL ALL APPLICATIONS ===> NO        YES or NO
  3 REQUIRE FULL NAMES       ===> YES       YES or NO
  4 UNREGISTERED DDL DEFAULT ===> ACCEPT    Action for unregistered DDL:
                                            ACCEPT - allow it
                                            REJECT - prohibit it
                                            APPL   - consult ART

  5 REGISTRATION OWNER       ===> DSNRGCOL          Qualifier for ART an
  6 REGISTRATION DATABASE    ===> DSNRGFDB          Database name
  7 APPL REGISTRATION TABLE  ===> DSN_REGISTER_APPL Table name
  8 OBJT REGISTRATION TABLE  ===> DSN_REGISTER_OBJT Table name

 Note: ART = Application Registration Table
       ORT = Object      Registration Table

 PRESS:  ENTER to continue   RETURN to exit   HELP for more information



 DSNTIPY         MIGRATE DB2 - JOB EDITING
 ===>
      _

 Enter data below:

  1  REMOTE LOCATION   ===> D1DB             Remote location for COBOL
                                             organization application
  2  COBOL TYPE        ===> COB2             COBOL for sample applicatio
                                             (COBOL OR COB2)

 Enter job card information for install and sample jobs:

  3 ===>
  4 ===>
  5 ===>
  6 ===>






 PRESS:  ENTER to continue   RETURN to exit   HELP for more information



 DSNTIPC         MIGRATE DB2 - CLIST CALCULATIONS - PANEL 1
 ===>
      _

  You may update the EDMPOOL size if necessary.

    1  DSNT485I  EDMPOOL STORAGE SIZE    =     8062  K
    2  DSNT485I  BUFFER POOL SIZE        =     4384  K
    3  DSNT485I  SORT POOL SIZE          =      438  K
    4  DSNT485I  RID POOL SIZE           =     2192  K
    5  DSNT485I  DATA SET STORAGE SIZE   =     7200  K
    6  DSNT485I  CODE STORAGE SIZE       =     4200  K
    7  DSNT485I  WORKING STORAGE SIZE    =     4380  K
    8  DSNT486I  TOTAL MAIN STORAGE      =    30856  K
    9  DSNT448I  RECOMMENDED REAL STORAGE=    29295  K
   10  DSNT487I  TOTAL STORAGE BELOW 16M =     1602  K (WITH SWA ABOVE 1
   11  DSNT438I  WARNING,
                 IRLM LOCK MAXIMUM SPACE =   249023  K, AVAILABLE =



 PRESS:  ENTER to continue   RETURN to exit   HELP for more information




-------- ------- -------- ----- ----------------------------------------
TOMIAK G DB2CSC  09/25/92 15:25 TP1DB, WAS CLONED FROM A LEVEL 6
                                TV2R3 ZONE VIA IMPLEMENTATION DIALOG
-------- ------- -------- ----- ----------------------------------------
TOMIAK G DB2CSC  07/19/92 13:25 SOFTWARE WAS IMPLEMENTED FROM THE TARGET
                                ZONE TP1DB, P1DB.TARGET.*, TO THE
                                ACTIVE ZONE P1DB, P1DB.*
-------- ------- -------- ----- ----------------------------------------
soppitt  DB2CSC  07/17/92 14:44 TP1DB, WAS CLONED FROM A LEVEL 3
                                TDBST ZONE VIA IMPLEMENTATION DIALOG
-------- ------- -------- ----- ----------------------------------------
TOMIAK   DMV0016 04/12/92 08:55 TURNED IRLM TRACE TO NO
-------- ------- -------- ----- ----------------------------------------
Borges   Borgy   03/22/92 09:30 Changed SYSADM1 to DB2CSC. Reassembled
                                and linkedited ZPARM.
-------- ------- -------- ----- ----------------------------------------
Tomiak   DMV0016 11/21/91 08:45 Installation Verification Procedure
                                TSO - Dynamic SQL
                                  Using SPUFI: DSNTESA
                                  Using SPUFI: DSNTESC
                                  Using SPUFI: DSNTESE
                                CAF - requires logon proc and access
                                  to VS COBOL II and PL/1 V2R2M0
-------- ------- -------- ----- ----------------------------------------
-------- ------- -------- ----- ----------------------------------------
Tomiak   DMV0016 11/20/91 14:45 Installation Verification Procedure
                                BATCH
                          14:45 P1DBEJ0
                          14:46 P1DBEJ1
                          14:51 P1DBEJ1P
                          15:20 P1DBEJ2A
                          15:23 P1DBEJ2C
                          ----- P1DBEJ2D - Requires C compiler
                          15:24 P1DBEJ2F
                          15:25 P1DBEJ2P
                          15:27 P1DBEJ3C
                          15:28 P1DBEJ3P
                          ----- P1DBEJ4C - Requires IMS
                          ----- P1DBEJ4P - Requires IMS
                          15:29 P1DBEJ5C
                          15:36 P1DBEJ5P
-------- ------- -------- ----- ----------------------------------------
-------- ------- -------- ----- ----------------------------------------
Soppitt  PETE    11/08/91 17:00 Run Job P1DBIJIC to take image-copies
                                of catlg/drcty tablespaces on disk.
-------- ------- -------- ----- ----------------------------------------
Soppitt  PETE    11/08/91 16:40 Run Job P1DBIJSG to BIND SPUFI & DCLGEN
                                and create Comm. Database, CDB.
-------- ------- -------- ----- ----------------------------------------
Soppitt  PETE    11/08/91 16:30 Run Job P1DBIJTM to create Temporary
                                Database, DSNDB07.
-------- ------- -------- ----- ----------------------------------------
Soppitt  PETE    11/08/91 16:20 Start up P1DB for first time on MVSX.
-------- ------- -------- ----- ----------------------------------------
Soppitt  DD20001 11/07/91 17:10 Run Job P1DBIJUZ to assemble DSNZPARM,
                                DSNHEDCP modules.
-------- ------- -------- ----- ----------------------------------------
Soppitt  DD20001 11/07/91 17:15 Run Job P1DBIJID to load catlg/directory
                                Tablespaces.
-------- ------- -------- ----- ----------------------------------------
Soppitt  DD20001 11/07/91 17:03 Run Job P1DBIJIN to define bsds/logs &
                                catalog/directory clusters.
-------- ------- -------- ----- ----------------------------------------
Soppitt  DD20001 11/07/91 16:35 Run Job P1DBIJMV to load DB2 startup,
                                precompiler and utility proc's to
                                'P1DB.INSTALL.PROCLIB'.  Step to update
                                PARMLIB members was removed.
-------- ------- -------- ----- ----------------------------------------
Soppitt  DD20001 11/07/91 16:18 Execute IPOUPDTE to update library
                                'P1DB.INSTALL.SAMPLIB' replacing strings
                                'DBSETGT.DSN220' with 'P1DB'   and
                                'XDB001' with 'HRA000' in all members.
-------- ------- -------- ----- ----------------------------------------
Soppitt  DD20001 11/07/91 14:30 Using SMP/E Target Libraries with 9102
                                Putlevel, executed DSNTINST Clist and
                                chose initial values. See below:


                     INSTALL, UPDATE, AND MIGRATE DB2 - MAIN PANEL
 ===>
      _

 Check parameters and reenter to change:

  1  INSTALL TYPE         ===> INSTALL   Install, Update, or Migrate

 Enter the following 2 values for migration only
  2  FROM RELEASE         ===>           1.3 or 2.1
  3  DATA SET NAME(MEMBER)===>

 Enter name of your input data sets (DSNLOAD, DSNMACS, DSNSAMP, DSNCLIST
  4  PREFIX               ===> DBSETGT.DSN220
  5  SUFFIX               ===>

 Enter to set or save panel values (by reading or writing the named memb
  6  INPUT MEMBER NAME    ===> DSNTIDXA  Enter to read old panel values
  7  OUTPUT MEMBER NAME   ===> DSNTIDP1  Enter to write new panel values

 Enter name to create edited JCL and CLIST output:
  8  DATA SET NAME PREFIX ===> P1DB.INSTALL

 PRESS:  ENTER to continue   END to exit   HELP for more information
 .  .  .  .  .  .  .  .  .  .  .  .  .  .  .  .  .  .  .  .  .  .  .  .


                 INSTALL DB2 - DATA PARAMETERS
 ===>
      _

 Check parameters and reenter to change:

  1  CATALOG ALIAS       ===> P1DB                  Alias of ICF catalog
                                                    DB2 subsystem data s
  2  DEFINE CATALOG      ===> NO                    YES or NO
  3  VOLUME SERIAL 1     ===> XDB001                Volume 1 for DB2 dat
  4  VOLUME SERIAL 2     ===> HRA001                Volume 2 for DB2 dat
  5  VOLUME SERIAL 3     ===>                       Volume 3 for DB2 dat
  6  VOLUME SERIAL 4     ===>                       Volume 4 for DB2 dat
  7  VOLUME SERIAL 5     ===>                       Volume 5 for DB2 dat
  8  VOLUME SERIAL 6     ===>                       Volume 6 for DB2 dat
  9  PERMANENT UNIT NAME ===> 3390                  Device type for ICF
                                                    and partitioned data
 10  TEMPORARY UNIT NAME ===> SYSDA                 Device type for
                                                    temporary data sets




 PRESS:  ENTER to continue   END to exit   HELP for more information



                 INSTALL DB2 - SIZES
 ===>
      _

 Check numbers and reenter to change:

  1  DATABASES          ===> 200        In this subsystem
  2  TABLES             ===> 40         Per database (average)
  3  COLUMNS            ===> 30         Per table (average)
  4  VIEWS              ===> 3          Per table (average)
  5  TABLE SPACES       ===> 40         Per database (average)
  6  PLANS              ===> 200        In this subsystem
  7  PLAN STATEMENTS    ===> 30         SQL statements per plan (average
  8  EXECUTED STMTS     ===> 15         SQL statements executed (average
  9  TABLES IN STMT     ===> 2          Tables per SQL statement (averag
 10  TEMP 4K SPACE      ===> 16M        Bytes of 4K-page work space
 11  TEMP 4K DATA SETS  ===> 1          Number of data sets for 4K data
 12  TEMP 32K SPACE     ===> 4M         Bytes of 32K-page work space
 13  TEMP 32K DATA SETS ===> 1          Number of data sets for 32K data
 14  ARCHIVE LOG FREQ   ===> 6          Hours per archive run
 15  UPDATE RATE        ===> 3600       Updates, inserts, and deletes pe


 PRESS:  ENTER to continue   END to exit   HELP for more information



                 INSTALL DB2 - STORAGE SIZES
 ===>
      _

 Check numbers and reenter to change:

  1  DATABASES         ===> 50         Concurrently in use
  2  MAX USERS         ===> 100        Concurrently running in DB2
  3  MAX REMOTE        ===> 2          Remotely accessing data in DB2
  4  MAX TSO CONNECT   ===> 20         Users on QMF or in DSN command
  5  MAX BATCH CONNECT ===> 20         Users in DSN command or utilities
  6  MIN BP0 BUFFERS   ===> 1000       Minimum number of buffers in BP0
  7  MAX BP0 BUFFERS   ===> 1000       Maximum number of buffers in BP0
  8  MIN BP1 BUFFERS   ===> 0          Minimum number of buffers in BP1
  9  MAX BP1 BUFFERS   ===> 0          Maximum number of buffers in BP1
 10  MIN BP2 BUFFERS   ===> 0          Minimum number of buffers in BP2
 11  MAX BP2 BUFFERS   ===> 0          Maximum number of buffers in BP2
 12  MIN BP32K BUFFERS ===> 12         Minimum number of buffers in BP32
 13  MAX BP32K BUFFERS ===> 12         Maximum number of buffers in BP32




 PRESS:  ENTER to continue   END to exit   HELP for more information



                 INSTALL DB2 - TRACING
 ===>
      _

 Enter data below:

  1  AUDIT TRACE      ===> NO          Audit classes to start. NO,YES,li

  2  TRACE AUTO START ===> NO          Global classes to start. YES, NO,
  3  TRACE SIZE       ===> 64K         Trace table size in bytes.  4K-39

  4  SMF ACCOUNTING   ===> 1           Accounting classes to start. NO,Y
  5  SMF STATISTICS   ===> YES         Statistics classes to start. NO,Y
  6  STATISTICS TIME  ===> 15          Time interval in minutes.  1-1440

  7  MONITOR TRACE    ===> NO          Monitor classes to start. NO, YES
  8  MONITOR SIZE     ===> 8K          Default monitor buffer size. 8K-1

  9  CHECKPOINT FREQ  ===> 1000        Number of log records per checkpo




 PRESS:  ENTER to continue   END to exit   HELP for more information



                 INSTALL DB2 - OPERATOR FUNCTIONS
 ===>
      _

 Enter data below:

  1  WTO ROUTE CODES    ===> 1
                                        Routing codes for WTORs
  2  RECALL DATABASE    ===> YES        Use HSM automatic recall. YES or
  3  RECALL DELAY       ===> 120        Seconds to wait for automatic re

  4  RLF AUTO START     ===> NO         Resource Limit Facility.  NO or
  5  RLST NAME SUFFIX   ===> 01         Resource Limit Spec. Table (RLST
  6  RLST ACCESS ERROR  ===> NOLIMIT    Action on RLST access error. Val
                                        NOLIMIT - Run without limit
                                        NORUN   - Do not run at all
                                        1-5000000 - Limit in CPU service

  7  DSNZPARM NAME      ===> DSNZPARM   Enter name of new DB2 parameter



 PRESS:  ENTER to continue   END to exit   HELP for more information




                 INSTALL DB2 - APPLICATION PROGRAMMING DEFAULTS
 ===>
      _

 Enter data below:

  1  LANGUAGE DEFAULT     ===> COB2     ASM, ASMH, C, COBOL, COB2, FORTR
  2  DECIMAL POINT IS     ===> .        . or ,
  3  MINIMUM DIVIDE SCALE ===> NO       NO or YES for a minimum of 3 dig
                                        to right of decimal after divisi
  4  STRING DELIMITER     ===> DEFAULT  DEFAULT, " or '
  5  SQL STRING DELIMITER ===> DEFAULT  DEFAULT, " or '
  6  MIXED DATA           ===> NO       NO or YES for mixed DBCS data
  7  CHARACTER SET        ===> ALPHANUM ALPHANUM or KATAKANA
  8  DATE FORMAT          ===> ISO      ISO, JIS, USA, EUR, LOCAL
  9  TIME FORMAT          ===> ISO      ISO, JIS, USA, EUR, LOCAL
 10  LOCAL DATE LENGTH    ===> 0        0 (no exit), or value between 10
 11  LOCAL TIME LENGTH    ===> 0        0 (no exit), or value between  8
 12  STD SQL LANGUAGE     ===> NO       NO or 86



 PRESS:  ENTER to continue   END to exit   HELP for more information




                 INSTALL DB2 - IRLM PANEL 1
 ===>
      _

 Enter data below:

  1  INSTALL IRLM       ===> YES        IRLM is required for DB2. Should
                                        IRLM distributed with DB2 be ins
  2  SUBSYSTEM NAME     ===> IRL2       IRLM MVS subsystem name
  3  RESOURCE TIMEOUT   ===> 60         Seconds to wait for unavailable
  4  TIME INTERVAL      ===> 500        Milliseconds between lock proces
  5  AUTO START         ===> YES        Start IRLM if not up. YES or NO
  6  PROC NAME          ===> IRLMP1DB   Name of start procedure for IRLM
  7  TIME TO AUTOSTART  ===> 300        Time DB2 will wait for IRLM auto









 PRESS:  ENTER to continue   END to exit   HELP for more information



                 INSTALL DB2 - IRLM PANEL 2
 ===>
      _

 Enter data below:

  1  CROSS MEMORY           ===> NO        Local storage and cross memor
  2  MAXIMUM ECSA           ===> 5M        Control block storage (1M - 9
  3  LOCKS PER TABLE(SPACE) ===> 1000      Maximum before lock escalatio
  4  LOCKS PER USER         ===> 10000     Maximum before resource unava
  5  PARTNER                ===>           VTAM name of other IRLM.  Req
                                           for intersystem communication
  6  IDENTIFIER             ===> 2         Number for this IRLM (1-8)
  7  DEADLOCK TIME          ===> 15        Detection interval in seconds
  8  DEADLOCK CYCLE         ===> 4         Number of LOCAL cycles before
  9  INTERNAL TRACE         ===> YES       Automatic start of tracing







 PRESS:  ENTER to continue   END to exit   HELP for more information



                 INSTALL DB2 - PROTECTION
 ===>
      _

 Enter data below:

  1  ICF CATALOG       ===>            ICF catalog control password
  2  BSDS PASSWORD     ===>            Bootstrap data sets password
  3  LOG PASSWORD      ===>            Active log data sets password
  4  ARCHIVE LOG PW    ===>            Archive log data sets password
  5  ARCHIVE LOG RACF  ===> NO         RACF protect archive log data set
  6  DIRECTORY/CATALOG ===>            DB2 directory and catalog passwor
  7  USE PROTECTION    ===> YES        DB2 authorization enabled.  YES o
  8  SYSTEM ADMIN 1    ===> PETE       Authid of system administrator
  9  SYSTEM ADMIN 2    ===> MANN       Authid of system administrator
 10  SYSTEM OPERATOR 1 ===> SYSOPR     Authid of system operator
 11  SYSTEM OPERATOR 2 ===> SYSOPR     Authid of system operator
 12  UNKNOWN AUTHID    ===> UNKNOWN    Authid of default (unknown) user
 13  RESOURCE AUTHID   ===> SYSIBM     Authid of Resource Limit Table cr




 PRESS:  ENTER to continue   END to exit   HELP for more information



                 INSTALL DB2 - MVS PARMLIB UPDATES
 ===>
      _

 Check data and reenter to change:

  1  SUBSYSTEM NAME      ===> P1DB       Name for connecting to DB2
  2  SUBSYSTEM PREFIX    ===> !          One character to denote subsyst
  3  SUBSYSTEM MEMBER    ===> 00         xx in IEFSSNxx
  4  SUBSYSTEM SEQUENCE  ===> 88888888   Sequence number for insertion
  5  AUTH MEMBER         ===> 00         xx in IEAAPFxx APF member name
  6  AUTH SEQUENCE       ===> 88888888   Sequence number for insertion
  7  LINK LIST ENTRY     ===> 00         xx in LNKLSTxx for DSNLINK
  8  LINK LIST SEQUENCE  ===> 88888888   Sequence number for insertion









 PRESS:  ENTER to continue   END to exit   HELP for more information



                 INSTALL DB2 - LOG DATA SETS
 ===>
      _

 Enter data below:

  1  NUMBER OF COPIES  ===> 2        2 or 1.  Number of active log copie
  2  DATA SET PREFIX 1 ===> P1DB.LOGCOPY1
  3  DATA SET PREFIX 2 ===> P1DB.LOGCOPY2
  4  NUMBER OF LOGS    ===> 3        Number data sets per active log cop
  5  INPUT BUFFER      ===> 28K      Size in bytes (28K-60K)
  6  OUTPUT BUFFER     ===> 400K     Size in bytes (40K-4000K)
  7  WRITE THRESHOLD   ===> 20       Buffers filled before write (1-256)
  8  BOOTSTRAP NAME 1  ===> P1DB.BSDS01
  9  BOOTSTRAP NAME 2  ===> P1DB.BSDS02








 PRESS:  ENTER to continue   END to exit   HELP for more information



                 INSTALL DB2 - ARCHIVE LOG DATA SETS
 ===>
      _

 Enter data below:

  1  NUMBER OF COPIES ===> 2         2 or 1.  Number of archive log copi
  2  ARCHIVE PREFIX   ===> P1DB.ARCHLOG1
  3   COPY 2 PREFIX   ===> P1DB.ARCHLOG2
  4  CATALOG DATA     ===> NO        YES or NO to catalog archive data s
  5  DEVICE TYPE      ===> 3480      Unit name for archive logs
  6  BLOCK SIZE       ===> 28672     Rounded up to 4096 multiple
  7  MAX CONCURRENT   ===> 2         Number of input volumes allocated
  8  RECORDING MAX    ===> 500       Number of data sets recorded in BSD
  9  MSVGP 1          ===>           Mass storage volume group (MSVGP)
 10  MSVGP 2          ===>           MSVGP for second archive copy
 11  WRITE TO OPER    ===> YES       Issue WTOR before mount for archive
 12  WTOR ROUTE CODE  ===> 1,3,4
                                     Routing codes for archive WTORs
 13  RETENTION PERIOD ===> 9999      Days to retain archive log data set
 14  COMPACT DATA     ===> NO        YES or NO for data compaction


 PRESS:  ENTER to continue   END to exit   HELP for more information



              INSTALL DB2 - DATABASES AND SPACES TO START AUTOMATICALLY
 ===>
      _

 Enter data below:

  1  ===> RESTART       RESTART or DEFER the objects named below.
     The objects to restart or defer may be ALL in item 2, a database
     name, or database name.space name.

  2  ==> ALL               14  ==>                   26  ==>
  3  ==>                   15  ==>                   27  ==>
  4  ==>                   16  ==>                   28  ==>
  5  ==>                   17  ==>                   29  ==>
  6  ==>                   18  ==>                   30  ==>
  7  ==>                   19  ==>                   31  ==>
  8  ==>                   20  ==>                   32  ==>
  9  ==>                   21  ==>                   33  ==>
 10  ==>                   22  ==>                   34  ==>
 11  ==>                   23  ==>                   35  ==>
 12  ==>                   24  ==>                   36  ==>
 13  ==>                   25  ==>                   37  ==>

 PRESS:  ENTER to continue   END to exit   HELP for more information



                 INSTALL DB2  DISTRIBUTED DATA FACILITY
 ===>
      _

 Enter data below:

  1 DDF STARTUP OPTION   ===> AUTO      NO (DDF not startable),
                                        AUTO (automatic start up), or
                                        COMMAND (start by command)
  2 DB2 LOCATION NAME    ===> MVSPP1DB          The name other DB2s use
                                                refer to this DB2
  3 DB2 NETWORK LUNAME   ===> MVSPP1DB  The name VTAM uses to refer to t
  4 DB2 NETWORK PASSWORD ===> MVSPP1DB  Password for connecting to other
  5 RLST ACCESS ERROR    ===> NOLIMIT   Action on non-local RLST access
                                        NOLIMIT   - Run without limit
                                        NORUN     - Do not run at all
                                        1-5000000 - Limit in CPU service

  6 SAMPLE TEST LOCATION ===> D1DB              Location name used in ph
                                                (DSNTEJ6) of DB2 sample
                                                applications

 PRESS:  ENTER to continue   END to exit   HELP for more information



-------- ------- -------- ----- ----------------------------------------
TOMIAK   DMV0016 11/07/91 08:10 CREATED ALIAS P1DB TO ICAT.XSYSTEM ON
                                  CATALOG.DOFX.MASTER
                                  CATALOG.DEVL.MASTER
                                  CATALOG.PROD.MASTER
                                  MASTER.MVSXMCAT
                                  MASTER.MVSPMCAT
-------- ------- -------- ----- ----------------------------------------
OPS              11/07/91 06:00 IPL MVSP
-------- ------- -------- ----- ----------------------------------------
-------- ------- -------- ----- ----------------------------------------
TOMIAK   DMV0016 11/06/91 14:00 ADD IEFSSN00 AND IEAAPF00 ENTRIES
-------- ------- -------- ----- ----------------------------------------
************************************************************************
************************************************************************
***    USE TOP-DOWN APPROACH - ADD NEW ENTRIES TO TOP OF MEMBER!!    ***
************************************************************************
************************************************************************
./ ADD NAME=P2DB     0120-93322-94035-1225-00777-00021-00000-PETE
************************************************************************
*****                                                              *****
*****                    DATA BASE                                 *****
*****       CDCSA Production  2 DEP Water Board Subsystem          *****
*****                                                              *****
************************************************************************

NAME     ID        DATE   TIME  DESCRIPTION OF CHANGE
-------- ------- -------- ----- ----------------------------------------
Soppitt/ DB2CSC  02/03/94 15:10 Update DSNTIDP2 to make following chgs.
Mundo                           NUMCONCR  from  100 ===> 75
                                IRLMDEDT  from  15  ===> 25
                                IRLMWAIT  from  60  ===> 120
                                Asm/Link DSNZPARM to P2DB.DSNEXIT
                                  using job 'XDBS.P2DB.CNTL(ZPRM0203)'
                                DSNTINST clist gives errors on update
                                  due to SRC='('.
                               'SYS2.PROCLIB(IRLMP2DB)' changed to
                                  specify:
                                    DEADLOK=(25,4),   (from (15,4))
-------- ------- -------- ----- ----------------------------------------
TOMIAK 2 KETCSC  12/27/93 14:28 Project: DB2???
                                CHREQ# 00000
                                SOFTWARE WAS IMPLEMENTED FROM THE TARGET
                                ZONE TP2DB, P2DB.TARGET.*, TO THE
                                ACTIVE ZONE P2DB, P2DB.*
-------- ------- -------- ----- ----------------------------------------
TOMIAK 2 KETCSC  12/27/93 14:24 Project: DB2???
                                product: DB2GRP
                                TP2DB, WAS CLONED FROM A LEVEL
                                XDBS ZONE VIA IMPLEMENTATION DIALOG
-------- ------- -------- ----- ----------------------------------------
TOMIAK 2 KETCSC  12/27/93 14:17 Project: DB2???
                                product: DB2GRP
                                P2DB, WAS CLONED FROM A LEVEL B
                                D1DB ZONE VIA IMPLEMENTATION DIALOG
-------- ------- -------- ----- ----------------------------------------
MUNDO 48 FMMCSC  12/21/93 11:24 Project: DB2???
                                product: PROEDIT
                                P2DB, WAS CLONED FROM A LEVEL B
                                D2DB ZONE VIA IMPLEMENTATION DIALOG
-------- ------- -------- ----- ----------------------------------------
LOVARI   MJLCSC  12/20/93 09:46 OMEGAMON II FOR DB2 SOFTWARE
                                P2DB, WAS CLONED FROM A LEVEL 2
                                TOMGDB2 ZONE VIA IMPLEMENTATION DIALOG
-------- ------- -------- ----- ----------------------------------------
LOVARI   MJLCSC  12/20/93 08:14 OMEGAMON II FOR DB2 SOFTWARE
                                TP2DB, WAS CLONED FROM A LEVEL 2
                                TOMGDB2 ZONE VIA IMPLEMENTATION DIALOG
-------- ------- -------- ----- ----------------------------------------
TOMIAK 2 KETCSC  12/12/93 08:10 OMEGAMON II FOR DB2 SOFTWARE
                                P2DB, WAS CLONED FROM A LEVEL 2
                                TOMGDB2 ZONE VIA IMPLEMENTATION DIALOG
-------- ------- -------- ----- ----------------------------------------
WESTON 4 LAWCSC  12/09/93 12:31 Project: DB2???
                                product: DYNBKUP
                                P2DB, WAS CLONED FROM A LEVEL
                                XDBS ZONE VIA IMPLEMENTATION DIALOG
-------- ------- -------- ----- ----------------------------------------
WESTON   LAWCSC  12/08/93 16:50 Submit 'XDBS.P2DB.CNTL(INFOTOOL)' to
                                test infotool product.
-------- ------- -------- ----- ----------------------------------------
WESTON   LAWCSC  12/08/93 15:54 Submit 'XDBS.P2DB.CNTL(ITOLIMPL)' to
                                implement the infotool product.
-------- ------- -------- ----- ----------------------------------------
WESTON   LAWCSC  12/08/93 15:52 Submit 'XDBS.P2DB.CNTL(ITOOLMIG)' to
                                clone the infotool product.
-------- ------- -------- ----- ----------------------------------------
WESTON   LAWCSC  12/08/93 15:50 Submit 'XDBS.P2DB.CNTL(ITOLBIND)' to
                                bind infotel bind.
-------- ------- -------- ----- ----------------------------------------
WESTON   LAWCSC  12/08/93 15:48 Submit 'XDBS.P2DB.CNTL(BATSPUFI)' to
                                create infotel tables.
-------- ------- -------- ----- ----------------------------------------
WESTON   LAWCSC  12/08/93 14:02 Submit 'XDBS.P2DB.CNTL(IPKPLIB)' to
                                linkedit IPLMST.
-------- ------- -------- ----- ----------------------------------------
WESTON   LAWCSC  12/08/93 13:55 Submit 'XDBS.P2DB.CNTL(INFO@DB2)' to
                                extract infotool from the disk files and
                                applies the serial number and expiration
                                date zaps.
-------- ------- -------- ----- ----------------------------------------
WESTON   LAWCSC  12/08/93 13:51 Submit 'XDBS.P2DB.CNTL(IPAKDB2)' to
                                test infopak on P2DB.
-------- ------- -------- ----- ----------------------------------------
WESTON   LAWCSC  12/08/93 13:48 Submit 'XDBS.P2DB.CNTL(IPAKIMPL)' to
                                implement clone the infopak product.
-------- ------- -------- ----- ----------------------------------------
WESTON   LAWCSC  12/08/93 13:43 Submit 'XDBS.P2DB.CNTL(IPAKMIG)' to
                                clone the infopak product.
-------- ------- -------- ----- ----------------------------------------
WESTON   LAWCSC  12/08/93 13:29 Submit 'XDBS.P2DB.CNTL(INFOBIND)' to
                                bind infopak plan in P2DB.
-------- ------- -------- ----- ----------------------------------------
WESTON   LAWCSC  12/08/93 13:27 Submit 'XDBS.P2DB.CNTL(INFO@PAK)' to
                                extract infopak from the disk files and
                                applies the serial number and expiration
                                date zaps.
-------- ------- -------- ----- ----------------------------------------
WESTON   LAWCSC  12/08/93 13:20 Project: F94116
                                product: INFOTEL
                                P2DB, WAS CLONED FROM A LEVEL B
                                TP2DB ZONE VIA IMPLEMENTATION DIALOG
-------- ------- -------- ----- ----------------------------------------
WESTON   LAWCSC  12/08/93 12:00 Submit 'XDBS.P2DB.CNTL(P2DBPCBN)' to
                                Bind plan for PC/SQL-Link.
-------- ------- -------- ----- ----------------------------------------
WESTON   LAWCSC  12/08/93 11:49 Submit 'XDBS.P2DB.CNTL(P2DBPCCP)' to
                                install PC/SQL-Link for P2DB.
-------- ------- -------- ----- ----------------------------------------
WESTON   LAWCSC  12/08/93 09:23 Submit 'XDBS.P2DB.CNTL(DBATIVP)' IVP for
                                Database Attach.
-------- ------- -------- ----- ----------------------------------------
WESTON   LAWCSC  12/07/93 16:25 Submit 'XDBS.P2DB.CNTL(P2DBATBD)' to
                                bind plan DBAMONRP
-------- ------- -------- ----- ----------------------------------------
WESTON   LAWCSC  12/08/93 09:20 Submit 'XDBS.P2DB.CNTL(P2DBPSWD)' to
                                assemble DBAPARM.
-------- ------- -------- ----- ----------------------------------------
WESTON   LAWCSC  12/07/93 16:00 Submit 'XDBS.P2DB.CNTL(P2DBATCP)' to
                                migrate from base to P2DB.
-------- ------- -------- ----- ----------------------------------------
WESTON   LAWCSC  12/08/93 09:08 Submit 'XDBS.P2DB.CNTL(DSQ3BINJ)' to
                                bind and grant use of QMF Application
                                at the local DB2.
                                * Change P2DB.DSQSAMPE to
                                * P2DB.DSQSAMPE.INSTALL.
-------- ------- -------- ----- ----------------------------------------
WESTON   LAWCSC  12/07/93 15:48 Submit 'XDBS.P2DB.CNTL(DSQ3BINR)' to
                                bind and grant use of QMF Application
                                at the local DB2.
                                * Change P2DB.DSQSAMPE to
                                * P2DB.DSQSAMPE.INSTALL.
-------- ------- -------- ----- ----------------------------------------
WESTON   LAWCSC  12/07/93 15:29 Submit 'XDBS.P2DB.CNTL(DSQ3EVIS)' to
                                create QMF sample tables.
                                * Change P2DB.DSQSAMPE to
                                * P2DB.DSQSAMPE.INSTALL.
-------- ------- -------- ----- ----------------------------------------
WESTON   LAWCSC  12/07/93 15:07 Submit 'XDBS.P2DB.CNTL(DSQ3STGL)' to
                                create tablespace for QMF "Save Data"
                                command.
                                * Change P2DB.DSQSAMPE to
                                * P2DB.DSQSAMPE.INSTALL.
-------- ------- -------- ----- ----------------------------------------
WESTON   LAWCSC  12/07/93 15:01 Submit 'XDBS.P2DB.CNTL(DSQ3TBLJ)' to
                                create QMF control tables and QMF
                                catalog views.
                                * Change P2DB.DSQSAMPE to
                                * P2DB.DSQSAMPE.INSTALL.
-------- ------- -------- ----- ----------------------------------------
WESTON   LAWCSC  12/07/93 14:48 Submit 'XDBS.P2DB.CNTL(DSQ3TBAJ)' to
                                define and redefine VSAM files.
                                * Change P2DB.DSQSAMPE to
                                * P2DB.DSQSAMPE.INSTALL.
-------- ------- -------- ----- ----------------------------------------
WESTON   LAWCSC  12/07/93 14:35 Submit 'XDBS.P2DB.CNTL(DSQ3BSQL)' to
                                instream procedures to bind QMF
                                installation programs to DB2.
                                * Change P2DB.DSQSAMPE to
                                * P2DB.DSQSAMPE.INSTALL.
-------- ------- -------- ----- ----------------------------------------
WESTON   LAWCSC  12/07/93 14:30 Submit 'XDBS.P2DB.CNTL(DSQ3CHRT)' to
                                instream procedures to install QMF/GMMD
                                sample charts forms.
                                * Change P2DB.DSQSAMPE to
                                * P2DB.DSQSAMPE.INSTALL.
-------- ------- -------- ----- ----------------------------------------
WESTON   LAWCSC  12/07/93 14:29 Submit 'XDBS.P2DB.CNTL(DSQ3EMAP)' to
                                instream procedures to install QMF/GMMD
                                map groups.
                                * Change P2DB.DSQSAMPE to
                                * P2DB.DSQSAMPE.INSTALL.
-------- ------- -------- ----- ----------------------------------------
WESTON   LAWCSC  12/07/93 14:27 Submit 'XDBS.P2DB.CNTL(DSQ3EPNL)' to
                                instream procedures to install QMF panel
                                into VSAM data sets.
                                * Change P2DB.DSQSAMPE to
                                * P2DB.DSQSAMPE.INSTALL.
-------- ------- -------- ----- ----------------------------------------
WESTON   LAWCSC  12/07/93 13:33 Copy 'P2DB.DSQSAMPE(*)' to
                                'P2DB.DSQSAMPE.INSTALL'
-------- ------- -------- ----- ----------------------------------------
WESTON   LAWCSC  12/07/93 13:32 Create 'P2DB.DSQSAMPE.INSTALL' using 3.2
-------- ------- -------- ----- ----------------------------------------
WESTON   LAWCSC  12/07/93 13:30 Executed clist 'P2DB.DSQCLSTE(DSQ1EINS)'
                                'QMFPRE(P2DB)' from 1;6 (Command line)

                            INSTALL QMF -- JOBCARD
ISPF Command ===>

   Modify the Job cards below to represent your installation requirement
   The "USER" and "PASSWORD" parameters must be specified in systems usi
   RACF. Use a userid with the appropriate authority for the database. S
   the "QUERY MANAGEMENT FACILITY: INSTALLATION GUIDE FOR MVS" publicati
   for more detail.


   If you will be performing the installation in foreground and do not w
   the JCL files to be tailored, enter an 'X' here.  ===>


   JOB STATEMENT INFORMATION:
   ===> //DB2CSCA  JOB (A006,SYTM),'10DB2GRP: JOB_NAME',
   ===> //      CLASS=J,MSGCLASS=V,MSGLEVEL=(1,1),NOTIFY=LAWCSC,REGION=8
   ===> //*
   ===> //*

   PRESS:  ENTER to continue    PF13 for help    PF15  to end

                    INSTALL QMF -- DB2 AND QMF PARAMETERS
ISPF Command ===>

   DB2 USER CATALOG               ===> P2DB

   DB2 USER CATALOG PASSWORD          ===>


   QMF TABLESPACES CATALOG ALIAS      ===> P2DB

   QMF TABLESPACES CATALOG PASSWORD   ===>

   QMF TABLESPACES VOLUME             ===> P2DB01


   DEFAULT PUNCTUATION                ===> .           ("," OR ".")

   PREVIOUS QMF LEVEL                 ===> V2R3        ("V2R2","V2R3","V
                                                        "V3R1","V3R1M1",

   PRESS:  ENTER to continue    PF13 for help    PF15  to end

                  INSTALL QMF -- QMF PARAMETERS AT LOCAL DB2
ISPF Command ===>



   CUSTOMIZE QMF RUNTIME LIBRARIES           ===> Y            ("Y" or "

     - Install QMF panels
     - Install QMF/GDDM map groups
     - Install QMF/GDDM sample charts forms
     - Make QMF REXX EXECs available
     - Make QMF CLISTs available



   QMF APPLICATION PLAN ID AT LOCAL DB2      ===> QMF311




   PRESS:  ENTER to continue    PF13 for help    PF15  to end

                          INSTALL QMF -- LOCAL DB2 PARAMETERS
ISPF Command ===>



   LOCAL DB2 SUBSYSTEM ID    ===> P2DB

   LOCAL DB2 RELEASE LEVEL   ===> 23      ("22" for V2R2, "23" for V2R3)

   LOCAL DB2 EXIT LIBRARY    ===> P2DB.DSNEXIT

   LOCAL DB2 LOAD LIBRARY    ===> P2DB.DSNLOAD



   COMMUNICATIONS DATABASE(CDB) INSTALLED AT LOCAL DB2  ===> N   ("Y","N




   PRESS:  ENTER to continue    PF13 for help    PF15  to end


                          INSTALL QMF -- MAIN MENU
ISPF Command ===>

   Currently working on installation into DB2 subsystem P2DB

   You can now re-specify the install parameters, tailor the installatio
   files, install QMF with the tailored files in foreground, quit and ru
   the tailored install files in batch, or quit and return here later.


   ENTER CHOICE HERE        ===>                ("P" - INPUT PARAMETERS,
                                                 "T" - TAILOR INSTALL FI
                                                 "I" - INSTALL IN FOREGR
                                                 "X" - EXIT INSTALL DIAL



   PRESS:  ENTER to continue    PF13 for help    PF15  to end
-------- ------- -------- ----- ----------------------------------------
WESTON   LAWCSC  12/07/93 13:15 Freed plan DSNTIA23,DSNTIB23 and
                                DSNTEP23.
-------- ------- -------- ----- ----------------------------------------
WESTON   LAWCSC  12/07/93 13:00 Created plan DSNTIAD,DSNTIAUL and
                                DSNTEP2.
-------- ------- -------- ----- ----------------------------------------
WESTON   LAWCSC  12/07/93 11:58 Submit 'XDBS.P2DB.CNTL(DSN3EJ3P)' to
                                setup phrase 3 for PL/I.
-------- ------- -------- ----- ----------------------------------------
WESTON   LAWCSC  12/07/93 11:45 Submit 'XDBS.P2DB.CNTL(DSN3EJ3C)' to
                                setup phrase 3 for COBOL.
-------- ------- -------- ----- ----------------------------------------
WESTON   LAWCSC  12/07/93 11:08 Submit 'XDBS.P2DB.CNTL(DSN3EJ2P)' to
                                setup phrase 2 for PLI/I.
-------- ------- -------- ----- ----------------------------------------
WESTON   LAWCSC  12/07/93 10:30 Submit 'XDBS.P2DB.CNTL(DSN3EJ1P)' to
                                setup phrase 1 for PL/I
-------- ------- -------- ----- ----------------------------------------
WESTON   LAWCSC  12/07/93 09:02 Submit 'XDBS.P2DB.CNTL(DSN3EJ1)' to
                                creating and loading sample tables.
-------- ------- -------- ----- ----------------------------------------
WESTON   LAWCSC  12/07/93 08:33 Submit 'XDBS.P2DB.CNTL(DSN3IJIC)' to
                                Image copy the DB2 Directory and catalog
-------- ------- -------- ----- ----------------------------------------
WESTON   LAWCSC  12/06/93 16:47 Submit 'XDBS.P2DB.CNTL(DSN3IJSG)' to
                                define and bind DB2 Objects and create
                                the communication database.
-------- ------- -------- ----- ----------------------------------------
WESTON   LAWCSC  12/06/93 14:39 Submit 'XDBS.P2DB.CNTL(DSN3IJTM)' to
                                define temporary work files.
-------- ------- -------- ----- ----------------------------------------
Tomiak   DMV0016 12/06/93 13:55 Copied P2DB.INSTALL.PROCLIB procedures
                                to SYS2.PROCLIB.
-------- ------- -------- ----- ----------------------------------------
WESTON   LAWCSC  12/03/93 11:39 Submit 'XDBS.P2DB.CNTL(DSN3IJVC)' to
                                merge edited clists with all other clist
                                into one library.
-------- ------- -------- ----- ----------------------------------------
WESTON   LAWCSC  12/03/93 11:19 Submit 'XDBS.P2DB.CNTL(DSN3IJEX)' to
                                prepare the authorization exits.
-------- ------- -------- ----- ----------------------------------------
WESTON   LAWCSC  12/03/93 11:14 Submit 'XDBS.P2DB.CNTL(DSN3IJUZ)' to
                                DSNZPARM and DSNHDECP updates.
-------- ------- -------- ----- ----------------------------------------
WESTON   LAWCSC  12/03/93 10:55 Submit 'XDBS.P2DB.CNTL(DSN3ITID)' to
                                initialize DB2 catalog and directry
                                datasets.
-------- ------- -------- ----- ----------------------------------------
WESTON   LAWCSC  12/03/93 10:46 Submit 'XDBS.P2DB.CNTL(DSN3IJIN)' to
                                define DB2 data sets.
-------- ------- -------- ----- ----------------------------------------
WESTON   LAWCSC  12/03/93 10:28 Submit 'XDBS.P2DB.CNTL(DSN3IJMV)' to
                                update startup procedures, program
                                procedures, and utility procedures.
-------- ------- -------- ----- ----------------------------------------
WESTON   LAWCSC  12/03/93 00:00 Executed DSNTINST via the dialogs:

                INSTALL DB2 - JOB EDITING
===>

Enter data below:

 1  REMOTE LOCATION   ===> DB2M             Remote location for COBOL
                                            organization application
 2  COBOL TYPE        ===> COB2             COBOL for sample application
                                            (COBOL OR COB2)

Enter job card information for install and sample jobs:

 3 ===> //DB2CSC JOB (A006,SYTM),'10DB2GRP: MEMBER_NAME',
 4 ===> //          MSGCLASS=V,CLASS=J
 5 ===> //*
 6 ===> //* GENERATED BY DSNTINST

                INSTALL DB2 - DATA DEFINITION CONTROL SUPPORT
===>

Enter data below:

 1 INSTALL DD CONTROL SUPT. ===> NO        YES - activate the support
                                           NO  - omit DD control support
 2 CONTROL ALL APPLICATIONS ===> NO        YES or NO
 3 REQUIRE FULL NAMES       ===> YES       YES or NO
 4 UNREGISTERED DDL DEFAULT ===> ACCEPT    Action for unregistered DDL:
                                           ACCEPT - allow it
                                           REJECT - prohibit it
                                           APPL   - consult ART

 5 REGISTRATION OWNER       ===> DSNRGCOL          Qualifier for ART and
 6 REGISTRATION DATABASE    ===> DSNRGFDB          Database name
 7 APPL REGISTRATION TABLE  ===> DSN_REGISTER_APPL Table name
 8 OBJT REGISTRATION TABLE  ===> DSN_REGISTER_OBJT Table name

Note: ART = Application Registration Table
      ORT = Object      Registration Table

                INSTALL DB2 - DISTRIBUTED DATA FACILITY
===>

Enter data below:

 1 DDF STARTUP OPTION   ===> COMMAND   NO (DDF not startable),
                                       AUTO (automatic start up), or
                                       COMMAND (start by command)
 2 DB2 LOCATION NAME    ===> P2DB              The name other DB2s use t
                                               refer to this DB2
 3 DB2 NETWORK LUNAME   ===> MVSWP2DB  The name VTAM uses to refer to th
 4 DB2 NETWORK PASSWORD ===> MVSWP2DB  Password for connecting to other
 5 RLST ACCESS ERROR    ===> NOLIMIT   Action on non-local RLST access e
                                       NOLIMIT   - Run without limit
                                       NORUN     - Do not run at all
                                       1-5000000 - Limit in CPU service

                INSTALL DB2 - DATABASES AND SPACES TO START AUTOMATICALL
===>

Enter data below:

 1  ===> RESTART       RESTART or DEFER the objects named below.
    The objects to restart or defer may be ALL in item 2, a database
    name, or database name.space name.

 2  ==> ALL               14  ==>                   26  ==>
 3  ==>                   15  ==>                   27  ==>
 4  ==>                   16  ==>                   28  ==>
 5  ==>                   17  ==>                   29  ==>
 6  ==>                   18  ==>                   30  ==>
 7  ==>                   19  ==>                   31  ==>
 8  ==>                   20  ==>                   32  ==>
 9  ==>                   21  ==>                   33  ==>
10  ==>                   22  ==>                   34  ==>
11  ==>                   23  ==>                   35  ==>
12  ==>                   24  ==>                   36  ==>

                INSTALL DB2 - ARCHIVE LOG DATA SET PARAMETERS
===>

Enter data below:

  1  ALLOCATION UNITS ===> CYL       Blk, Trk, or Cyl
  2  PRIMARY QUANTITY ===> 270       Primary space allocation
  3  SECONDARY QTY.   ===> 10        Secondary space allocation
  4  CATALOG DATA     ===> NO        YES or NO to catalog archive data s
  5  DEVICE TYPE      ===> NOSILO    Unit name for archive logs
  6  BLOCK SIZE       ===> 28672     Rounded up to 4096 multiple
  7  MAX CONCURRENT   ===> 2         Number of input volumes allocated
  8  RECORDING MAX    ===> 500       Number of data sets recorded in BSD
  9  MSVGP 1          ===>           Mass storage volume group (MSVGP)
 10  MSVGP 2          ===>           MSVGP for second archive copy
 11  WRITE TO OPER    ===> YES       Issue WTOR before mount for archive
 12  WTOR ROUTE CODE  ===> 1,3,4
                                     Routing codes for archive WTORs
 13  RETENTION PERIOD ===> 31        Days to retain archive log data set
 14  QUIESCE PERIOD   ===> 5         Maximum quiesce interval (1-999)
 15  COMPACT DATA     ===> NO        YES or NO for data compaction

                INSTALL DB2 - ACTIVE LOG DATA SET PARAMETERS
===>

Enter data below:

  1 NUMBER OF LOGS    ===> 3        Number data sets per active log copy
  2 INPUT BUFFER      ===> 28672    Size in bytes (28K-60K)
  3 OUTPUT BUFFER     ===> 409600   Size in bytes (40K-4000K)
  4 WRITE THRESHOLD   ===> 20       Buffers filled before write (1-256)
  5 ARCHIVE LOG FREQ  ===> 24       Hours per archive run
  6 UPDATE RATE       ===> 3600     Updates, inserts, and deletes per ho

                INSTALL DB2 - MVS PARMLIB UPDATES
===>

Check data and reenter to change:

 1  SUBSYSTEM NAME      ===> P2DB       Name for connecting to DB2
 2  SUBSYSTEM PREFIX    ===> (          One character to denote subsyste
 3  SUBSYSTEM MEMBER    ===> 00         xx in IEFSSNxx
 4  SUBSYSTEM SEQUENCE  ===> 88888888   Sequence number for insertion
 5  AUTH MEMBER         ===> 00         xx in IEAAPFxx APF member name
 6  AUTH SEQUENCE       ===> 88888888   Sequence number for insertion
 7  LINK LIST ENTRY     ===> 00         xx in LNKLSTxx for DSNLINK
 8  LINK LIST SEQUENCE  ===> 88888888   Sequence number for insertion

                INSTALL DB2 - PROTECTION
===>

Enter data below:

 1  MVS CATALOG       ===>            MVS catalog control password
 2  BSDS PASSWORD     ===>            Bootstrap data sets password
 3  LOG PASSWORD      ===>            Active log data sets password
 4  ARCHIVE LOG PW    ===>            Archive log data sets password
 5  ARCHIVE LOG RACF  ===> NO         RACF protect archive log data sets
 6  DIRECTORY/CATALOG ===>            DB2 directory and catalog password
 7  USE PROTECTION    ===> YES        DB2 authorization enabled.  YES or
 8  SYSTEM ADMIN 1    ===> DB2CSC     Authid of system administrator
 9  SYSTEM ADMIN 2    ===> CSCDB2     Authid of system administrator
10  SYSTEM OPERATOR 1 ===> DB2CSC     Authid of system operator
11  SYSTEM OPERATOR 2 ===> CSCDB2     Authid of system operator
12  UNKNOWN AUTHID    ===> IBMUSER    Authid of default (unknown) user
13  RESOURCE AUTHID   ===> SYSIBM     Authid of Resource Limit Table cre

                INSTALL DB2 - IRLM PANEL 2
===>

Enter data below:

 1  CROSS MEMORY           ===> NO        Local storage and cross memory
 2  MAXIMUM ECSA           ===> 5242880   Control block storage (1M - 99
 3  LOCKS PER TABLE(SPACE) ===> 1000      Maximum before lock escalation
 4  LOCKS PER USER         ===> 25000     Maximum before resource unavai
 5  PARTNER                ===>           VTAM name of other IRLM.  Requ
                                          for intersystem communication
 6  IDENTIFIER             ===> 4         Number for this IRLM (1-8)
 7  DEADLOCK TIME          ===> 15        Detection interval in seconds
 8  DEADLOCK CYCLE         ===> 4         Number of LOCAL cycles before
 9  INTERNAL TRACE         ===> NO        Automatic start of tracing

                INSTALL DB2 - IRLM PANEL 1
===>

Enter data below:

 1  INSTALL IRLM       ===> YES        IRLM is required for DB2. Should
                                       IRLM distributed with DB2 be inst
 2  SUBSYSTEM NAME     ===> IRL4       IRLM MVS subsystem name
 3  RESOURCE TIMEOUT   ===> 60         Seconds to wait for unavailable r
 4  TIME INTERVAL      ===> 500        Milliseconds between lock process
 5  AUTO START         ===> YES        Start IRLM if not up. YES or NO
 6  PROC NAME          ===> IRLMP2DB   Name of start procedure for IRLM
 7  TIME TO AUTOSTART  ===> 300        Time DB2 will wait for IRLM autos

                INSTALL DB2 - APPLICATION PROGRAMMING DEFAULTS
===>

Enter data below:

 1  LANGUAGE DEFAULT     ===> COB2     ASM, ASMH, C, COBOL, COB2, FORTRA
 2  DECIMAL POINT IS     ===> .        . or ,
 3  MINIMUM DIVIDE SCALE ===> NO       NO or YES for a minimum of 3 digi
                                       to right of decimal after divisio
 4  STRING DELIMITER     ===> DEFAULT  DEFAULT, " or ' (COBOL or COB2 on
 5  SQL STRING DELIMITER ===> DEFAULT  DEFAULT, " or '
 6  MIXED DATA           ===> NO       NO or YES for mixed DBCS data
 7  CODED CHARACTER SET  ===> 37       The CCSID of your SBCS or mixed d
 8  DATE FORMAT          ===> ISO      ISO, JIS, USA, EUR, LOCAL
 9  TIME FORMAT          ===> ISO      ISO, JIS, USA, EUR, LOCAL
10  LOCAL DATE LENGTH    ===> 0        0 (no exit), or value between 10
11  LOCAL TIME LENGTH    ===> 0        0 (no exit), or value between  8
12  STD SQL LANGUAGE     ===> NO       NO or 86
13  DECIMAL ARITHMETIC   ===> DEC15    DEC15, DEC31, 15, 31

                INSTALL DB2 - OPERATOR FUNCTIONS
===>

Enter data below:

 1  WTO ROUTE CODES    ===> 1
                                       Routing codes for WTORs
 2  RECALL DATABASE    ===> YES        Use DFHSM automatic recall. YES o
 3  RECALL DELAY       ===> 120        Seconds to wait for automatic rec

 4  RLF AUTO START     ===> NO         Resource Limit Facility.  NO or Y
 5  RLST NAME SUFFIX   ===> 01         Resource Limit Spec. Table (RLST)
 6  RLST ACCESS ERROR  ===> NOLIMIT    Action on RLST access error. Valu
                                       NOLIMIT - Run without limit
                                       NORUN   - Do not run at all
                                       1-5000000 - Limit in CPU service

 7  DSNZPARM NAME      ===> DSNZPARM   Enter name of new DB2 parameter m
 8  AUTO BIND          ===> YES        Use automatic bind. YES or NO
 9  SITE TYPE          ===> LOCALSITE    LOCALSITE or RECOVERYSITE

                INSTALL DB2 - TRACING
===>

Enter data below:

 1  AUDIT TRACE      ===> NO          Audit classes to start. NO,YES,lis

 2  TRACE AUTO START ===> NO          Global classes to start. YES, NO,
 3  TRACE SIZE       ===> 65536       Trace table size in bytes.  4K-396

 4  SMF ACCOUNTING   ===> 1,2         Accounting classes to start. NO,YE
 5  SMF STATISTICS   ===> YES         Statistics classes to start. NO,YE
 6  STATISTICS TIME  ===> 15          Time interval in minutes.  1-1440

 7  MONITOR TRACE    ===> NO          Monitor classes to start. NO, YES,
 8  MONITOR SIZE     ===> 8192        Default monitor buffer size. 8K-1M

 9  CHECKPOINT FREQ  ===> 20000       Number of log records per checkpoi

                INSTALL DB2 - STORAGE SIZES
===>

Check numbers and reenter to change:

 1  DATABASES         ===> 50         Concurrently in use
 2  MAX USERS         ===> 100        Concurrently running in DB2
 3  MAX REMOTE        ===> 2          Remotely accessing data in DB2
 4  MAX TSO CONNECT   ===> 25         Users on QMF or in DSN command
 5  MAX BATCH CONNECT ===> 15         Users in DSN command or utilities
 6  MIN BP0 BUFFERS   ===> 400        Minimum number of buffers in BP0
 7  MAX BP0 BUFFERS   ===> 400        Maximum number of buffers in BP0
 8  MIN BP1 BUFFERS   ===> 4000       Minimum number of buffers in BP1
 9  MAX BP1 BUFFERS   ===> 10000      Maximum number of buffers in BP1
10  MIN BP2 BUFFERS   ===> 200        Minimum number of buffers in BP2
11  MAX BP2 BUFFERS   ===> 200        Maximum number of buffers in BP2
12  MIN BP32K BUFFERS ===> 12         Minimum number of buffers in BP32K
13  MAX BP32K BUFFERS ===> 12         Maximum number of buffers in BP32K

                INSTALL DB2 - SIZES
===>

Check numbers and reenter to change:

 1  DATABASES          ===> 400        In this subsystem
 2  TABLES             ===> 10         Per database (average)
 3  COLUMNS            ===> 30         Per table (average)
 4  VIEWS              ===> 5          Per table (average)
 5  TABLE SPACES       ===> 10         Per database (average)
 6  PLANS              ===> 400        In this subsystem
 7  PLAN STATEMENTS    ===> 40         SQL statements per plan (average)
 8  PACKAGES           ===> 300        In this subsystem
 9  PACKAGE STATEMENTS ===> 10         SQL statements per package (avera
10  PACKAGE LIST SIZE  ===> 4          Package lists per plan (average)
11  EXECUTED STMTS     ===> 15         SQL statements executed (average)
12  TABLES IN STMT     ===> 3          Tables per SQL statement (average
13  TEMP 4K SPACE      ===> 16777216   Bytes of 4K-page work space
14  TEMP 4K DATA SETS  ===> 1          Number of data sets for 4K data
15  TEMP 32K SPACE     ===> 4194304    Bytes of 32K-page work space

                INSTALL DB2 - CICS
===>

Enter data below:

 1 CICS RELEASE         ===> 3         0 = not using CICS
                                       1 = CICS/OS/VS 1.7.0
                                       2 = CICS/MVS 2.1
                                       3 = CICS/ESA 3.1.1 or 3.2

 2 CICS COBOL LIBRARY   ===> XCICS.TC321W1.SDFHLOAD
 3 CICS COBOL II LIBRARY===> SYS1.COB2CICS
 4 CICS PL/I  LIBRARY   ===> XCICS.TC321W1.SDFHPL1
 5 CICS LOADLIB         ===> XCICS.TC321W1.SDFHLOAD

The following fields are required if option 3 was selected in field 1;
they are optional if option 2 was selected in field 1:
 6 CSD NAME (FOR RDO)   ===> CIVS.CICS311.DFHCSD
 7 GROUP NAME           ===> DB2GRP    CICS RDO group name
 8 NEW GROUP            ===> YES       YES or NO

                INSTALL DB2 - DATA SET NAMES PANEL 3
===>

Enter data set names below:
 1  SYSTEM MACLIB        ===> SYS1.MACLIB
 2  SYSTEM PROCEDURES    ===> P2DB.INSTALL.PROCLIB
 3  SORT LIBRARY         ===> SORT.SORTLIB
 4  IMS RESLIB           ===> P2DB.RLRESLIB
 5  ISPF ISPLINK MODULE  ===> ISP.ISPLOAD

                INSTALL DB2 - DATA SET NAMES PANEL 2
===>

Enter data set names below:
 1  ASSEMBLER            ===>
 2  C COMPILER           ===> EDC.V1R1M0.SEDCCOMP
 3  C COMPILER MESSAGES  ===> EDC.V1R1M0.SEDCMSGS
 4  C LIBRARY HEADERS    ===> EDC.V1R1M0.SEDCHDRS
 5  C LINK EDIT STUBS    ===> EDC.V1R1M0.SEDCBASE
 6  C DYNAMIC RUNTIME    ===> EDC.V1R1M0.SEDCLINK
 7  COBOL COMPILER       ===>
 8  COBOL LINK EDIT      ===> SYS1.COBLIB
 9  VS COBOL II COMPILER ===>
10  VS COBOL II LINK     ===> SYS1.COB2LIB
11  COMMON LINK EDIT     ===> PLI.V2R2M0.SIBMBASE
12  COMMON DYNAMIC       ===> PLI.V2R2M0.SIBMLINK
13  FORTRAN COMPILER     ===>
14  FORTRAN LINK EDIT    ===> SYS1.VFORTLIB
15  PL/I COMPILER        ===> PLI.V2R2M0.PLICOMP
16  PL/I LINK EDIT       ===> PLI.V2R2M0.PLIBASE

                INSTALL DB2 - DATA SET NAMES PANEL 1
===>

Data sets allocated by the installation CLIST for edited output:
* 1  TEMP CLIST LIBRARY ===> P2DB.INSTALL.DSNTEMP
* 2  CLIST LIBRARY      ===> P2DB.INSTALL.DSNCLIST
* 3  SAMPLE LIBRARY     ===> P2DB.DSNSAMP.LAWCSC

Data sets allocated by the installation jobs:
  4  DBRM LIBRARY       ===> P2DB.DBRMLIB.DATA
  5  APPLICATION LOAD   ===> P2DB.RUNLIB.LOAD
  6  DECLARATION LIBRARY===> P2DB.SRCLIB.DATA

Data sets allocated by SMP/E and other methods:
  7  LINK LIST LIBRARY  ===> P2DB.DSNLINK
  8  LOAD LIBRARY       ===> P2DB.DSNLOAD
  9  MACRO LIBRARY      ===> P2DB.DSNMACS
 10  LOAD DISTRIBUTION  ===> P2DB.DSNALOAD
 11  EXIT LIBRARY       ===> P2DB.DSNEXIT

                INSTALL DB2 - SYSTEM RESOURCE DATA SET NAMES
===>

Enter data below:

Bootstrap Data Sets (BSDS):
* 1 COPY 1 NAME         ===> P2DB.BSDS01
* 2 COPY 2 NAME         ===> P2DB.BSDS02

Active Logs:
  3 NUMBER OF COPIES    ===> 2        2 or 1.  Number of active log copi
* 4 COPY 1 PREFIX       ===> P2DB.LOGCOPY1
* 5 COPY 2 PREFIX       ===> P2DB.LOGCOPY2

Archive Logs:
  6 NUMBER OF COPIES    ===> 2        2 or 1.  Number of archive log cop
* 7 COPY 1 PREFIX       ===> P2DB.ARCHLOG1
* 8 COPY 2 PREFIX       ===> P2DB.ARCHLOG2
  9 TIMESTAMP ARCHIVES  ===> YES      YES or NO


                INSTALL DB2 - DATA PARAMETERS
===>

Check parameters and reenter to change:

 1  CATALOG ALIAS       ===> P2DB                  Alias of MVS catalog
                                                   DB2 subsystem data se
 2  DEFINE CATALOG      ===> NO                    YES or NO
 3  VOLUME SERIAL 1     ===> P2DB01                CLIST allocation
 4  VOLUME SERIAL 2     ===> P2DB01                Non-VSAM data
 5  VOLUME SERIAL 3     ===> P2DB04                Default, temporary da
 6  VOLUME SERIAL 4     ===> P2DB04                Directory, catalog da
 7  VOLUME SERIAL 5     ===> P2DB03                Directory, catalog in
 8  VOLUME SERIAL 6     ===> P2DB02                Log copy 1, BSDS 2
 9  VOLUME SERIAL 7     ===> P2DB03                Log copy 2, BSDS 1
10  PERMANENT UNIT NAME ===> 3390                  Device type for MVS c
                                                   and partitioned data
11  TEMPORARY UNIT NAME ===> SYSDA                 Device type for
                                                   temporary data sets

                     INSTALL, UPDATE, AND MIGRATE DB2 - MAIN PANEL
 ===>

 Check parameters and reenter to change:

  1  INSTALL TYPE         ===> INSTALL   Install, Update, or Migrate

 Enter the following 2 values for migration only
  2  FROM RELEASE         ===>           1.3 or 2.2
  3  DATA SET NAME(MEMBER)===>

 Enter name of your input data sets (DSNLOAD, DSNMACS, DSNSAMP, DSNCLIST
  4  PREFIX               ===> P2DB
  5  SUFFIX               ===>

 Enter to set or save panel values (by reading or writing the named memb
  6  INPUT MEMBER NAME    ===> DSNTIDP2  Enter to read old panel values
  7  OUTPUT MEMBER NAME   ===> DSNTIDP2  Enter to write new panel values
-------- ------- -------- ----- ----------------------------------------
WESTON   LAWCSC  12/02/93 10:00 Project: F94116
                                CHREQ# 00000
                                SOFTWARE WAS IMPLEMENTED FROM THE TARGET
                                ZONE TV2R3, XDBS.V2R3.TARGET.*,
                                TO THE TARGET ZONE TP2DB,P2DB.TARGET.*
-------- ------- -------- ----- ----------------------------------------
OPS      ??????  11/17/93 09:00 Project: F94114
                                Ran DASDQUIK and initialized volumes.
-------- ------- -------- ----- ----------------------------------------
-------- ------- -------- ----- ----------------------------------------
TOMIAK   KETCSC  11/16/93 14:00 Project: F94114
                                Requested four dasd volumes via profs.
-------- ------- -------- ----- ----------------------------------------
************************************************************************
************************************************************************
***    USE TOP-DOWN APPROACH - ADD NEW ENTRIES TO TOP OF MEMBER!!    ***
************************************************************************
************************************************************************
./ ADD NAME=SAMPLE   0101-93165-93190-0846-00032-00032-00000-KETCSC
************************************************************************
*****                                                              *****
*****         CCCC   DDDD     CCCC    SSS      A                   *****
*****        C       D   D   C       S        A A                  *****
*****        C       D   D   C        SSS    AAAAA                 *****
*****        C       D   D   C           S   A   A                 *****
*****         CCCC   DDDD     CCCC    SSS    A   A                 *****
*****                                                              *****
*****        SAMPLE XDBS.SOFTWARE.CHANGES MEMBER                   *****
*****                                                              *****
************************************************************************

NAME     USERID  DATE     TIME  DESCRIPTION OF CHANGE
-------- ------- -------- ----- ----------------------------------------
TOMIAK   KETCSC  06/14/93 13:15 PROJECT: DB2FLR
                                XDBS.SOFTWARE.CHANGES(SAMPLE)
                                UPDATED SAMPLE MEMBERS FOR PROJECT PLANS
                                AND IMBEDDING FILES.
-------- ------- -------- ----- ----------------------------------------
-------LEVEL-02------------------------------------LEVEL-02-------------
-------LEVEL-02------------------------------------LEVEL-02-------------
-------LEVEL-02------------------------------------LEVEL-02-------------
-------- ------- -------- ----- ----------------------------------------
TOMIAK   KETCSC  06/12/93 13:15 PROJECT: DB2FLR
                                XDBS.PROJECT.PLANS(SAMPLE)
                                CREATED SAMPLE MEMBERS FOR PROJECT PLANS
                                AND IMBEDDING FILES.
-------- ------- -------- ----- ----------------------------------------
-------LEVEL-01------------------------------------LEVEL-01-------------
-------LEVEL-01------------------------------------LEVEL-01-------------
-------LEVEL-01------------------------------------LEVEL-01-------------
-------- ------- -------- ----- ----------------------------------------
./ ADD NAME=TCSPX    0101-93076-93077-1024-00017-00017-00000-LAWCSC
************************************************************************
*****                                                              *****
*****                 Cross System Product 370 AD/RS               *****
*****       A IBM Product to Develpment Applications               *****
*****                                                              *****
************************************************************************

NAME     USERID  DATE     TIME  DESCRIPTION OF CHANGE
-------- ------- -------- ----- ----------------------------------------
WESTON 4 LAWCSC  03/17/93 12:10 TCSPX, was cloned from a Level 1
                                TCSP370 zone via implementation dialog.
-------- ------- -------- ----- ----------------------------------------
-------- ------- -------- ----- ----------------------------------------
-------LEVEL-01------------------------------------LEVEL-01-------------
-------LEVEL-01------------------------------------LEVEL-01-------------
-------LEVEL-01------------------------------------LEVEL-01-------------
-------- ------- -------- ----- ----------------------------------------
./ ADD NAME=TV2R3    0112-93163-94006-0818-00231-00155-00000-DD20008
************************************************************************
*****                                                              *****
*****         CCCC   DDDD     CCCC    SSS      A                   *****
*****        C       D   D   C       S        A A                  *****
*****        C       D   D   C        SSS    AAAAA                 *****
*****        C       D   D   C           S   A   A                 *****
*****         CCCC   DDDD     CCCC    SSS    A   A                 *****
*****                                                              *****
*****        SINGLE SYSTEM IMAGE TARGET CHANGE LOG                 *****
*****                                                              *****
************************************************************************

NAME     USERID  DATE     TIME  DESCRIPTION OF CHANGE
-------- ------- -------- ----- ----------------------------------------
TOMIAK   KETCSC  01/06/94 08:15
                                PROJECT: F94625
                                FINALLY DELETED DSNHELP
-------- ------- -------- ----- ----------------------------------------
-------LEVEL-16------------------------------------LEVEL-16-------------
-------LEVEL-16------------------------------------LEVEL-16-------------
-------LEVEL-16------------------------------------LEVEL-16-------------
-------- ------- -------- ----- ----------------------------------------
BLUMEL   PABCSC  11/04/93 09:30 XDBS.INSTALL.CNTL(SMPEAPL2)
                                PROJECT: F94625
                                INSTALL QMF 3.1.1  AND MAINTENANCE
                                THROUGH 9305
                                FMID     = HSQ3112
                                SOURCEID = 9201,9202,9203,9204,9205,
                                           9206,9207,9208,9209,9210,
                                           9301,9302,9303,9304,9305
-------- ------- -------- ----- ----------------------------------------
-------LEVEL-15------------------------------------LEVEL-15-------------
-------LEVEL-15------------------------------------LEVEL-15-------------
-------LEVEL-15------------------------------------LEVEL-15-------------
-------- ------- -------- ----- ----------------------------------------
BLUMEL   PABCSC  10/27/93 14:00 XDBS.INSTALL.CNTL(SMPEAPL2)
                                PROJECT: F94625
                                APPLY MAINTENANCE THRU PUT 9305
                                SOURCEID = 9201,9202,9203,9204,9205,
                                           9206,9207,9208,9209,9210,
                                           9301,9302,9303,9304,9305
-------- ------- -------- ----- ----------------------------------------
-------LEVEL-14------------------------------------LEVEL-14-------------
-------LEVEL-14------------------------------------LEVEL-14-------------
-------LEVEL-14------------------------------------LEVEL-14-------------
-------- ------- -------- ----- ----------------------------------------
TOMIAK   KETCSC  11/16/93 16:45 XDBS.INSTALL.CNTL(SMPEAPLY)
                                PROJECT: F94625
                                APPLY MAINTENANCE FOR @08047/8065/6
                                SUBSYSTEM ABENDS IF BATCH JOB FAILS
                                PTFS=UN20999, UN35982 (SUPD UN30966)
-------- ------- -------- ----- ----------------------------------------
-------LEVEL-13A-----------------------------------LEVEL-13A------------
-------LEVEL-13A-----------------------------------LEVEL-13A------------
-------LEVEL-13A-----------------------------------LEVEL-13A------------
-------- ------- -------- ----- ----------------------------------------
TOMIAK   KETCSC  10/06/93 08:10 XDBS.INSTALL.CNTL(SMPEAPLY)
                                PROJECT: F94625
                                APPLY MAINTENANCE FOR MVS 4.3 SUPPORT
                                PTF = UN19444
-------- ------- -------- ----- ----------------------------------------
-------- ------- -------- ----- ----------------------------------------
LOVARI   MJLCSC  09/01/93 11:00 XDBS.INSTALL.CNTL(SMPEAPLY)
                                PROJECT: F94625
                                APPLY MAINTENANCE FOR @07683
                                CORRUPTED INDEXES  -  PTF = UN33782
                                APARFIX = PN29278.
-------- ------- -------- ----- ----------------------------------------
-------LEVEL-13------------------------------------LEVEL-13-------------
-------LEVEL-13------------------------------------LEVEL-13-------------
-------LEVEL-13------------------------------------LEVEL-13-------------
-------- ------- -------- ----- ----------------------------------------
TOMIAK   KETCSC  06/15/93 22:15 XDBS.INSTALL.CNTL(SMPEAPLY)
                                PROJECT: DB2F02
                                APPLY MAINTENANCE FOR @07462
                                HUNG THREADS APAR FIXING PE ON UN32879
                                APARFIX = AN38652.
-------- ------- -------- ----- ----------------------------------------
-------LEVEL-12------------------------------------LEVEL-12-------------
-------LEVEL-12------------------------------------LEVEL-12-------------
-------LEVEL-12------------------------------------LEVEL-12-------------
-------- ------- -------- ----- ----------------------------------------
TOMIAK   KETCSC  06/10/93 13:30 XDBS.INSTALL.CNTL(SMPEAPLY)
                                PROJECT: DB2F01
                                APPLY MAINTENANCE FOR @07250,
                                @07307 (HUNG THREADS) AND UN41111
                                PTF FOR IMAGCOPY DEADLOCK APAR AN34999.
-------- ------- -------- ----- ----------------------------------------
-------- ------- -------- ----- ----------------------------------------
TOMIAK   KETCSC  06/08/93 15:30 APPLY CHECK OF UN41111, UN26090,
                                PL480004, AND XXXXXXX.
-------- ------- -------- ----- ----------------------------------------
-------LEVEL-11------------------------------------LEVEL-11-------------
-------LEVEL-11------------------------------------LEVEL-11-------------
-------LEVEL-11------------------------------------LEVEL-11-------------
-------- ------- -------- ----- ----------------------------------------
LOVARI   MJLCSC  09/01/93 11:00 XDBS.INSTALL.CNTL(SMPEAPLY)
                                PROJECT: F94625
                                APPLY MAINTENANCE FOR @07683
                                CORRUPTED INDEXES  -  PTF = UN33782
                                APARFIX = PN29278.
-------- ------- -------- ----- ----------------------------------------
-------LEVEL-10A-----------------------------------LEVEL-10A------------
-------LEVEL-10A-----------------------------------LEVEL-10A------------
-------LEVEL-10A-----------------------------------LEVEL-10A------------
-------- ------- -------- ----- ----------------------------------------
TOMIAK   KETCSC  03/31/93 07:30 APPLY OF APAR AN34999 TO FIX IMAGCOPY
                                DEADLOCK PROBLEM. GROUP BROUGHT IN
                                UN19000 AND UN34966.
-------- ------- -------- ----- ----------------------------------------
-------LEVEL-10------------------------------------LEVEL-10-------------
-------LEVEL-10------------------------------------LEVEL-10-------------
-------LEVEL-10------------------------------------LEVEL-10-------------
-------- ------- -------- ----- ----------------------------------------
-------- ------- -------- ----- ----------------------------------------
BORGES   BORGY   01/05/93 14:20 DELETED BOTH THE DXT AND DB2PM FROM
                                THIS ZONE ALONG WITH THE ASSOCIATED
                                DDDEFS AND PHYSICAL DATASETS.
-------- ------- -------- ----- ----------------------------------------
-------LEVEL-09------------------------------------LEVEL-09-------------
-------LEVEL-09------------------------------------LEVEL-09-------------
-------LEVEL-09------------------------------------LEVEL-09-------------
-------- ------- -------- ----- ----------------------------------------
BORGES   BORGY   12/09/92 12:34 APPLIED PTF UN11002. THIS PTF RESTORES
                                THE ABILITY TO PRINT QUERIES AND PROCS
                                FROM QMF 3.1 REMOVING THE GDDM NICKNAME
                                RESTRICTION FOR THE PRINT FUNCTION WHEN
                                PRINTING THESE OBJECTS.
-------- ------- -------- ----- ----------------------------------------
BORGES   DB2CSC  12/12/92 12:42 INSTALL QMF PANELS INTO VSAM DATA SET
                                XDBS.INSTALL.CNTL(XDBSEPNL).
-------- ------- -------- ----- ----------------------------------------
-------LEVEL-08------------------------------------LEVEL-08-------------
-------LEVEL-08------------------------------------LEVEL-08-------------
-------LEVEL-08------------------------------------LEVEL-08-------------
-------- ------- -------- ----- ----------------------------------------
SOPPITT  DD20010 10/07/92 15:30 APPLIED PTF'S UN18799,UN19694.  THESE
                                PTF'S RECOMMENDED BY AC FOR INSTALL/1
                                PLANS (ALTHOUGH THEY DO NOT ADDRESS THE
                                PROBLEMS WE ARE HAVING IN BINDING LARGE
                                PLANS).
-------- ------- -------- ----- ----------------------------------------
SOPPITT  DD20010 09/30/92 15:00 APPLIED SOURCEID(6X071).  THESE CORREC-
                                TIVE PTF'S ARE TO ENABLE BIND OF LARGE
                                PLANS IN DB2 V2.3
-------- ------- -------- ----- ----------------------------------------
-------LEVEL-07------------------------------------LEVEL-07-------------
-------LEVEL-07------------------------------------LEVEL-07-------------
-------LEVEL-07------------------------------------LEVEL-07-------------
-------- ------- -------- ----- ----------------------------------------
BORGES   BORGY   08/07/92 13:57 APPLIED SERVICE SHIPPED ON PDO TAPE
                                UP TO PUT9107. THIS PUT LEVEL USED WAS
                                BASED ON THE LEVEL DB2 V2.3 WAS ON.
                                ALSO RAN THE QMF SUBSYSTEM INDEPENDENT
                                INSTALL STEPS TO INSTALL THE GDDM MAP
                                GROUPS AND CHART FORMS, IN ADDITION TO
                                INSTALLING THE QMF PANELS.
-------- ------- -------- ----- ----------------------------------------
-------LEVEL-06------------------------------------LEVEL-06-------------
-------LEVEL-06------------------------------------LEVEL-06-------------
-------LEVEL-06------------------------------------LEVEL-06-------------
-------- ------- -------- ----- ----------------------------------------
BORGES   BORGY   07/30/92 16:00 COMPLETED APPLY QMF V3.1 BASE PRODUCT
-------- ------- -------- ----- ----------------------------------------
-------LEVEL-05------------------------------------LEVEL-05-------------
-------LEVEL-05------------------------------------LEVEL-05-------------
-------LEVEL-05------------------------------------LEVEL-05-------------
-------- ------- -------- ----- ----------------------------------------
-------- ------- -------- ----- ----------------------------------------
BORGES   BORGY   05/29/92 17:30 COMPLETED APPLY OF BOTH DB2 V2.3 BASE
                                PRODUCT AND SERVICE TO THE TV2R3 ZONE.
                                CURRENT LEVEL OF TV2R3 IS LEVEL 4.
-------- ------- -------- ----- ----------------------------------------
-------LEVEL-04------------------------------------LEVEL-04-------------
-------LEVEL-04------------------------------------LEVEL-04-------------
-------LEVEL-04------------------------------------LEVEL-04-------------
-------- ------- -------- ----- ----------------------------------------
BORGES   BORGY   05/28/92 16:33 TV2R3, WAS CLONED FROM A LEVEL 3
                                DB2M ZONE VIA IMPLEMENTATION DIALOG
-------- ------- -------- ----- ----------------------------------------
BORGES   BORGY   05/22/92 10:14 TV2R3, WAS CLONED FROM A LEVEL 2
                                TDBST ZONE VIA IMPLEMENTATION DIALOG
-------- ------- -------- ----- ----------------------------------------
BORGES   BORGY   05/21/92 17:00 TV2R3, WAS CLONED FROM A LEVEL 2
                                TDBST ZONE VIA IMPLEMENTATION DIALOG
-------- ------- -------- ----- ----------------------------------------
-------- ------- -------- ----- ----------------------------------------
SOPPITT  DB2CSC  05/20/92 14:30 LEVEL 3 - TDBST
                                APPLIED SELECTED PTF'S TO:-
                                A). REMOVE MACRO DEPENDENCY FROM CICS/
                                    DB2 INTERFACE (FOR CICS VER3).
                                    UL90516 ++
                                B). ALLOW FALL BACK FROM DB2 V2.3 TO
                                    DB2 V2.2.  (TOLERATION PTF'S).
                                    UL90538 ++
-------- ------- -------- ----- ----------------------------------------
-------LEVEL-03------------------------------------LEVEL-03-------------
-------LEVEL-03------------------------------------LEVEL-03-------------
-------LEVEL-03------------------------------------LEVEL-03-------------
-------- ------- -------- ----- ----------------------------------------
BORGES   BORGY   03/30/92 13:35 LEVEL 2 - TDBST
                                APPLIED UN16849 GROUP. CORRECTS PROBLEM
                                WHEN MODIFY RECOVER WAS RUN FOR PARTI-
                                TIONED TABLESPACE W/ NO TABLESPAC LVL
                                IMAGE COPIES (HAD ONLY IC'S FOR PARTI-
                                TIONS). INCORRCTLY RECEIVED A DSNU572I
                                MSG AND PLACE PARTITIONED TS IN COPY
                                PENDING.
-------- ------- -------- ----- ----------------------------------------
-------LEVEL-02------------------------------------LEVEL-02-------------
-------LEVEL-02------------------------------------LEVEL-02-------------
-------LEVEL-02------------------------------------LEVEL-02-------------
-------- ------- -------- ----- ----------------------------------------
TOMIAK   DMV0016 12/04/91 13:35 QMFEMAP - LINK MAPS WITH GDDM
-------- ------- -------- ----- ----------------------------------------
TOMIAK   DMV0016 12/04/91 13:30 QMFCHRT - LINK CHARTS WITH GDDM
-------- ------- -------- ----- ----------------------------------------
-------- ------- -------- ----- ----------------------------------------
TOMIAK   DMV0016 11/27/91 09:00 ZONEMERGE DB2PM FROM TPMST INTO DBST
                                IEBCOPY LIBRARIES INTO DBST.TARGET.*
-------- ------- -------- ----- ----------------------------------------
-------- ------- -------- ----- ----------------------------------------
TOMIAK   DMV0016 11/26/91 09:00 CLONE FROM DBSETGT.*
-------- ------- -------- ----- ----------------------------------------
-------- ------- -------- ----- ----------------------------------------
TOMIAK   DMV0016 10/15/91 09:00 CLONE FROM DBSETGT.*
-------- ------- -------- ----- ----------------------------------------
-------LEVEL-01------------------------------------LEVEL-01-------------
-------LEVEL-01------------------------------------LEVEL-01-------------
-------LEVEL-01------------------------------------LEVEL-01-------------
-------- ------- -------- ----- ----------------------------------------
./ ADD NAME=XDBS     0100-93321-93321-1558-00019-00019-00000-KETCSC
************************************************************************
*****                                                              *****
*****         CCCC   DDDD     CCCC    SSS      A                   *****
*****        C       D   D   C       S        A A                  *****
*****        C       D   D   C        SSS    AAAAA                 *****
*****        C       D   D   C           S   A   A                 *****
*****         CCCC   DDDD     CCCC    SSS    A   A                 *****
*****                                                              *****
*****        DB2 GROUP SPECIFIC LIBRARIES                          *****
*****                                                              *****
************************************************************************

NAME     USERID  DATE     TIME  DESCRIPTION OF CHANGE
-------- ------- -------- ----- ----------------------------------------
-------- ------- -------- ----- ----------------------------------------
-------LEVEL-01------------------------------------LEVEL-01-------------
-------LEVEL-01------------------------------------LEVEL-01-------------
-------LEVEL-01------------------------------------LEVEL-01-------------
-------- ------- -------- ----- ----------------------------------------
./ ADD NAME=X1       0100-94010-94010-0930-00005-00005-00000-PETE
WESTON 4 DB2CSC  01/09/94 12:30 Project: F94625
                                Rebind SPUFI, CATVBIS, DSNTEP2 plans,
                                BIND QMF311 packages/plans as part of
                                level-15 maintenance.
-------- ------- -------- ----- ----------------------------------------
./ ADD NAME=ZONETABL 0120-93049-94026-1156-00050-00038-00000-LAWCSC
ZONE     HIGH-LEVEL      ALLOWABLE SYSTEMS
-------- --------------- ---------------------------------------
CSPDVL   CSP.DEVL           MVSX MVSZ MVSP
BCSPDVL  CSP.DEVL.BACKUP    MVSX MVSZ MVSP
TCSPDVL  CSP.DEVL.TARGET    MVSX MVSZ MVSP
CSPPRD   CSP.PROD           MVSX MVSZ MVSP
BCSPPRD  CSP.PROD.BACKUP    MVSX MVSZ MVSP
TCSPPRD  CSP.PROD.TARGET    MVSX MVSZ MVSP
CSPD     CSPD               MVSX MVSZ MVSP DOFD DOFP
CSPT     CSPT               MVSX MVSZ MVSP DOFD DOFP
BCSPT    CSPT.BACKUP        MVSX MVSZ MVSP
TCSPT    CSPT.TARGET        MVSX MVSZ MVSP
TDBST    DBST.TARGET        DOFX MVSX MVSZ DOFD DOFP MVSP
TOMGDB2  XDBS.TOMGDB2.TARGETDOFX MVSX MVSZ DOFD DOFP MVSP
DB2M     DB2M               MVSX MVSZ
BDB2M    DB2M.BACKUP        MVSX MVSZ
TDB2M    DB2M.TARGET        MVSX MVSZ DOFX
DB2X     DB2X               DOFX DOFD DOFP MVSX MVSZ
BDB2X    DB2X.BACKUP        DOFX DOFD DOFP MVSX MVSZ
TDB2X    DB2X.TARGET        DOFX DOFD DOFP MVSX MVSZ
DDB2     DDB2               DOFD DOFP
BDDB2    DDB2.BACKUP        DOFD DOFP
TDDB2    DDB2.TARGET        DOFD DOFP
DSN      DSN                DOFD DOFP
BDSN     DSN.BACKUP         DOFD DOFP
TDSN     DSN.TARGET         DOFD DOFP
D1DB     D1DB               MVSP
BD1DB    D1DB.BACKUP        MVSP
TD1DB    D1DB.TARGET        MVSP
D2DB     D2DB               MVSW MVSP
BD2DB    D2DB.BACKUP        MVSW MVSP
TD2DB    D2DB.TARGET        MVSW MVSP
P2DB     P2DB               MVSW MVSP
BP2DB    P2DB.BACKUP        MVSW MVSP
TP2DB    P2DB.TARGET        MVSW MVSP
PDB2     PDB2               DOFD DOFP
BPDB2    PDB2.BACKUP        DOFD DOFP
TPDB2    PDB2.TARGET        DOFD DOFP
P1DB     P1DB               MVSP
BP1DB    P1DB.BACKUP        MVSP
TP1DB    P1DB.TARGET        MVSP
CSPE     XDBS.CSPE          MVSX MVSZ MVSP
BCSPE    XDBS.CSPE.BACKUP   MVSX MVSZ MVSP
TCSPE    XDBS.CSPE.TARGET   MVSX MVSZ MVSP
CSPX     XDBS.CSPX          MVSX MVSZ MVSP
BCSPX    XDBS.CSPX.BACKUP   MVSX MVSZ MVSP
TCSPX    XDBS.CSPX.TARGET   MVSX MVSZ MVSP
CSP370T  XDBS.CSP370T       MVSX MVSZ MVSP
TV2R3    XDBS.V2R3.TARGET   DOFX MVSX MVSZ DOFD DOFP MVSP MVSW
XDBS     XDBS               DOFX DOFD DOFP MVSX MVSZ MVSP MVSW
