                                            Dignus Assembler Option Summary                                                Page    1 
                          DASM Dignus Systems/ASM (c) Copyright Dignus, LLC 1994-2004, All rights reserved.
                                                                                                      DASM V1.75.00 2004/12/29 15:27 
                                            Dignus Assembler Option Summary                                                Page    2 
                                                                                                      DASM V1.75.00 2004/12/29 15:27 

No Process Statements

Options for this Assembly             Source
-------------------------             -------------------------
     ALIGN                            CMDLINE
   NOBATCH                            CMDLINE
   NOCOMPATCASE                       {Default}
   NOCOMPATMACROCASE                  {Default}
   NOCOMPATSYSLIST                    {Default}
   NOCOMPATLITTYPE                    {Default}
   NODXREF                            CMDLINE
     ESD                              {Default}
     ERRFMT(dasm)                     {Default}
     FLAG(0,ALIGN,PUSH,RECORD)        {Default}
   NOGOFF                             CMDLINE
     LINECOUNT(32767)                 CMDLINE
     LIST(../build/list/showmvs.list) {Default}
     MACCPYEXT(mac)                   {Default}
     MXREF                            CMDLINE
     OBJECT(../build/obj/showmvs.xsd) CMDLINE
     OPTIONSUMMARY                    {Default}
     PCONTROL(UHEAD)                  {Default}
     PESTOP                           {Default}
     RA2                              {Default}
     RLD                              {Default}
     RENT                             CMDLINE
   NORXREF                            {Default}
   SIZE(MAX)                          {Default}
     TYPECHECK                        {Default}
   NOUXREF                            {Default}
   NONXREF                            {Default}
   NOXREF                             {Default}
     XSD                              CMDLINE
     YOP                              {Default}

Libraries in Search Order:
       CMDLINE      /usr/local/dignus/170/maclib/&M
       CMDLINE      arch/s370/tempmac/&m.mac
       CMDLINE      arch/s370/mac/&m.mac
       CMDLINE      /herc1/source/mvs38j/lib/amaclib/&m.mac
       CMDLINE      /herc1/source/mvs38j/lib/amodgen/&m.mac
                                              External Symbol Dictionary                                                   Page    3 
Symbol   Type   Id     Address  Length     LD ID  Flags Alias-of                                      DASM V1.75.00 2004/12/29 15:27 
SHOWMVS   SD 00000001 00000000 00001DCB            00
@STRING   SD 00000002 00001DD0 000002A8            04
@JDATE    SD 00000003 00002078 00000090            00
                                                                                                                           Page    4 
  ACTIVE USINGS: 
  Loc    Object Code      Addr1    Addr2    Stmt  Source Statement                                    DASM V1.75.00 2004/12/29 15:27 
                                               1 ***********************************************************************
                                               2 *                                                                     *
                                               3 *     THIS PROGRAM RUNS IN BATCH   AND DISPLAYS A LOT OF         <38J>*
                                               4 *     INFORMATION THAT YOU GENERALLY HAVE TO GET FROM DIFFERENT       *
                                               5 *     SOURCES.                                                        *
                                               6 *                                                                     *
                                               7 *       ON-LINE CPU'S                                                 *
                                               8 *       AMOUNT OF ON-LINE STORAGE (REAL AND EXTENDED)                 *
                                               9 *       IPL DATE, TIME, VOLSER, NUC-ID, CLPA                          *
                                              10 *       VIRTUAL STORAGE MAP (CSA, SQA, LPA, ETC)                      *
                                              11 *       DSN OF THE MASTER CATALOG                                     *
                                              12 *       DSN OF THE PAGE DATA SETS                                     *
                                              13 *       SMFSID, JWT, GRS' SNAME                                       *
                                              14 *       MVS LEVEL, DFP LEVEL, OSLVL FLAGS                             *
                                              15 *       PRODUCT LEVELS FOR: TSO/E, ISPF, DFDSS, HSM, RACF, VTAM       *
                                              16 *       UCB TABLE WITH UNIT NAMES AND DASD VOLUME STATUS              *
                                              17 *       SUB-SYSTEM VECTOR TABLE WITH FUNCTIONS PROCESSED              *
                                              18 *       ACTIVE LPA QUEUE                                              *
                                              19 *       SVC TABLE WITH NAME OF CORRESPONDING LPA MODULE               *
                                              20 *       LINK-LIST DATA SETS, WITH CREATION DATE                       *
                                              21 *       LPA-LIST DATA SETS, WITH CREATION DATE                        *
                                              22 *       LIST OF AUTHORIZED LIBRARIES                                  *
                                              23 *       YOUR TIOT, WITH EXCP COUNTS FOR EACH DD                       *
                                              24 *       ENHANCED VIEW OF YOUR JPAQ                                    *
                                              25 *       ENHANCED VIEW OF THE LOAD-LISTS OF YOUR ADDRESS SPACE         *
                                              26 ***********************************************************************
                                              27 *
                                              28 *  REGISTER USAGE
                                              29 *
                                              30 *  R0    SCRATCH
                                              31 *  R1    SCRATCH
                                              32 *  R2
                                              33 *  R3    CVT
                                              34 *  R4    TCB
                                              35 *  R5
                                              36 *  R6
                                              37 *  R7
                                              38 *  R8
                                              39 *  R9
                                              40 *  R10   CURRENT LINE PTR FOR STRING
                                              41 *  R11   BASE
                                              42 *  R12   BASE (SHORT-TERM VIA P$BEGIN)
                                              43 *  R13   DYN
                                              44 *  R14   SCRATCH, INTERNAL LINKAGE
                                              45 *  R15   SCRATCH, RETURN CODE
                                              46 ***********************************************************************
                                              47          PRINT GEN,DATA                   <38J>
                                                                                                                           Page    5 
  ACTIVE USINGS: 
  Loc    Object Code      Addr1    Addr2    Stmt  Source Statement                                    DASM V1.75.00 2004/12/29 15:27 
00000000                00000000 00001DCB     49 SHOWMVS  CSECT
                        00000000              50          USING PSA,0                                              <38J>
                                              51 *8OWMVS  RMODE ANY
00000000                                      52 BASEADDR DS    0H                                                 <38J>
                                              53 &VERMOD  SETC  'V38J.0001'             VERSION 2004-12-n9gtm
                                              54          SAVE  (14,12),,'SHOWMVS &SYSDATE '
00000000 47F0 F016               00000016     55+         B     22(0,15)                          BRANCH AROUND ID       01-SAVE
00000004 11                                   56+         DC    AL1(17)                           LENGTH OF IDENTIFIER   01-SAVE
00000005 E2C8D6E6D4E5E240                     57+         DC    CL8'SHOWMVS '                     IDENTIFIER             01-SAVE
0000000D F1F261F2F961F0F4                     58+         DC    CL8'12/29/04'                     IDENTIFIER             01-SAVE
00000015 40                                   59+         DC    CL1' '                            IDENTIFIER             01-SAVE
00000016 90EC D00C               0000000C     60+         STM   14,12,12(13)                      SAVE REGISTERS         01-SAVE
0000001A 18BF                                 61          LR    R11,R15                                            <38J>
                        00000000              62          USING BASEADDR,R11                                       <38J>
                                              63          GETMAIN RU,LV=DYNL,BNDRY=PAGE                            <38J>
                                              64+*      OS/VS2 RELEASE 4 VERSION -- 10/21/75
0000001C                0000001C              65+         CNOP  0,4                                                      01-GETMA
0000001C 47F0 B028               00000028     66+         B     *+12-4*0-2*0                      BRANCH AROUND DATA     01-GETMA
00000020 0007A5D0                             67+         DC    A(DYNL)                           LENGTH                 01-GETMA
00000024 00                                   68+IHB0002F DC    AL1(0)                            RESERVED               01-GETMA
00000025 00                                   69+.CREG1A  DC    AL1(0)                            RESERVED               01-GETMA
00000026 00                                   70+.SPNULL1 DC    AL1(0)                            SUBPOOL                01-GETMA
00000027 06                                   71+.CREG1C  DC    BL1'00000110'                     MODE BYTE              01-GETMA
00000028 5800 B020               00000020     72+         L     0,*-8+2*0                         LOAD LENGTH            01-GETMA
0000002C 58F0 B024               00000024     73+         L     15,IHB0002F                       LOAD GETMAIN PARMS     01-GETMA
00000030 1B11                                 74+         SR    1,1                               ZERO RESERVED REG 1    01-GETMA
00000032 0A78                    00000078     75+         SVC   120                               ISSUE GETMAIN SVC      01-GETMA
00000034 1891                                 76          LR    R9,R1                   SAVE GOTTEN AREA PTR       <38J>
00000036 1801                                 77          LR    R0,R1                   MVCL DEST ADDR             <38J>
00000038 5810 B320               00000320     78          L     R1,=A(DYNL)             MVCL DEST LENGTH           <38J>
0000003C 1FFF                                 79          SLR   R15,R15                 MVCL SOURCE LENGTH         <38J>
0000003E 0E0E                                 80          MVCL  R0,R14                  CLEAR GOTTEN STORAGE       <38J>
00000040 50D0 9004               00000004     81          ST    R13,4(,R9)              OUR BACKPTR @ CALLER'S SA  <38J>
00000044 5090 D008               00000008     82          ST    R9,8(,R13)              CALLER'S FWDPTR @ OUR SA   <38J>
00000048 98D1 D008               00000008     83          LM    R13,R1,8(R13)           SET R13, RELOAD R1
                        00000000              84          USING DYN,R13
0000004C D203 D048 1000 00000048 00000000     85          MVC   PARMADDR,0(R1)          SAVE PARM/CBUF ADDRESS
                                              86 *----------------------------------------------------------------------
00000052 45E0 B0E0               000000E0     87          BAL   R14,INITIAL             INITIALIZE THE ENVIRONMENT
00000056 12FF                                 88          LTR   R15,R15                 VALID ISPF ENVIRONMENT?
00000058 4770 B0BA               000000BA     89          BNZ   GOBACK                  NO, QUIT
0000005C 45E0 B1AE               000001AE     90          BAL   R14,SPACE1              BLANK LINE AT THE TOP
00000060 45E0 B0E6               000000E6     91          BAL   R14,HARDWARE            HARDWARE DATA
00000064 45E0 B0EC               000000EC     92          BAL   R14,IPLDATA             IPL DATE
00000068 45E0 B0F2               000000F2     93          BAL   R14,MEMORY              VIRTUAL MEMORY MAP
0000006C 45E0 B0F8               000000F8     94          BAL   R14,MASTRCAT            MASTER CATALOG
00000070 45E0 B0FE               000000FE     95          BAL   R14,PAGEDS              PAGE DATA SETS
00000074 45E0 B104               00000104     96          BAL   R14,SMFDATA             SMF DATA
00000078 45E0 B10A               0000010A     97          BAL   R14,SPLEVEL             MVS/SP & DFP LEVELS
0000007C 45E0 B110               00000110     98          BAL   R14,PRODUCTS            TSO, SPF, DFDSS, HSM, RACF, VTAM
00000080 45E0 B116               00000116     99          BAL   R14,SORT                SORT ALIAS
00000084 45E0 B11C               0000011C    100          BAL   R14,DEVICES             ON-LINE UNITS
00000088 45E0 B122               00000122    101          BAL   R14,SUBSYSTM            SUB-SYSTEMS
0000008C 45E0 B128               00000128    102          BAL   R14,LPACTIV             ACTIVE LPA
00000090 45E0 B12E               0000012E    103          BAL   R14,SVCTABLE            SVC TABLE
00000094 45E0 B134               00000134    104          BAL   R14,LINKLIST            LNKLSTXX
00000098 45E0 B13A               0000013A    105          BAL   R14,LPALIST             LPALSTXX
0000009C 45E0 B140               00000140    106          BAL   R14,APFLIST             APF LIST
000000A0 45E0 B146               00000146    107          BAL   R14,SCANTIOT            TIOT
000000A4 45E0 B14C               0000014C    108          BAL   R14,TCB_TREE            TCB TREE
000000A8 45E0 B152               00000152    109          BAL   R14,JPAQ                JPAQ
000000AC 45E0 B158               00000158    110          BAL   R14,LOADLIST            LOAD LISTS
000000B0 45E0 B15E               0000015E    111          BAL   R14,CLOSE               CLOSE SYSPRINT             <38J>
                                             112          ESTAE 0                       DELETE RECOVERY ENVIRONMENT
                                             113+*    MACDATE Y-1 75302
000000B4                                     114+         DS    0H                                                       01-ESTAE
000000B4 4100 0084               00000084    115+         LA    0,132(0,0)              INDICATE CANCEL OPTION           01-ESTAE
000000B8 0A3C                    0000003C    116+         SVC   60                      ISSUE STAE SVC                   01-ESTAE
                                             117 *8       BAL   R14,BRIF                START BROWSE MODE
000000BA 181D                                118 GOBACK   LR    R1,R13
000000BC 58D0 D004               00000004    119          L     R13,4(,R13)
                                             120          FREEMAIN RU,LV=DYNL,A=(1)
                                             121+*      OS/VS2 RELEASE 3 VERSION  -- 10/25/74
000000C0                000000C0             122+         CNOP  0,4                                                      01-FREEM
000000C0 47F0 B0CC               000000CC    123+         B     *+12-4*0-2*0                      BRANCH AROUND DATA     01-FREEM
000000C4 0007A5D0                            124+         DC    A(DYNL)                           LENGTH                 01-FREEM
000000C8 00                                  125+IHB0004F DC    AL1(0)                            RESERVED               01-FREEM
000000C9 00                                  126+.CONT1A  DC    AL1(0)                            RESERVED               01-FREEM
000000CA 00                                  127+.CONT1E  DC    AL1(0)                            SUBPOOL NUMBER         01-FREEM
000000CB 03                                  128+.CONT1C  DC    BL1'00000011'                     MODE BYTE              01-FREEM
000000CC 5800 B0C4               000000C4    129+         L     0,*-8+2*0                         LOAD LENGTH            01-FREEM
000000D0 58F0 B0C8               000000C8    130+         L     15,IHB0004F                       LOAD PARAMETERS        01-FREEM
000000D4 0A78                    00000078    131+         SVC   120                               ISSUE FREEMAIN SVC     01-FREEM
                                             132          RETURN (14,12),RC=00
000000D6 98EC D00C               0000000C    133+         LM    14,12,12(13)                      RESTORE THE REGISTERS  01-RETUR
000000DA 41F0 0000               00000000    134+         LA    15,00(0,0)                        LOAD RETURN CODE       01-RETUR
000000DE 07FE                                135+.CONTE   BR    14                                RETURN                 01-RETUR
                                             136 *----------------------------------------------------------------------
                                                                                                                           Page    6 
  ACTIVE USINGS: PSA,R0  BASEADDR,R11  DYN,R13  
  Loc    Object Code      Addr1    Addr2    Stmt  Source Statement                                    DASM V1.75.00 2004/12/29 15:27 
                                             138 *----------------------------------------------------------------------
                                             139 *        INITIALIZE THE ENVIRONMENT
                                             140 *----------------------------------------------------------------------
                                             141 INITIAL  P$BEGIN ,
000000E0                000000E0 00000000    142+$LTORG   LOCTR                         ADDRESSABLE CODE           MACRO 01-P$BEG
000000E0 45F0 B35C               0000035C    143+INITIAL  BAL   R15,=X'4AF0,F000,07FF'  ADD HWORD OFFSET, BR FAR   MACRO 01-P$BEG
000000E4 031C                                144+         DC    Y(PROC0006-*)           OFFSET TO FAR ROUTINE      MACRO 01-P$BEG
000003F4                000003F4 00000000    145+$FARRTNE LOCTR                         FAR ROUTINES               MACRO 01-P$BEG
000003F8                                     146+         DS    0D                                            <38J>MACRO 01-P$BEG
000003F8 C9D5C9E3C9C1D340                    147+         DC    CL8'INITIAL'                                  <38J>MACRO 01-P$BEG
00000400 05C0                                148+PROC0006 BALR  R12,0                   LOCAL BASE                 MACRO 01-P$BEG
                        00000402             149+         USING *,R12                   DROPPED BY P$END           MACRO 01-P$BEG
00000402 41F0 C032               00000434    150+         LA    R15,PEND0006            LOAD RETRY ADDRESS         MACRO 01-P$BEG
00000406 90EF D0E4               000000E4    151+         STM   R14,R15,P$END           RETURN/RETRY ADDRESSES     MACRO 01-P$BEG
                                             152          AGO   .XINI1                                             <38J>
                                             153 .XINI1   ANOP  ,                                                  <38J>
                                             154 *
0000040A 50B0 D0D0               000000D0    155          ST    R11,BASEREG             FOR RECOVERY ROUTINE
0000040E 5820 B324               00000324    156          L     R2,=A(RECOVERY)         RECOVERY ROUTINE
                                             157 *,ESTAE ROUTINE TEMPORARILY DISABLED
                                             158          AGO   .NOSTAE
                                             159 .NOSTAE  ANOP
                                             160 *
00000412 9240 D0FC      000000FC 00000040    161          MVI   BLANKS,C' '
00000416 D262 D0FD D0FC 000000FD 000000FC    162          MVC   BLANKS+1(L'BLANKS-1),BLANKS
                                             163 *
0000041C 41A0 D4B0               000004B0    164          LA    R10,LINES               START OF TABLES
                        00000000             165          USING LINE,R10
                                             166 *
00000420 5830 0010               00000010    167          L     R3,CVTPTR               CVT ADDRESS
                        00000100             168          USING CVTMAP,R3               PERMANENT ASSIGNMENT
                                             169 *
00000424 5840 021C               0000021C    170          L     R4,PSATOLD-PSA          MY TCB
                        00000020             171          USING TCB,R4
                                             172 *
00000428 5040 D0CC               000000CC    173          ST    R4,MYTCB                KEEP ITS ADDRESS FOR DETACH
0000042C D203 D0C8 407C 000000C8 0000009C    174          MVC   JSTCB,TCBJSTCB          THE JOB STEP TCB
                                             175 *
                                             176          AGO   .XINI2                                             <38J>
                                             177 .XINI2   ANOP  ,                                                  <38J>
00000432 1FFF                                178          SLR   R15,R15                 INITIALIZATION GOOD        <38J>
                                             179 INIT99   P$END
                        00000434             180+INIT99   EQU   *                                                  MACRO 01-P$END
00000434 58E0 D0E4               000000E4    181+PEND0006 L     R14,P$END               RETURN ADDR                MACRO 01-P$END
00000438 07FE                                182+         BR    R14                                                MACRO 01-P$END
                                             183+         DROP  R12                     SET BY P$BEGIN        <38J>MACRO 01-P$END
                                                                                                                           Page    7 
  ACTIVE USINGS: PSA,R0  CVTMAP,R3  TCB,R4  LINE,R10  BASEADDR,R11  DYN,R13  
  Loc    Object Code      Addr1    Addr2    Stmt  Source Statement                                    DASM V1.75.00 2004/12/29 15:27 
                                             185 *----------------------------------------------------------------------
                                             186 *        ON-LINE CPU'S AND REAL STORAGE
                                             187 *----------------------------------------------------------------------
                                             188 HARDWARE P$BEGIN
000000E6                000000E0 00000000    189+$LTORG   LOCTR                         ADDRESSABLE CODE           MACRO 01-P$BEG
000000E6 45F0 B35C               0000035C    190+HARDWARE BAL   R15,=X'4AF0,F000,07FF'  ADD HWORD OFFSET, BR FAR   MACRO 01-P$BEG
000000EA 035E                                191+         DC    Y(PROC0008-*)           OFFSET TO FAR ROUTINE      MACRO 01-P$BEG
0000043A                000003F4 00000000    192+$FARRTNE LOCTR                         FAR ROUTINES               MACRO 01-P$BEG
00000440                                     193+         DS    0D                                            <38J>MACRO 01-P$BEG
00000440 C8C1D9C4E6C1D9C5                    194+         DC    CL8'HARDWARE'                                 <38J>MACRO 01-P$BEG
00000448 05C0                                195+PROC0008 BALR  R12,0                   LOCAL BASE                 MACRO 01-P$BEG
                        0000044A             196+         USING *,R12                   DROPPED BY P$END           MACRO 01-P$BEG
0000044A 41F0 C058               000004A2    197+         LA    R15,PEND0008            LOAD RETRY ADDRESS         MACRO 01-P$BEG
0000044E 90EF D0E4               000000E4    198+         STM   R14,R15,P$END           RETURN/RETRY ADDRESSES     MACRO 01-P$BEG
                                             199          STRING 'ONLINE CPU(S)',INTO=LINE                         <38J>
00000452 4DE0 B3E8               000003E8    200+         BAS   R14,$STRING  R507       CALL @STRING SUB-ROUTINE         01-STRIN
00000456 066E                                201+         DC    AL2((IHB0009P-*)/2)     OFFSET TO FIELD DESCRIPTORS      01-STRIN
000000EC                000000E0 00000000    202+$LTORG   LOCTR                         ADDRESSABLE CONSTANTS            01-STRIN
00000458                000003F4 00000000    203+$FARRTNE LOCTR                         FAR ROUTINES                     01-STRIN
00001132                00001132 00000000    204+$LITERAL LOCTR                         NON-ADDRESSABLE CONSTANTS        01-STRIN
00001132 A0000064                            205+IHB0009P DC    S(LINE,L'LINE)                                           01-STRIN
00001136 0932000DC000                        206+         DC    AL2($LIT1001-*,L'$LIT1001,49152)                         01-STRIN
00000458                000003F4 00000000    207+$FARRTNE LOCTR                                                          01-STRIN
00000458 41A0 A064               00000064    208          LA    R10,NEXTLINE                                       <38J>
0000045C 5870 32FC               000003FC    209          L     R7,CVTPCCAT             PCCA VECTOR TABLE
00000460 4180 0010               00000010    210          LA    R8,0016                 16 IS THE MAX NUMBER OF CPU'S
                                             211 *LOOP
00000464 BF9F 7000               00000000    212 HARDW1   ICM   R9,B'1111',0(R7)        PCCA
00000468 4780 C02C               00000476    213          BZ    HARDW4                  THIS CPU ACTIVE, JUMP
                        00000000             214          USING PCCA,R9
                                             215          STRING '  CPU ',(PCCACPUA,H,L),'  SERIAL: ',(PCCACPID+0,8), XXX
                                                                '  MODEL: ',(PCCACPID+8,4),INTO=LINE
0000046C 4DE0 B3E8               000003E8    216+         BAS   R14,$STRING  R507       CALL @STRING SUB-ROUTINE         01-STRIN
00000470 0666                                217+         DC    AL2((IHB0010P-*)/2)     OFFSET TO FIELD DESCRIPTORS      01-STRIN
0000113C                00001132 00000000    218+$LITERAL LOCTR                         NON-ADDRESSABLE CONSTANTS        01-STRIN
0000113C A0000064                            219+IHB0010P DC    S(LINE,L'LINE)                                           01-STRIN
00001140 093500064000                        220+         DC    AL2($LIT1002-*,L'$LIT1002,16384)                         01-STRIN
00001146 901000030480                        221+         DC    S(PCCACPUA,3),AL1(4,128)                                 01-STRIN
0000114C 092F000A4000                        222+         DC    AL2($LIT1003-*,L'$LIT1003,16384)                         01-STRIN
00001152 900400080000                        223+         DC    S(PCCACPID+0,8),AL1(0,0)                                 01-STRIN
00001158 092D00094000                        224+         DC    AL2($LIT1004-*,L'$LIT1004,16384)                         01-STRIN
0000115E 900C00048000                        225+         DC    S(PCCACPID+8,4),AL1(128,0)                               01-STRIN
00000472                000003F4 00000000    226+$FARRTNE LOCTR                                                          01-STRIN
00000472 41A0 A064               00000064    227          LA    R10,NEXTLINE
00000476 4170 7004               00000004    228 HARDW4   LA    R7,4(,R7)               BUMP PCCAT PTR
0000047A 4680 C01A               00000464    229          BCT   R8,HARDW1
                                             230 *ENDLOOP
0000047E 45E0 B1AE               000001AE    231          BAL   R14,SPACE1              BLANK LINE
                                             232 *
                                             233 *        REAL STORAGE
                                             234 *
                                             235          STRING 'REAL STORAGE',INTO=LINE                          <38J>
00000482 4DE0 B3E8               000003E8    236+         BAS   R14,$STRING  R507       CALL @STRING SUB-ROUTINE         01-STRIN
00000486 066F                                237+         DC    AL2((IHB0011P-*)/2)     OFFSET TO FIELD DESCRIPTORS      01-STRIN
00001164                00001132 00000000    238+$LITERAL LOCTR                         NON-ADDRESSABLE CONSTANTS        01-STRIN
00001164 A0000064                            239+IHB0011P DC    S(LINE,L'LINE)                                           01-STRIN
00001168 0926000CC000                        240+         DC    AL2($LIT1005-*,L'$LIT1005,49152)                         01-STRIN
00000488                000003F4 00000000    241+$FARRTNE LOCTR                                                          01-STRIN
00000488 41A0 A064               00000064    242          LA    R10,NEXTLINE                                       <38J>
0000048C 4110 0001               00000001    243          LA    R1,0001
00000490 5E10 3138               00000238    244          AL    R1,CVTEORM              HI-ADDR
00000494 8810 000A               0000000A    245          SRL   R1,0010                 GET IT IN "K"
                                             246          STRING '  ON-LINE: ',(CVTRLSTG,F,L),'K',                      X
                                                                '   HIGHEST ADDRESS: ',((R1),,L),'K',                   X
                                                                INTO=LINE
00000498 4DE0 B3E8               000003E8    247+         BAS   R14,$STRING  R507       CALL @STRING SUB-ROUTINE         01-STRIN
0000049C 0669                                248+         DC    AL2((IHB0012P-*)/2)     OFFSET TO FIELD DESCRIPTORS      01-STRIN
0000116E                00001132 00000000    249+$LITERAL LOCTR                         NON-ADDRESSABLE CONSTANTS        01-STRIN
0000116E A0000064                            250+IHB0012P DC    S(LINE,L'LINE)                                           01-STRIN
00001172 0928000B4000                        251+         DC    AL2($LIT1006-*,L'$LIT1006,16384)                         01-STRIN
00001178 3358000F0480                        252+         DC    S(CVTRLSTG,15),AL1(4,128)                                01-STRIN
0000117E 092700014000                        253+         DC    AL2($LIT1007-*,L'$LIT1007,16384)                         01-STRIN
00001184 092200144000                        254+         DC    AL2($LIT1008-*,L'$LIT1008,16384)                         01-STRIN
0000118A 000100000180                        255+         DC    S((R1),0),AL1(1,128)                                     01-STRIN
00001190 09150001C000                        256+         DC    AL2($LIT1007-*,L'$LIT1007,49152)                         01-STRIN
0000049E                000003F4 00000000    257+$FARRTNE LOCTR                                                          01-STRIN
0000049E 45E0 B1AA               000001AA    258          BAL   R14,SPACE2              BLANK LINE
                                             259 *8       L     R8,CVTRCEP              RSM CTL & ENUM AREA
                                             260 *8       L     R9,RCEESPL-RCE(,R8)     # OF EXTENDED STORAGE FRAMES
                                             261 *8       SLL   R9,002                  CHANGE TO "K"
                                             262 *8       STRING '      EXTENDED STORAGE: ',((R9),,L),'K',INTO=LINE
                                             263 *8       BAL   R14,SPACE2              BLANK LINE
                                             264          P$END
000004A2 58E0 D0E4               000000E4    265+PEND0008 L     R14,P$END               RETURN ADDR                MACRO 01-P$END
000004A6 07FE                                266+         BR    R14                                                MACRO 01-P$END
                                             267+         DROP  R12                     SET BY P$BEGIN        <38J>MACRO 01-P$END
                                                                                                                           Page    8 
  ACTIVE USINGS: PSA,R0  CVTMAP,R3  TCB,R4  PCCA,R9  LINE,R10  BASEADDR,R11  DYN,R13  
  Loc    Object Code      Addr1    Addr2    Stmt  Source Statement                                    DASM V1.75.00 2004/12/29 15:27 
                                             269 *----------------------------------------------------------------------
                                             270 *        IPL DATA
                                             271 *----------------------------------------------------------------------
                                             272 IPLDATA  P$BEGIN ,
000000EC                000000E0 00000000    273+$LTORG   LOCTR                         ADDRESSABLE CODE           MACRO 01-P$BEG
000000EC 45F0 B35C               0000035C    274+IPLDATA  BAL   R15,=X'4AF0,F000,07FF'  ADD HWORD OFFSET, BR FAR   MACRO 01-P$BEG
000000F0 03C0                                275+         DC    Y(PROC0014-*)           OFFSET TO FAR ROUTINE      MACRO 01-P$BEG
000004A8                000003F4 00000000    276+$FARRTNE LOCTR                         FAR ROUTINES               MACRO 01-P$BEG
000004A8                                     277+         DS    0D                                            <38J>MACRO 01-P$BEG
000004A8 C9D7D3C4C1E3C140                    278+         DC    CL8'IPLDATA'                                  <38J>MACRO 01-P$BEG
000004B0 05C0                                279+PROC0014 BALR  R12,0                   LOCAL BASE                 MACRO 01-P$BEG
                        000004B2             280+         USING *,R12                   DROPPED BY P$END           MACRO 01-P$BEG
000004B2 41F0 C02E               000004E0    281+         LA    R15,PEND0014            LOAD RETRY ADDRESS         MACRO 01-P$BEG
000004B6 90EF D0E4               000000E4    282+         STM   R14,R15,P$END           RETURN/RETRY ADDRESSES     MACRO 01-P$BEG
                                             283          AGO   .XIPLD1                                            <38J>
                                             284 .XIPLD1  ANOP                                                     <38J>
                                             285 *
000004BA 5850 3030               00000130    286          L     R5,CVTSYSAD             IPL UCB
                        00000040             287          USING UCBOB,R5
000004BE 5880 3148               00000248    288          L     R8,CVTEXT2              CVT EXTENSION
                        00000000             289          USING CVTXTNT2,R8
000004C2 58F0 32C0               000003C0    290          L     R15,CVTASMVT            POINT TO ASM VECTOR TABLE
000004C6 4190 B362               00000362    291          LA    R9,=C'NO '              CLPA=NO
000004CA 9108 F001      00000001 00000008    292          TM    ASMFLAG2-ASMVT(R15),ASMQUICK   QUICK START?
000004CE 4710 C024               000004D6    293          BO    *+8                     YES, JUMP
000004D2 4190 B365               00000365    294          LA    R9,=C'YES'              NO, CLPA=YES
                                             295          STRING 'IPL FROM: ',UCBVOLI,'/',UCBNAME,                 <38J>X
                                                                '   NUC ID: ',CVTNUCLS,                                 X
                                                                '   CLPA: ',((R9),3),INTO=LINE
000004D6 4DE0 B3E8               000003E8    296+         BAS   R14,$STRING  R507       CALL @STRING SUB-ROUTINE         01-STRIN
000004DA 065E                                297+         DC    AL2((IHB0015P-*)/2)     OFFSET TO FIELD DESCRIPTORS      01-STRIN
00001196                00001132 00000000    298+$LITERAL LOCTR                         NON-ADDRESSABLE CONSTANTS        01-STRIN
00001196 A0000064                            299+IHB0015P DC    S(LINE,L'LINE)                                           01-STRIN
0000119A 0920000A4000                        300+         DC    AL2($LIT1009-*,L'$LIT1009,16384)                         01-STRIN
000011A0 501C00060000                        301+         DC    S(UCBVOLI,L'UCBVOLI),AL1(0,0)                            01-STRIN
000011A6 091E00014000                        302+         DC    AL2($LIT1010-*,L'$LIT1010,16384)                         01-STRIN
000011AC 500D00030000                        303+         DC    S(UCBNAME,L'UCBNAME),AL1(0,0)                            01-STRIN
000011B2 0913000B4000                        304+         DC    AL2($LIT1011-*,L'$LIT1011,16384)                         01-STRIN
000011B8 800400010000                        305+         DC    S(CVTNUCLS,L'CVTNUCLS),AL1(0,0)                          01-STRIN
000011BE 091200094000                        306+         DC    AL2($LIT1012-*,L'$LIT1012,16384)                         01-STRIN
000011C4 900000038000                        307+         DC    S(0(R9),3),AL1(128,0)                                    01-STRIN
000004DC                000003F4 00000000    308+$FARRTNE LOCTR                                                          01-STRIN
000004DC 45E0 B1AA               000001AA    309          BAL   R14,SPACE2              BLANK LINE
                                             310          P$END
000004E0 58E0 D0E4               000000E4    311+PEND0014 L     R14,P$END               RETURN ADDR                MACRO 01-P$END
000004E4 07FE                                312+         BR    R14                                                MACRO 01-P$END
                                             313+         DROP  R12                     SET BY P$BEGIN        <38J>MACRO 01-P$END
                                                                                                                           Page    9 
  ACTIVE USINGS: PSA,R0  CVTMAP,R3  TCB,R4  UCBOB,R5  CVTXTNT2,R8  PCCA,R9  LINE,R10  BASEADDR,R11  DYN,R13  
  Loc    Object Code      Addr1    Addr2    Stmt  Source Statement                                    DASM V1.75.00 2004/12/29 15:27 
                                             315 *----------------------------------------------------------------------
                                             316 *        DISPLAY VIRTUAL MEMORY MAP
                                             317 *----------------------------------------------------------------------
                                             318 MEMORY   P$BEGIN ,
000000F2                000000E0 00000000    319+$LTORG   LOCTR                         ADDRESSABLE CODE           MACRO 01-P$BEG
000000F2 45F0 B35C               0000035C    320+MEMORY   BAL   R15,=X'4AF0,F000,07FF'  ADD HWORD OFFSET, BR FAR   MACRO 01-P$BEG
000000F6 03FA                                321+         DC    Y(PROC0017-*)           OFFSET TO FAR ROUTINE      MACRO 01-P$BEG
000004E6                000003F4 00000000    322+$FARRTNE LOCTR                         FAR ROUTINES               MACRO 01-P$BEG
000004E8                                     323+         DS    0D                                            <38J>MACRO 01-P$BEG
000004E8 D4C5D4D6D9E84040                    324+         DC    CL8'MEMORY'                                   <38J>MACRO 01-P$BEG
000004F0 05C0                                325+PROC0017 BALR  R12,0                   LOCAL BASE                 MACRO 01-P$BEG
                        000004F2             326+         USING *,R12                   DROPPED BY P$END           MACRO 01-P$BEG
000004F2 41F0 C1FC               000006EE    327+         LA    R15,PEND0017            LOAD RETRY ADDRESS         MACRO 01-P$BEG
000004F6 90EF D0E4               000000E4    328+         STM   R14,R15,P$END           RETURN/RETRY ADDRESSES     MACRO 01-P$BEG
                                             329          STRING 'VIRTUAL STORAGE MAP',INTO=LINE
000004FA 4DE0 B3E8               000003E8    330+         BAS   R14,$STRING  R507       CALL @STRING SUB-ROUTINE         01-STRIN
000004FE 0666                                331+         DC    AL2((IHB0018P-*)/2)     OFFSET TO FIELD DESCRIPTORS      01-STRIN
000011CA                00001132 00000000    332+$LITERAL LOCTR                         NON-ADDRESSABLE CONSTANTS        01-STRIN
000011CA A0000064                            333+IHB0018P DC    S(LINE,L'LINE)                                           01-STRIN
000011CE 090B0013C000                        334+         DC    AL2($LIT1013-*,L'$LIT1013,49152)                         01-STRIN
00000500                000003F4 00000000    335+$FARRTNE LOCTR                                                          01-STRIN
00000500 45E0 B1AA               000001AA    336          BAL   R14,SPACE2
                                             337          STRING '  ----AREA----',                                     XX
                                                                '  ------START------     ------END-------     SIZE',   XX
                                                                INTO=LINE
00000504 4DE0 B3E8               000003E8    338+         BAS   R14,$STRING  R507       CALL @STRING SUB-ROUTINE         01-STRIN
00000508 0666                                339+         DC    AL2((IHB0019P-*)/2)     OFFSET TO FIELD DESCRIPTORS      01-STRIN
000011D4                00001132 00000000    340+$LITERAL LOCTR                         NON-ADDRESSABLE CONSTANTS        01-STRIN
000011D4 A0000064                            341+IHB0019P DC    S(LINE,L'LINE)                                           01-STRIN
000011D8 0914000E4000                        342+         DC    AL2($LIT1014-*,L'$LIT1014,16384)                         01-STRIN
000011DE 091C0031C000                        343+         DC    AL2($LIT1015-*,L'$LIT1015,49152)                         01-STRIN
0000050A                000003F4 00000000    344+$FARRTNE LOCTR                                                          01-STRIN
0000050A 45E0 B1AA               000001AA    345          BAL   R14,SPACE2
                                             346 *
0000050E 5870 3230               00000330    347          L     R7,CVTGDA               GLOBAL DATA AREA
                        00000000             348          USING GDA,R7
                                             349 *
                                             350 * COMMON AREA
                                             351 *
00000512 5880 7008               00000008    352          L     R8,CSAPQEP              GDA -> CSA PQE             <38J>
                        00000000             353          USING PQESECT,R8                                         <38J>
                                             354         $MEMORY '----------',PQEREGN,CVTMZ00                      <38J>
00000516 5810 8018               00000018    355+         L     R1,PQEREGN              START ADDRESS        $MEMORY     01-$MEMO
0000051A 5820 30A4               000001A4    356+         L     R2,CVTMZ00              END ADDRESS          $MEMORY     01-$MEMO
0000051E 4100 0001               00000001    357+         LA    R0,0001                 ONE BYTE             $MEMORY     01-$MEMO
00000522 1E02                                358+         ALR   R0,R2                   END ADDRESS          $MEMORY     01-$MEMO
00000524 1F01                                359+         SLR   R0,R1                   SIZE IN BYTES        $MEMORY     01-$MEMO
00000526 8800 000A               0000000A    360+.CC      SRL   R0,010                  SIZE  IN "K"         $MEMORY     01-$MEMO
0000052A 8810 000A               0000000A    361+         SRL   R1,010                  START IN "K"         $MEMORY     01-$MEMO
0000052E 8820 000A               0000000A    362+         SRL   R2,010                  END   IN "K"         $MEMORY     01-$MEMO
00000532 4DE0 B3E8               000003E8    363+         BAS   R14,$STRING  R507       CALL @STRING SUB-ROUTINE         02-STRIN
00000536 0657                                364+         DC    AL2((IHB0021P-*)/2)     OFFSET TO FIELD DESCRIPTORS      02-STRIN
000011E4                00001132 00000000    365+$LITERAL LOCTR                         NON-ADDRESSABLE CONSTANTS        02-STRIN
000011E4 A0000064                            366+IHB0021P DC    S(LINE,L'LINE)                                           02-STRIN
000011E8 000000044000                        367+         DC    AL2(0,4,16384)          BLANKS                           02-STRIN
000011EE 093D000A4000                        368+         DC    AL2($LIT1016-*,L'$LIT1016,16384)                         02-STRIN
000011F4 000000024000                        369+         DC    AL2(0,2,16384)          BLANKS                           02-STRIN
000011FA 801800040800                        370+         DC    S(PQEREGN,L'PQEREGN),AL1(8,0)                            02-STRIN
00001200 000100000108                        371+         DC    S((R1),0),AL1(1,8)                                       02-STRIN
00001206 089F00014000                        372+         DC    AL2($LIT1007-*,L'$LIT1007,16384)                         02-STRIN
0000120C 000000054000                        373+         DC    AL2(0,5,16384)          BLANKS                           02-STRIN
00001212 30A400040800                        374+         DC    S(CVTMZ00,4),AL1(8,0)                                    02-STRIN
00001218 000200000107                        375+         DC    S((R2),0),AL1(1,7)                                       02-STRIN
0000121E 088700014000                        376+         DC    AL2($LIT1007-*,L'$LIT1007,16384)                         02-STRIN
00001224 000000000108                        377+         DC    S((R0),0),AL1(1,8)                                       02-STRIN
0000122A 087B0001C000                        378+         DC    AL2($LIT1007-*,L'$LIT1007,49152)                         02-STRIN
00000538                000003F4 00000000    379+$FARRTNE LOCTR                                                          02-STRIN
00000538 41A0 A064               00000064    380+         LA    R10,NEXTLINE                                 $MEMORY     01-$MEMO
0000053C 5BA0 B328               00000328    381          S     R10,=A(L$LINE)
00000540 D207 A000 B308 00000000 00000308    382          MVC   LINE(8),=C'  COMMON'
00000546 45E0 B1AA               000001AA    383          BAL   R14,SPACE2
                                             384 *
                                             385 **       ST    R7,DY8WORD1
                                             386 **       LA    R14,L$GDA
                                             387 **       ST    R14,DY8WORD3
                                             388 **      $MEMORY '       GDA',DY8WORD1,,DY8WORD3
                                             389 *
0000054A 5890 7018               00000018    390          L     R9,SQASPQEP             GDA -> SQA (SP245) SPQE
                        00000000             391          USING SPQESECT,R9
0000054E 5890 9004               00000004    392          L     R9,SPDQEPTR             SPQE -> DQE
                        00000000             393          USING DQESECT,R9
                                             394         $MEMORY '       SQA',DQEBLKAD,,DQELNTH
00000552 5810 9008               00000008    395+         L     R1,DQEBLKAD             START ADDRESS        $MEMORY     01-$MEMO
00000556 5800 900C               0000000C    396+         L     R0,DQELNTH              SIZE IN BYTES        $MEMORY     01-$MEMO
0000055A 1820                                397+         LR    R2,R0                   SIZE IN BYTES        $MEMORY     01-$MEMO
0000055C 1A21                                398+         AR    R2,R1                   END ADDRESS          $MEMORY     01-$MEMO
0000055E 0620                                399+         BCTR  R2,0                    END ADDRESS          $MEMORY     01-$MEMO
00000560 5020 D098               00000098    400+         ST    R2,DWD                  END ADDRESS          $MEMORY     01-$MEMO
00000564 8800 000A               0000000A    401+         SRL   R0,010                  SIZE  IN "K"         $MEMORY     01-$MEMO
00000568 8810 000A               0000000A    402+         SRL   R1,010                  START IN "K"         $MEMORY     01-$MEMO
0000056C 8820 000A               0000000A    403+         SRL   R2,010                  END   IN "K"         $MEMORY     01-$MEMO
00000570 4DE0 B3E8               000003E8    404+         BAS   R14,$STRING  R507       CALL @STRING SUB-ROUTINE         02-STRIN
00000574 065E                                405+         DC    AL2((IHB0023P-*)/2)     OFFSET TO FIELD DESCRIPTORS      02-STRIN
00001230                00001132 00000000    406+$LITERAL LOCTR                         NON-ADDRESSABLE CONSTANTS        02-STRIN
00001230 A0000064                            407+IHB0023P DC    S(LINE,L'LINE)                                           02-STRIN
00001234 000000044000                        408+         DC    AL2(0,4,16384)          BLANKS                           02-STRIN
0000123A 08FB000A4000                        409+         DC    AL2($LIT1017-*,L'$LIT1017,16384)                         02-STRIN
00001240 000000024000                        410+         DC    AL2(0,2,16384)          BLANKS                           02-STRIN
00001246 900800040800                        411+         DC    S(DQEBLKAD,L'DQEBLKAD),AL1(8,0)                          02-STRIN
0000124C 000100000108                        412+         DC    S((R1),0),AL1(1,8)                                       02-STRIN
00001252 085300014000                        413+         DC    AL2($LIT1007-*,L'$LIT1007,16384)                         02-STRIN
00001258 000000054000                        414+         DC    AL2(0,5,16384)          BLANKS                           02-STRIN
0000125E D09800040800                        415+         DC    S(DWD,4),AL1(8,0)                                        02-STRIN
00001264 000200000107                        416+         DC    S((R2),0),AL1(1,7)                                       02-STRIN
0000126A 083B00014000                        417+         DC    AL2($LIT1007-*,L'$LIT1007,16384)                         02-STRIN
00001270 000000000108                        418+         DC    S((R0),0),AL1(1,8)                                       02-STRIN
00001276 082F0001C000                        419+         DC    AL2($LIT1007-*,L'$LIT1007,49152)                         02-STRIN
00000576                000003F4 00000000    420+$FARRTNE LOCTR                                                          02-STRIN
00000576 41A0 A064               00000064    421+         LA    R10,NEXTLINE                                 $MEMORY     01-$MEMO
                                             422 *
0000057A 58E0 9008               00000008    423          L     R14,DQEBLKAD            SQA BEGIN ADDR
0000057E 06E0                                424          BCTR  R14,0
00000580 50E0 D394               00000394    425          ST    R14,DY8WORD2            PLPA/SQA CONTIGUOUS
00000584 1F99                                426          SLR   R9,R9
00000586 BF97 3169               00000269    427          ICM   R9,7,CVTLPDIR           CVT -> LPA DIRECTORY
0000058A 5090 D390               00000390    428          ST    R9,DY8WORD1
                                             429         $MEMORY '      PLPA',DY8WORD1,DY8WORD2
0000058E 5810 D390               00000390    430+         L     R1,DY8WORD1             START ADDRESS        $MEMORY     01-$MEMO
00000592 5820 D394               00000394    431+         L     R2,DY8WORD2             END ADDRESS          $MEMORY     01-$MEMO
00000596 4100 0001               00000001    432+         LA    R0,0001                 ONE BYTE             $MEMORY     01-$MEMO
0000059A 1E02                                433+         ALR   R0,R2                   END ADDRESS          $MEMORY     01-$MEMO
0000059C 1F01                                434+         SLR   R0,R1                   SIZE IN BYTES        $MEMORY     01-$MEMO
0000059E 8800 000A               0000000A    435+.CC      SRL   R0,010                  SIZE  IN "K"         $MEMORY     01-$MEMO
000005A2 8810 000A               0000000A    436+         SRL   R1,010                  START IN "K"         $MEMORY     01-$MEMO
000005A6 8820 000A               0000000A    437+         SRL   R2,010                  END   IN "K"         $MEMORY     01-$MEMO
000005AA 4DE0 B3E8               000003E8    438+         BAS   R14,$STRING  R507       CALL @STRING SUB-ROUTINE         02-STRIN
000005AE 0667                                439+         DC    AL2((IHB0025P-*)/2)     OFFSET TO FIELD DESCRIPTORS      02-STRIN
0000127C                00001132 00000000    440+$LITERAL LOCTR                         NON-ADDRESSABLE CONSTANTS        02-STRIN
0000127C A0000064                            441+IHB0025P DC    S(LINE,L'LINE)                                           02-STRIN
00001280 000000044000                        442+         DC    AL2(0,4,16384)          BLANKS                           02-STRIN
00001286 08B9000A4000                        443+         DC    AL2($LIT1018-*,L'$LIT1018,16384)                         02-STRIN
0000128C 000000024000                        444+         DC    AL2(0,2,16384)          BLANKS                           02-STRIN
00001292 D39000040800                        445+         DC    S(DY8WORD1,L'DY8WORD1),AL1(8,0)                          02-STRIN
00001298 000100000108                        446+         DC    S((R1),0),AL1(1,8)                                       02-STRIN
0000129E 080700014000                        447+         DC    AL2($LIT1007-*,L'$LIT1007,16384)                         02-STRIN
000012A4 000000054000                        448+         DC    AL2(0,5,16384)          BLANKS                           02-STRIN
000012AA D39400040800                        449+         DC    S(DY8WORD2,4),AL1(8,0)                                   02-STRIN
000012B0 000200000107                        450+         DC    S((R2),0),AL1(1,7)                                       02-STRIN
000012B6 07EF00014000                        451+         DC    AL2($LIT1007-*,L'$LIT1007,16384)                         02-STRIN
000012BC 000000000108                        452+         DC    S((R0),0),AL1(1,8)                                       02-STRIN
000012C2 07E30001C000                        453+         DC    AL2($LIT1007-*,L'$LIT1007,49152)                         02-STRIN
000005B0                000003F4 00000000    454+$FARRTNE LOCTR                                                          02-STRIN
000005B0 41A0 A064               00000064    455+         LA    R10,NEXTLINE                                 $MEMORY     01-$MEMO
                                             456 *
                                             457 *       $MEMORY '      MLPA',CVTMLPAS,CVTMLPAE
                                             458 *       $MEMORY '    P-BLDL',????????,????????  PAGEABLE BLDL
                                             459 *
000005B4 5880 7008               00000008    460          L     R8,CSAPQEP              GDA -> CSA PQE             <38J>
                        00000000             461          USING PQESECT,R8                                         <38J>
                                             462         $MEMORY '       CSA',PQEREGN,,PQESIZE                     <38J>
000005B8 5810 8018               00000018    463+         L     R1,PQEREGN              START ADDRESS        $MEMORY     01-$MEMO
000005BC 5800 8014               00000014    464+         L     R0,PQESIZE              SIZE IN BYTES        $MEMORY     01-$MEMO
000005C0 1820                                465+         LR    R2,R0                   SIZE IN BYTES        $MEMORY     01-$MEMO
000005C2 1A21                                466+         AR    R2,R1                   END ADDRESS          $MEMORY     01-$MEMO
000005C4 0620                                467+         BCTR  R2,0                    END ADDRESS          $MEMORY     01-$MEMO
000005C6 5020 D098               00000098    468+         ST    R2,DWD                  END ADDRESS          $MEMORY     01-$MEMO
000005CA 8800 000A               0000000A    469+         SRL   R0,010                  SIZE  IN "K"         $MEMORY     01-$MEMO
000005CE 8810 000A               0000000A    470+         SRL   R1,010                  START IN "K"         $MEMORY     01-$MEMO
000005D2 8820 000A               0000000A    471+         SRL   R2,010                  END   IN "K"         $MEMORY     01-$MEMO
000005D6 4DE0 B3E8               000003E8    472+         BAS   R14,$STRING  R507       CALL @STRING SUB-ROUTINE         02-STRIN
000005DA 0677                                473+         DC    AL2((IHB0027P-*)/2)     OFFSET TO FIELD DESCRIPTORS      02-STRIN
000012C8                00001132 00000000    474+$LITERAL LOCTR                         NON-ADDRESSABLE CONSTANTS        02-STRIN
000012C8 A0000064                            475+IHB0027P DC    S(LINE,L'LINE)                                           02-STRIN
000012CC 000000044000                        476+         DC    AL2(0,4,16384)          BLANKS                           02-STRIN
000012D2 0877000A4000                        477+         DC    AL2($LIT1019-*,L'$LIT1019,16384)                         02-STRIN
000012D8 000000024000                        478+         DC    AL2(0,2,16384)          BLANKS                           02-STRIN
000012DE 801800040800                        479+         DC    S(PQEREGN,L'PQEREGN),AL1(8,0)                            02-STRIN
000012E4 000100000108                        480+         DC    S((R1),0),AL1(1,8)                                       02-STRIN
000012EA 07BB00014000                        481+         DC    AL2($LIT1007-*,L'$LIT1007,16384)                         02-STRIN
000012F0 000000054000                        482+         DC    AL2(0,5,16384)          BLANKS                           02-STRIN
000012F6 D09800040800                        483+         DC    S(DWD,4),AL1(8,0)                                        02-STRIN
000012FC 000200000107                        484+         DC    S((R2),0),AL1(1,7)                                       02-STRIN
00001302 07A300014000                        485+         DC    AL2($LIT1007-*,L'$LIT1007,16384)                         02-STRIN
00001308 000000000108                        486+         DC    S((R0),0),AL1(1,8)                                       02-STRIN
0000130E 07970001C000                        487+         DC    AL2($LIT1007-*,L'$LIT1007,49152)                         02-STRIN
000005DC                000003F4 00000000    488+$FARRTNE LOCTR                                                          02-STRIN
000005DC 41A0 A064               00000064    489+         LA    R10,NEXTLINE                                 $MEMORY     01-$MEMO
000005E0 45E0 B1AE               000001AE    490          BAL   R14,SPACE1
                                             491 *
                                             492 * PRIVATE USER AREA
                                             493 *
                                             494         $MEMORY '----------',PASTRT,,PASIZE                       <38J>
000005E4 5810 7010               00000010    495+         L     R1,PASTRT               START ADDRESS        $MEMORY     01-$MEMO
000005E8 5800 7014               00000014    496+         L     R0,PASIZE               SIZE IN BYTES        $MEMORY     01-$MEMO
000005EC 1820                                497+         LR    R2,R0                   SIZE IN BYTES        $MEMORY     01-$MEMO
000005EE 1A21                                498+         AR    R2,R1                   END ADDRESS          $MEMORY     01-$MEMO
000005F0 0620                                499+         BCTR  R2,0                    END ADDRESS          $MEMORY     01-$MEMO
000005F2 5020 D098               00000098    500+         ST    R2,DWD                  END ADDRESS          $MEMORY     01-$MEMO
000005F6 8800 000A               0000000A    501+         SRL   R0,010                  SIZE  IN "K"         $MEMORY     01-$MEMO
000005FA 8810 000A               0000000A    502+         SRL   R1,010                  START IN "K"         $MEMORY     01-$MEMO
000005FE 8820 000A               0000000A    503+         SRL   R2,010                  END   IN "K"         $MEMORY     01-$MEMO
00000602 4DE0 B3E8               000003E8    504+         BAS   R14,$STRING  R507       CALL @STRING SUB-ROUTINE         02-STRIN
00000606 0687                                505+         DC    AL2((IHB0029P-*)/2)     OFFSET TO FIELD DESCRIPTORS      02-STRIN
00001314                00001132 00000000    506+$LITERAL LOCTR                         NON-ADDRESSABLE CONSTANTS        02-STRIN
00001314 A0000064                            507+IHB0029P DC    S(LINE,L'LINE)                                           02-STRIN
00001318 000000044000                        508+         DC    AL2(0,4,16384)          BLANKS                           02-STRIN
0000131E 080D000A4000                        509+         DC    AL2($LIT1016-*,L'$LIT1016,16384)                         02-STRIN
00001324 000000024000                        510+         DC    AL2(0,2,16384)          BLANKS                           02-STRIN
0000132A 701000040800                        511+         DC    S(PASTRT,L'PASTRT),AL1(8,0)                              02-STRIN
00001330 000100000108                        512+         DC    S((R1),0),AL1(1,8)                                       02-STRIN
00001336 076F00014000                        513+         DC    AL2($LIT1007-*,L'$LIT1007,16384)                         02-STRIN
0000133C 000000054000                        514+         DC    AL2(0,5,16384)          BLANKS                           02-STRIN
00001342 D09800040800                        515+         DC    S(DWD,4),AL1(8,0)                                        02-STRIN
00001348 000200000107                        516+         DC    S((R2),0),AL1(1,7)                                       02-STRIN
0000134E 075700014000                        517+         DC    AL2($LIT1007-*,L'$LIT1007,16384)                         02-STRIN
00001354 000000000108                        518+         DC    S((R0),0),AL1(1,8)                                       02-STRIN
0000135A 074B0001C000                        519+         DC    AL2($LIT1007-*,L'$LIT1007,49152)                         02-STRIN
00000608                000003F4 00000000    520+$FARRTNE LOCTR                                                          02-STRIN
00000608 41A0 A064               00000064    521+         LA    R10,NEXTLINE                                 $MEMORY     01-$MEMO
0000060C 5BA0 B328               00000328    522          S     R10,=A(L$LINE)
00000610 D208 A000 B368 00000000 00000368    523          MVC   LINE(9),=C'  PRIVATE'
00000616 45E0 B1AA               000001AA    524          BAL   R14,SPACE2
                                             525 *
                                             526 *       $MEMORY '      LSQA',???????,,???????                     <38J>
                                             527 *       $MEMORY '       SWA',???????,,???????                     <38J>
                                             528 *
0000061A 5890 0224               00000224    529          L     R9,PSAAOLD              PSA -> CURRENT ASCB
                        00000000             530          USING ASCB,R9
0000061E 5890 9030               00000030    531          L     R9,ASCBLDA              ASCB -> LDA
                        00000000             532          USING LDA,R9
00000622 5880 9008               00000008    533          L     R8,ASDPQE               LDA -> ADDR SPACE RGN PQE  <38J>
                        00000000             534          USING PQESECT,R8                                         <38J>
                                             535         $MEMORY 'V=V REGION',PQEREGN,,PQESIZE                     <38J>
00000626 5810 8018               00000018    536+         L     R1,PQEREGN              START ADDRESS        $MEMORY     01-$MEMO
0000062A 5800 8014               00000014    537+         L     R0,PQESIZE              SIZE IN BYTES        $MEMORY     01-$MEMO
0000062E 1820                                538+         LR    R2,R0                   SIZE IN BYTES        $MEMORY     01-$MEMO
00000630 1A21                                539+         AR    R2,R1                   END ADDRESS          $MEMORY     01-$MEMO
00000632 0620                                540+         BCTR  R2,0                    END ADDRESS          $MEMORY     01-$MEMO
00000634 5020 D098               00000098    541+         ST    R2,DWD                  END ADDRESS          $MEMORY     01-$MEMO
00000638 8800 000A               0000000A    542+         SRL   R0,010                  SIZE  IN "K"         $MEMORY     01-$MEMO
0000063C 8810 000A               0000000A    543+         SRL   R1,010                  START IN "K"         $MEMORY     01-$MEMO
00000640 8820 000A               0000000A    544+         SRL   R2,010                  END   IN "K"         $MEMORY     01-$MEMO
00000644 4DE0 B3E8               000003E8    545+         BAS   R14,$STRING  R507       CALL @STRING SUB-ROUTINE         02-STRIN
00000648 068C                                546+         DC    AL2((IHB0031P-*)/2)     OFFSET TO FIELD DESCRIPTORS      02-STRIN
00001360                00001132 00000000    547+$LITERAL LOCTR                         NON-ADDRESSABLE CONSTANTS        02-STRIN
00001360 A0000064                            548+IHB0031P DC    S(LINE,L'LINE)                                           02-STRIN
00001364 000000044000                        549+         DC    AL2(0,4,16384)          BLANKS                           02-STRIN
0000136A 07E9000A4000                        550+         DC    AL2($LIT1020-*,L'$LIT1020,16384)                         02-STRIN
00001370 000000024000                        551+         DC    AL2(0,2,16384)          BLANKS                           02-STRIN
00001376 801800040800                        552+         DC    S(PQEREGN,L'PQEREGN),AL1(8,0)                            02-STRIN
0000137C 000100000108                        553+         DC    S((R1),0),AL1(1,8)                                       02-STRIN
00001382 072300014000                        554+         DC    AL2($LIT1007-*,L'$LIT1007,16384)                         02-STRIN
00001388 000000054000                        555+         DC    AL2(0,5,16384)          BLANKS                           02-STRIN
0000138E D09800040800                        556+         DC    S(DWD,4),AL1(8,0)                                        02-STRIN
00001394 000200000107                        557+         DC    S((R2),0),AL1(1,7)                                       02-STRIN
0000139A 070B00014000                        558+         DC    AL2($LIT1007-*,L'$LIT1007,16384)                         02-STRIN
000013A0 000000000108                        559+         DC    S((R0),0),AL1(1,8)                                       02-STRIN
000013A6 06FF0001C000                        560+         DC    AL2($LIT1007-*,L'$LIT1007,49152)                         02-STRIN
0000064A                000003F4 00000000    561+$FARRTNE LOCTR                                                          02-STRIN
0000064A 41A0 A064               00000064    562+         LA    R10,NEXTLINE                                 $MEMORY     01-$MEMO
                                             563 *
0000064E 5880 700C               0000000C    564          L     R8,VRPQEP               GDA -> ALLOWABLE V=R       <38J>
                        00000000             565          USING PQESECT,R8                                         <38J>
                                             566         $MEMORY 'V=R REGION',PQEREGN,,PQESIZE                     <38J>
00000652 5810 8018               00000018    567+         L     R1,PQEREGN              START ADDRESS        $MEMORY     01-$MEMO
00000656 5800 8014               00000014    568+         L     R0,PQESIZE              SIZE IN BYTES        $MEMORY     01-$MEMO
0000065A 1820                                569+         LR    R2,R0                   SIZE IN BYTES        $MEMORY     01-$MEMO
0000065C 1A21                                570+         AR    R2,R1                   END ADDRESS          $MEMORY     01-$MEMO
0000065E 0620                                571+         BCTR  R2,0                    END ADDRESS          $MEMORY     01-$MEMO
00000660 5020 D098               00000098    572+         ST    R2,DWD                  END ADDRESS          $MEMORY     01-$MEMO
00000664 8800 000A               0000000A    573+         SRL   R0,010                  SIZE  IN "K"         $MEMORY     01-$MEMO
00000668 8810 000A               0000000A    574+         SRL   R1,010                  START IN "K"         $MEMORY     01-$MEMO
0000066C 8820 000A               0000000A    575+         SRL   R2,010                  END   IN "K"         $MEMORY     01-$MEMO
00000670 4DE0 B3E8               000003E8    576+         BAS   R14,$STRING  R507       CALL @STRING SUB-ROUTINE         02-STRIN
00000674 069C                                577+         DC    AL2((IHB0033P-*)/2)     OFFSET TO FIELD DESCRIPTORS      02-STRIN
000013AC                00001132 00000000    578+$LITERAL LOCTR                         NON-ADDRESSABLE CONSTANTS        02-STRIN
000013AC A0000064                            579+IHB0033P DC    S(LINE,L'LINE)                                           02-STRIN
000013B0 000000044000                        580+         DC    AL2(0,4,16384)          BLANKS                           02-STRIN
000013B6 07A7000A4000                        581+         DC    AL2($LIT1021-*,L'$LIT1021,16384)                         02-STRIN
000013BC 000000024000                        582+         DC    AL2(0,2,16384)          BLANKS                           02-STRIN
000013C2 801800040800                        583+         DC    S(PQEREGN,L'PQEREGN),AL1(8,0)                            02-STRIN
000013C8 000100000108                        584+         DC    S((R1),0),AL1(1,8)                                       02-STRIN
000013CE 06D700014000                        585+         DC    AL2($LIT1007-*,L'$LIT1007,16384)                         02-STRIN
000013D4 000000054000                        586+         DC    AL2(0,5,16384)          BLANKS                           02-STRIN
000013DA D09800040800                        587+         DC    S(DWD,4),AL1(8,0)                                        02-STRIN
000013E0 000200000107                        588+         DC    S((R2),0),AL1(1,7)                                       02-STRIN
000013E6 06BF00014000                        589+         DC    AL2($LIT1007-*,L'$LIT1007,16384)                         02-STRIN
000013EC 000000000108                        590+         DC    S((R0),0),AL1(1,8)                                       02-STRIN
000013F2 06B30001C000                        591+         DC    AL2($LIT1007-*,L'$LIT1007,49152)                         02-STRIN
00000676                000003F4 00000000    592+$FARRTNE LOCTR                                                          02-STRIN
00000676 41A0 A064               00000064    593+         LA    R10,NEXTLINE                                 $MEMORY     01-$MEMO
                                             594 *
0000067A 5880 95C4               000005C4    595          L     R8,LDASRPQE             LDA -> SYSTEM REGION PQE   <38J>
                        00000000             596          USING PQESECT,R8                                         <38J>
                                             597         $MEMORY 'SYS REGION',PQEREGN,,PQESIZE                     <38J>
0000067E 5810 8018               00000018    598+         L     R1,PQEREGN              START ADDRESS        $MEMORY     01-$MEMO
00000682 5800 8014               00000014    599+         L     R0,PQESIZE              SIZE IN BYTES        $MEMORY     01-$MEMO
00000686 1820                                600+         LR    R2,R0                   SIZE IN BYTES        $MEMORY     01-$MEMO
00000688 1A21                                601+         AR    R2,R1                   END ADDRESS          $MEMORY     01-$MEMO
0000068A 0620                                602+         BCTR  R2,0                    END ADDRESS          $MEMORY     01-$MEMO
0000068C 5020 D098               00000098    603+         ST    R2,DWD                  END ADDRESS          $MEMORY     01-$MEMO
00000690 8800 000A               0000000A    604+         SRL   R0,010                  SIZE  IN "K"         $MEMORY     01-$MEMO
00000694 8810 000A               0000000A    605+         SRL   R1,010                  START IN "K"         $MEMORY     01-$MEMO
00000698 8820 000A               0000000A    606+         SRL   R2,010                  END   IN "K"         $MEMORY     01-$MEMO
0000069C 4DE0 B3E8               000003E8    607+         BAS   R14,$STRING  R507       CALL @STRING SUB-ROUTINE         02-STRIN
000006A0 06AC                                608+         DC    AL2((IHB0035P-*)/2)     OFFSET TO FIELD DESCRIPTORS      02-STRIN
000013F8                00001132 00000000    609+$LITERAL LOCTR                         NON-ADDRESSABLE CONSTANTS        02-STRIN
000013F8 A0000064                            610+IHB0035P DC    S(LINE,L'LINE)                                           02-STRIN
000013FC 000000044000                        611+         DC    AL2(0,4,16384)          BLANKS                           02-STRIN
00001402 0765000A4000                        612+         DC    AL2($LIT1022-*,L'$LIT1022,16384)                         02-STRIN
00001408 000000024000                        613+         DC    AL2(0,2,16384)          BLANKS                           02-STRIN
0000140E 801800040800                        614+         DC    S(PQEREGN,L'PQEREGN),AL1(8,0)                            02-STRIN
00001414 000100000108                        615+         DC    S((R1),0),AL1(1,8)                                       02-STRIN
0000141A 068B00014000                        616+         DC    AL2($LIT1007-*,L'$LIT1007,16384)                         02-STRIN
00001420 000000054000                        617+         DC    AL2(0,5,16384)          BLANKS                           02-STRIN
00001426 D09800040800                        618+         DC    S(DWD,4),AL1(8,0)                                        02-STRIN
0000142C 000200000107                        619+         DC    S((R2),0),AL1(1,7)                                       02-STRIN
00001432 067300014000                        620+         DC    AL2($LIT1007-*,L'$LIT1007,16384)                         02-STRIN
00001438 000000000108                        621+         DC    S((R0),0),AL1(1,8)                                       02-STRIN
0000143E 06670001C000                        622+         DC    AL2($LIT1007-*,L'$LIT1007,49152)                         02-STRIN
000006A2                000003F4 00000000    623+$FARRTNE LOCTR                                                          02-STRIN
000006A2 41A0 A064               00000064    624+         LA    R10,NEXTLINE                                 $MEMORY     01-$MEMO
000006A6 45E0 B1AE               000001AE    625          BAL   R14,SPACE1
                                             626 *
                                             627 * NUCLEUS/SYSTEM AREA
                                             628 *
000006AA 1FEE                                629          SLR   R14,R14                 ADDRESS 0
000006AC 50E0 D390               00000390    630          ST    R14,DY8WORD1
000006B0 58E0 3080               00000180    631          L     R14,CVTNUCB             LOWEST ADDR NOT IN NUC
000006B4 06E0                                632          BCTR  R14,0                   LAST ADDR IN NUC
000006B6 50E0 D394               00000394    633          ST    R14,DY8WORD2
                                             634         $MEMORY '----------',DY8WORD1,DY8WORD2                    <38J>
000006BA 5810 D390               00000390    635+         L     R1,DY8WORD1             START ADDRESS        $MEMORY     01-$MEMO
000006BE 5820 D394               00000394    636+         L     R2,DY8WORD2             END ADDRESS          $MEMORY     01-$MEMO
000006C2 4100 0001               00000001    637+         LA    R0,0001                 ONE BYTE             $MEMORY     01-$MEMO
000006C6 1E02                                638+         ALR   R0,R2                   END ADDRESS          $MEMORY     01-$MEMO
000006C8 1F01                                639+         SLR   R0,R1                   SIZE IN BYTES        $MEMORY     01-$MEMO
000006CA 8800 000A               0000000A    640+.CC      SRL   R0,010                  SIZE  IN "K"         $MEMORY     01-$MEMO
000006CE 8810 000A               0000000A    641+         SRL   R1,010                  START IN "K"         $MEMORY     01-$MEMO
000006D2 8820 000A               0000000A    642+         SRL   R2,010                  END   IN "K"         $MEMORY     01-$MEMO
000006D6 4DE0 B3E8               000003E8    643+         BAS   R14,$STRING  R507       CALL @STRING SUB-ROUTINE         02-STRIN
000006DA 06B5                                644+         DC    AL2((IHB0037P-*)/2)     OFFSET TO FIELD DESCRIPTORS      02-STRIN
00001444                00001132 00000000    645+$LITERAL LOCTR                         NON-ADDRESSABLE CONSTANTS        02-STRIN
00001444 A0000064                            646+IHB0037P DC    S(LINE,L'LINE)                                           02-STRIN
00001448 000000044000                        647+         DC    AL2(0,4,16384)          BLANKS                           02-STRIN
0000144E 06DD000A4000                        648+         DC    AL2($LIT1016-*,L'$LIT1016,16384)                         02-STRIN
00001454 000000024000                        649+         DC    AL2(0,2,16384)          BLANKS                           02-STRIN
0000145A D39000040800                        650+         DC    S(DY8WORD1,L'DY8WORD1),AL1(8,0)                          02-STRIN
00001460 000100000108                        651+         DC    S((R1),0),AL1(1,8)                                       02-STRIN
00001466 063F00014000                        652+         DC    AL2($LIT1007-*,L'$LIT1007,16384)                         02-STRIN
0000146C 000000054000                        653+         DC    AL2(0,5,16384)          BLANKS                           02-STRIN
00001472 D39400040800                        654+         DC    S(DY8WORD2,4),AL1(8,0)                                   02-STRIN
00001478 000200000107                        655+         DC    S((R2),0),AL1(1,7)                                       02-STRIN
0000147E 062700014000                        656+         DC    AL2($LIT1007-*,L'$LIT1007,16384)                         02-STRIN
00001484 000000000108                        657+         DC    S((R0),0),AL1(1,8)                                       02-STRIN
0000148A 061B0001C000                        658+         DC    AL2($LIT1007-*,L'$LIT1007,49152)                         02-STRIN
000006DC                000003F4 00000000    659+$FARRTNE LOCTR                                                          02-STRIN
000006DC 41A0 A064               00000064    660+         LA    R10,NEXTLINE                                 $MEMORY     01-$MEMO
000006E0 5BA0 B328               00000328    661          S     R10,=A(L$LINE)
000006E4 D208 A000 B371 00000000 00000371    662          MVC   LINE(9),=C'  NUCLEUS'
                                             663 *        BAL   R14,SPACE1
                                             664 *       $MEMORY '   NUC-EXT',????????,????????                    <38J>
                                             665 *       $MEMORY '      FLPA',????????,????????                    <38J>
                                             666 *       $MEMORY '    F-BLDL',????????,????????                    <38J>
                                             667 *       $MEMORY '   NUCLEUS',????????,????????                    <38J>
                                             668 **
                                             669 **
                                             670 **       STRING 'LDA->',((R9),,X),INTO=LINE
000006EA 45E0 B1AA               000001AA    671          BAL   R14,SPACE2
                                             672          DROP  R7                      GDA                        <38J>
                                             673          DROP  R8                      PQE                        <38J>
                                             674          DROP  R9
                                             675          P$END
000006EE 58E0 D0E4               000000E4    676+PEND0017 L     R14,P$END               RETURN ADDR                MACRO 01-P$END
000006F2 07FE                                677+         BR    R14                                                MACRO 01-P$END
                                             678+         DROP  R12                     SET BY P$BEGIN        <38J>MACRO 01-P$END
                                             679 *
                                             680 *8      $MEMORY '   MLPA   ',CVTEMLPS,CVTEMLPE
                                             681 *8      $MEMORY '   FLPA   ',CVTFLPAS,CVTFLPAE
000006F4 00000000                            682 ADDR0    DC    A(0)                    VIRTUAL ADDR ZERO          <38J>
                                                                                                                           Page   10 
  ACTIVE USINGS: PSA,R0  CVTMAP,R3  TCB,R4  UCBOB,R5  LINE,R10  BASEADDR,R11  DYN,R13  
  Loc    Object Code      Addr1    Addr2    Stmt  Source Statement                                    DASM V1.75.00 2004/12/29 15:27 
                                             684 *----------------------------------------------------------------------
                                             685 *        DSNAME OF THE MASTER CATALOG
                                             686 *----------------------------------------------------------------------
                                             687 * NOTE: OLD CODE SIMPLY REMOVED (NOT COMMENTED OUT) IN THIS CODE  <38J>
                        00000014             688 CBSCAXCN EQU   X'14'                   AMCBS OFFSET TO CAXWA CHAIN<38J>
                        0000001C             689 CAXUCB   EQU   X'1C'                   CAXWA OFFSET TO UCB        <38J>
                        00000034             690 CAXCNAM  EQU   X'34'                   CAXWA OFFSET TO CAT NAME   <38J>
                                             691 *
                                             692 MASTRCAT P$BEGIN ,
000000F8                000000E0 00000000    693+$LTORG   LOCTR                         ADDRESSABLE CODE           MACRO 01-P$BEG
000000F8 45F0 B35C               0000035C    694+MASTRCAT BAL   R15,=X'4AF0,F000,07FF'  ADD HWORD OFFSET, BR FAR   MACRO 01-P$BEG
000000FC 0604                                695+         DC    Y(PROC0039-*)           OFFSET TO FAR ROUTINE      MACRO 01-P$BEG
000006F8                000003F4 00000000    696+$FARRTNE LOCTR                         FAR ROUTINES               MACRO 01-P$BEG
000006F8                                     697+         DS    0D                                            <38J>MACRO 01-P$BEG
000006F8 D4C1E2E3D9C3C1E3                    698+         DC    CL8'MASTRCAT'                                 <38J>MACRO 01-P$BEG
00000700 05C0                                699+PROC0039 BALR  R12,0                   LOCAL BASE                 MACRO 01-P$BEG
                        00000702             700+         USING *,R12                   DROPPED BY P$END           MACRO 01-P$BEG
00000702 41F0 C032               00000734    701+         LA    R15,PEND0039            LOAD RETRY ADDRESS         MACRO 01-P$BEG
00000706 90EF D0E4               000000E4    702+         STM   R14,R15,P$END           RETURN/RETRY ADDRESSES     MACRO 01-P$BEG
0000070A 5850 3100               00000200    703          L     R5,CVTCBSP              @ AMCBS
0000070E 5860 5014               00000014    704          L     R6,CBSCAXCN(,R5)        @ CAXWA CHAIN              <38J>
                                             705 *
00000712                                     706 CATLOOP  DS    0H
00000712 5870 601C               0000001C    707          L     R7,CAXUCB(,R6)          UCB ADDR                   <38J>
                        00000040             708          USING UCBOB,R7
                                             709 *                                      MCAT AT END OF CAXWA CHAIN <38J>
00000716 D203 D178 7010 00000178 00000050    710          MVC   UNITNAME+8(4),UCBTYP    DEVICE TYPE
                                             711 *8<TMP>  BAL   R14,GETUNIT             GET UNITNAME
                                             712 *                                      KEEP OVERLAYING, MCAT LAST CAXWA
0000071C D263 A000 D0FC 00000000 000000FC    713          MVC   LINE,BLANKS                                        <38J>
                                             714          STRING 'MASTER CATALOG:',                                     +
                                                                '  DSN=',(X'034'(R6),44,T),                             +
                                                                ' CUU=',UCBNAME,                                        +
                                                                ' VOLSER=',UCBVOLI,INTO=LINE
00000722 4DE0 B3E8               000003E8    715+         BAS   R14,$STRING  R507       CALL @STRING SUB-ROUTINE         01-STRIN
00000726 06B5                                716+         DC    AL2((IHB0040P-*)/2)     OFFSET TO FIELD DESCRIPTORS      01-STRIN
00001490                00001132 00000000    717+$LITERAL LOCTR                         NON-ADDRESSABLE CONSTANTS        01-STRIN
00001490 A0000064                            718+IHB0040P DC    S(LINE,L'LINE)                                           01-STRIN
00001494 06DD000F4000                        719+         DC    AL2($LIT1023-*,L'$LIT1023,16384)                         01-STRIN
0000149A 06E600064000                        720+         DC    AL2($LIT1024-*,L'$LIT1024,16384)                         01-STRIN
000014A0 6034002C0080                        721+         DC    S(X'034'(R6),44),AL1(0,128)                              01-STRIN
000014A6 06E000054000                        722+         DC    AL2($LIT1025-*,L'$LIT1025,16384)                         01-STRIN
000014AC 700D00030000                        723+         DC    S(UCBNAME,L'UCBNAME),AL1(0,0)                            01-STRIN
000014B2 06D900084000                        724+         DC    AL2($LIT1026-*,L'$LIT1026,16384)                         01-STRIN
000014B8 701C00068000                        725+         DC    S(UCBVOLI,L'UCBVOLI),AL1(128,0)                          01-STRIN
00000728                000003F4 00000000    726+$FARRTNE LOCTR                                                          01-STRIN
00000728 BF6F 6004               00000004    727          ICM   R6,15,4(R6)             @ NEXT CAXWA, IF ANY       <38J>
0000072C 4770 C010               00000712    728          BNZ   CATLOOP                                            <38J>
00000730 45E0 B1AA               000001AA    729          BAL   R14,SPACE2                                         <38J>
                                             730          P$END
00000734 58E0 D0E4               000000E4    731+PEND0039 L     R14,P$END               RETURN ADDR                MACRO 01-P$END
00000738 07FE                                732+         BR    R14                                                MACRO 01-P$END
                                             733+         DROP  R12                     SET BY P$BEGIN        <38J>MACRO 01-P$END
                                             734          DROP  R7                      UCBOB
                                                                                                                           Page   11 
  ACTIVE USINGS: PSA,R0  CVTMAP,R3  TCB,R4  UCBOB,R5  LINE,R10  BASEADDR,R11  DYN,R13  
  Loc    Object Code      Addr1    Addr2    Stmt  Source Statement                                    DASM V1.75.00 2004/12/29 15:27 
                                             736 *----------------------------------------------------------------------
                                             737 *        DISPLAY PAGE DATA SETS
                                             738 *----------------------------------------------------------------------
                                             739 PAGEDS   P$BEGIN ,
000000FE                000000E0 00000000    740+$LTORG   LOCTR                         ADDRESSABLE CODE           MACRO 01-P$BEG
000000FE 45F0 B35C               0000035C    741+PAGEDS   BAL   R15,=X'4AF0,F000,07FF'  ADD HWORD OFFSET, BR FAR   MACRO 01-P$BEG
00000102 0646                                742+         DC    Y(PROC0042-*)           OFFSET TO FAR ROUTINE      MACRO 01-P$BEG
0000073A                000003F4 00000000    743+$FARRTNE LOCTR                         FAR ROUTINES               MACRO 01-P$BEG
00000740                                     744+         DS    0D                                            <38J>MACRO 01-P$BEG
00000740 D7C1C7C5C4E24040                    745+         DC    CL8'PAGEDS'                                   <38J>MACRO 01-P$BEG
00000748 05C0                                746+PROC0042 BALR  R12,0                   LOCAL BASE                 MACRO 01-P$BEG
                        0000074A             747+         USING *,R12                   DROPPED BY P$END           MACRO 01-P$BEG
0000074A 41F0 C046               00000790    748+         LA    R15,PEND0042            LOAD RETRY ADDRESS         MACRO 01-P$BEG
0000074E 90EF D0E4               000000E4    749+         STM   R14,R15,P$END           RETURN/RETRY ADDRESSES     MACRO 01-P$BEG
                                             750          STRING 'PAGE DATA SETS:',INTO=LINE
00000752 4DE0 B3E8               000003E8    751+         BAS   R14,$STRING  R507       CALL @STRING SUB-ROUTINE         01-STRIN
00000756 06B4                                752+         DC    AL2((IHB0043P-*)/2)     OFFSET TO FIELD DESCRIPTORS      01-STRIN
000014BE                00001132 00000000    753+$LITERAL LOCTR                         NON-ADDRESSABLE CONSTANTS        01-STRIN
000014BE A0000064                            754+IHB0043P DC    S(LINE,L'LINE)                                           01-STRIN
000014C2 06D1000FC000                        755+         DC    AL2($LIT1027-*,L'$LIT1027,49152)                         01-STRIN
00000758                000003F4 00000000    756+$FARRTNE LOCTR                                                          01-STRIN
00000758 45E0 B1AA               000001AA    757          BAL   R14,SPACE2              BLANK LINE
0000075C 5890 32C0               000003C0    758          L     R9,CVTASMVT             POINT TO ASM VECTOR TABLE
00000760 5890 9008               00000008    759          L     R9,ASMPART-ASMVT(,R9)   POINT TO PAGE ACT REF TABLE
00000764 5810 9004               00000004    760          L     R1,PARTSIZE-PART(,R9)   NUMBER OF PART ENTRIES
00000768 5820 9018               00000018    761          L     R2,PARTDSNL-PART(,R9)   POINT TO 1ST PAGE DSN
                                             762 *LOOP
0000076C 9540 2000      00000000 00000040    763 PAGEDS1  CLI   0(R2),C' '              VALID DSN?
00000770 47D0 C03A               00000784    764          BNH   PAGEDS2                 NO, SKIP IT
00000774 D263 A000 D0FC 00000000 000000FC    765          MVC   LINE,BLANKS             BLANK LINE
0000077A D22B A002 2000 00000002 00000000    766          MVC   DSNAME,0(R2)            MOVE DSNAME
                                             767 *        MVI   VOLSER,C'?'             LOCATE WILL BE DONE LATER  <38J>
00000780 41A0 A064               00000064    768          LA    R10,NEXTLINE
00000784 4120 202C               0000002C    769 PAGEDS2  LA    R2,44(,R2)              NEXT DSN
00000788 4610 C022               0000076C    770          BCT   R1,PAGEDS1
                                             771 *ENDLOOP
0000078C 45E0 B1AE               000001AE    772          BAL   R14,SPACE1              BLANK LINE
                                             773          P$END
00000790 58E0 D0E4               000000E4    774+PEND0042 L     R14,P$END               RETURN ADDR                MACRO 01-P$END
00000794 07FE                                775+         BR    R14                                                MACRO 01-P$END
                                             776+         DROP  R12                     SET BY P$BEGIN        <38J>MACRO 01-P$END
                                                                                                                           Page   12 
  ACTIVE USINGS: PSA,R0  CVTMAP,R3  TCB,R4  UCBOB,R5  LINE,R10  BASEADDR,R11  DYN,R13  
  Loc    Object Code      Addr1    Addr2    Stmt  Source Statement                                    DASM V1.75.00 2004/12/29 15:27 
                                             778 *----------------------------------------------------------------------
                                             779 *        DISPLAY SMF DATA
                                             780 *----------------------------------------------------------------------
                                             781 SMFDATA  P$BEGIN ,
00000104                000000E0 00000000    782+$LTORG   LOCTR                         ADDRESSABLE CODE           MACRO 01-P$BEG
00000104 45F0 B35C               0000035C    783+SMFDATA  BAL   R15,=X'4AF0,F000,07FF'  ADD HWORD OFFSET, BR FAR   MACRO 01-P$BEG
00000108 0698                                784+         DC    Y(PROC0045-*)           OFFSET TO FAR ROUTINE      MACRO 01-P$BEG
00000796                000003F4 00000000    785+$FARRTNE LOCTR                         FAR ROUTINES               MACRO 01-P$BEG
00000798                                     786+         DS    0D                                            <38J>MACRO 01-P$BEG
00000798 E2D4C6C4C1E3C140                    787+         DC    CL8'SMFDATA'                                  <38J>MACRO 01-P$BEG
000007A0 05C0                                788+PROC0045 BALR  R12,0                   LOCAL BASE                 MACRO 01-P$BEG
                        000007A2             789+         USING *,R12                   DROPPED BY P$END           MACRO 01-P$BEG
000007A2 41F0 C016               000007B8    790+         LA    R15,PEND0045            LOAD RETRY ADDRESS         MACRO 01-P$BEG
000007A6 90EF D0E4               000000E4    791+         STM   R14,R15,P$END           RETURN/RETRY ADDRESSES     MACRO 01-P$BEG
000007AA 5860 30C4               000001C4    792          L     R6,CVTSMCA              SMF SMCA
                        00000000             793          USING SMCABASE,R6
                                             794 *8       STRING '  SID: ',SMCASID,'  JWT: ',SMCASJWT,INTO=LINE,    X
                                             795 *8             '   CVTSNAME: ',CVTSNAME  GRS
                                             796          STRING 'SMF SID: ',SMCASID,INTO=LINE                     <38J>
000007AE 4DE0 B3E8               000003E8    797+         BAS   R14,$STRING  R507       CALL @STRING SUB-ROUTINE         01-STRIN
000007B2 068B                                798+         DC    AL2((IHB0046P-*)/2)     OFFSET TO FIELD DESCRIPTORS      01-STRIN
000014C8                00001132 00000000    799+$LITERAL LOCTR                         NON-ADDRESSABLE CONSTANTS        01-STRIN
000014C8 A0000064                            800+IHB0046P DC    S(LINE,L'LINE)                                           01-STRIN
000014CC 06D600094000                        801+         DC    AL2($LIT1028-*,L'$LIT1028,16384)                         01-STRIN
000014D2 601000048000                        802+         DC    S(SMCASID,L'SMCASID),AL1(128,0)                          01-STRIN
000007B4                000003F4 00000000    803+$FARRTNE LOCTR                                                          01-STRIN
000007B4 45E0 B1AA               000001AA    804          BAL   R14,SPACE2              BLANK LINE
                                             805          P$END
000007B8 58E0 D0E4               000000E4    806+PEND0045 L     R14,P$END               RETURN ADDR                MACRO 01-P$END
000007BC 07FE                                807+         BR    R14                                                MACRO 01-P$END
                                             808+         DROP  R12                     SET BY P$BEGIN        <38J>MACRO 01-P$END
                                             809          DROP  R6                      SMCA
                                                                                                                           Page   13 
  ACTIVE USINGS: PSA,R0  CVTMAP,R3  TCB,R4  UCBOB,R5  LINE,R10  BASEADDR,R11  DYN,R13  
  Loc    Object Code      Addr1    Addr2    Stmt  Source Statement                                    DASM V1.75.00 2004/12/29 15:27 
                                                                                                                           Page   14 
  ACTIVE USINGS: PSA,R0  CVTMAP,R3  TCB,R4  UCBOB,R5  LINE,R10  BASEADDR,R11  DYN,R13  
  Loc    Object Code      Addr1    Addr2    Stmt  Source Statement                                    DASM V1.75.00 2004/12/29 15:27 
                                             812 *----------------------------------------------------------------------
                                             813 *        PRINT CVT FIELDS
                                             814 *----------------------------------------------------------------------
                                             815 SPLEVEL  P$BEGIN ,
0000010A                000000E0 00000000    816+$LTORG   LOCTR                         ADDRESSABLE CODE           MACRO 01-P$BEG
0000010A 45F0 B35C               0000035C    817+SPLEVEL  BAL   R15,=X'4AF0,F000,07FF'  ADD HWORD OFFSET, BR FAR   MACRO 01-P$BEG
0000010E 06BA                                818+         DC    Y(PROC0048-*)           OFFSET TO FAR ROUTINE      MACRO 01-P$BEG
000007BE                000003F4 00000000    819+$FARRTNE LOCTR                         FAR ROUTINES               MACRO 01-P$BEG
000007C0                                     820+         DS    0D                                            <38J>MACRO 01-P$BEG
000007C0 E2D7D3C5E5C5D340                    821+         DC    CL8'SPLEVEL'                                  <38J>MACRO 01-P$BEG
000007C8 05C0                                822+PROC0048 BALR  R12,0                   LOCAL BASE                 MACRO 01-P$BEG
                        000007CA             823+         USING *,R12                   DROPPED BY P$END           MACRO 01-P$BEG
000007CA 41F0 C008               000007D2    824+         LA    R15,PEND0048            LOAD RETRY ADDRESS         MACRO 01-P$BEG
000007CE 90EF D0E4               000000E4    825+         STM   R14,R15,P$END           RETURN/RETRY ADDRESSES     MACRO 01-P$BEG
                                             826          AGO   .XSPLVL           <38J>
                                             827 .XSPLVL  ANOP               <38J>
                                             828          P$END
000007D2 58E0 D0E4               000000E4    829+PEND0048 L     R14,P$END               RETURN ADDR                MACRO 01-P$END
000007D6 07FE                                830+         BR    R14                                                MACRO 01-P$END
                                             831+         DROP  R12                     SET BY P$BEGIN        <38J>MACRO 01-P$END
                                                                                                                           Page   15 
  ACTIVE USINGS: PSA,R0  CVTMAP,R3  TCB,R4  UCBOB,R5  LINE,R10  BASEADDR,R11  DYN,R13  
  Loc    Object Code      Addr1    Addr2    Stmt  Source Statement                                    DASM V1.75.00 2004/12/29 15:27 
                                             833 *----------------------------------------------------------------------
                                             834 *        TSO/E, DFDSS, HSM, RACF, VTAM
                                             835 *----------------------------------------------------------------------
                                             836 PRODUCTS P$BEGIN ,
00000110                000000E0 00000000    837+$LTORG   LOCTR                         ADDRESSABLE CODE           MACRO 01-P$BEG
00000110 45F0 B35C               0000035C    838+PRODUCTS BAL   R15,=X'4AF0,F000,07FF'  ADD HWORD OFFSET, BR FAR   MACRO 01-P$BEG
00000114 06CC                                839+         DC    Y(PROC0050-*)           OFFSET TO FAR ROUTINE      MACRO 01-P$BEG
000007D8                000003F4 00000000    840+$FARRTNE LOCTR                         FAR ROUTINES               MACRO 01-P$BEG
000007D8                                     841+         DS    0D                                            <38J>MACRO 01-P$BEG
000007D8 D7D9D6C4E4C3E3E2                    842+         DC    CL8'PRODUCTS'                                 <38J>MACRO 01-P$BEG
000007E0 05C0                                843+PROC0050 BALR  R12,0                   LOCAL BASE                 MACRO 01-P$BEG
                        000007E2             844+         USING *,R12                   DROPPED BY P$END           MACRO 01-P$BEG
000007E2 41F0 C06A               0000084C    845+         LA    R15,PEND0050            LOAD RETRY ADDRESS         MACRO 01-P$BEG
000007E6 90EF D0E4               000000E4    846+         STM   R14,R15,P$END           RETURN/RETRY ADDRESSES     MACRO 01-P$BEG
                                             847          STRING 'PRODUCTS:',INTO=LINE
000007EA 4DE0 B3E8               000003E8    848+         BAS   R14,$STRING  R507       CALL @STRING SUB-ROUTINE         01-STRIN
000007EE 0675                                849+         DC    AL2((IHB0051P-*)/2)     OFFSET TO FIELD DESCRIPTORS      01-STRIN
000014D8                00001132 00000000    850+$LITERAL LOCTR                         NON-ADDRESSABLE CONSTANTS        01-STRIN
000014D8 A0000064                            851+IHB0051P DC    S(LINE,L'LINE)                                           01-STRIN
000014DC 06CF0009C000                        852+         DC    AL2($LIT1029-*,L'$LIT1029,49152)                         01-STRIN
000007F0                000003F4 00000000    853+$FARRTNE LOCTR                                                          01-STRIN
000007F0 41A0 A064               00000064    854          LA    R10,NEXTLINE
                                             855          AGO   .XPROD    <38J>  SKIP CVTTVT
                                             856 .XPROD   ANOP              <38J>
                                             857 *
000007F4                                     858 DFDSS8   DS    0H
000007F4 BF7F 33DC               000004DC    859          ICM   R7,B'1111',CVTHSM       HSM VECTOR TABLE
000007F8 4780 C02C               0000080E    860          BZ    RACF00
                        00000000             861          USING MQCT,R7
000007FC 95D8 702C      0000002C 000000D8    862          CLI   MQCTID,C'Q'             CHECK CB ID
00000800 4770 C02C               0000080E    863          BNE   RACF00
                                             864          STRING '  DF/HSM LEVEL: ',MQCTVER,'.',MQCTREL,'.',MQCTMOD,   XX
                                                                INTO=LINE
00000804 4DE0 B3E8               000003E8    865+         BAS   R14,$STRING  R507       CALL @STRING SUB-ROUTINE         01-STRIN
00000808 066D                                866+         DC    AL2((IHB0052P-*)/2)     OFFSET TO FIELD DESCRIPTORS      01-STRIN
000014E2                00001132 00000000    867+$LITERAL LOCTR                         NON-ADDRESSABLE CONSTANTS        01-STRIN
000014E2 A0000064                            868+IHB0052P DC    S(LINE,L'LINE)                                           01-STRIN
000014E6 06CE00104000                        869+         DC    AL2($LIT1030-*,L'$LIT1030,16384)                         01-STRIN
000014EC 703000020000                        870+         DC    S(MQCTVER,L'MQCTVER),AL1(0,0)                            01-STRIN
000014F2 06D200014000                        871+         DC    AL2($LIT1031-*,L'$LIT1031,16384)                         01-STRIN
000014F8 703200010000                        872+         DC    S(MQCTREL,L'MQCTREL),AL1(0,0)                            01-STRIN
000014FE 06C600014000                        873+         DC    AL2($LIT1031-*,L'$LIT1031,16384)                         01-STRIN
00001504 703300018000                        874+         DC    S(MQCTMOD,L'MQCTMOD),AL1(128,0)                          01-STRIN
0000080A                000003F4 00000000    875+$FARRTNE LOCTR                                                          01-STRIN
0000080A 45E0 B1AA               000001AA    876          BAL   R14,SPACE2              BLANK LINE
                                             877 *
0000080E BF7F 33E0               000004E0    878 RACF00   ICM   R7,B'1111',CVTRAC       RACF VECTOR TABLE
00000812 4780 C056               00000838    879          BZ    RACF99
                        00000000             880          USING RCVT,R7
00000816 4300 70AC               000000AC    881          IC    R0,RCVTVERS             X'04' MEANS 1.4
0000081A 4110 00F0               000000F0    882          LA    R1,X'00F0'              X'04' MEANS 1.4
0000081E 1410                                883          NR    R1,R0                   R1=VERSION#-1
00000820 8810 0004               00000004    884          SRL   R1,004                  X'04' MEANS 1.4
00000824 4110 1001               00000001    885          LA    R1,1(,R1)               X'04' MEANS 1.4
00000828 4120 000F               0000000F    886          LA    R2,X'000F'              X'04' MEANS 1.4
0000082C 1420                                887          NR    R2,R0                   R2=RELEASE#
                                             888          STRING '  RACF LEVEL:   ',((R1),,L),'.',((R2),,L),INTO=LINE
0000082E 4DE0 B3E8               000003E8    889+         BAS   R14,$STRING  R507       CALL @STRING SUB-ROUTINE         01-STRIN
00000832 066C                                890+         DC    AL2((IHB0053P-*)/2)     OFFSET TO FIELD DESCRIPTORS      01-STRIN
0000150A                00001132 00000000    891+$LITERAL LOCTR                         NON-ADDRESSABLE CONSTANTS        01-STRIN
0000150A A0000064                            892+IHB0053P DC    S(LINE,L'LINE)                                           01-STRIN
0000150E 06B700104000                        893+         DC    AL2($LIT1032-*,L'$LIT1032,16384)                         01-STRIN
00001514 000100000180                        894+         DC    S((R1),0),AL1(1,128)                                     01-STRIN
0000151A 06AA00014000                        895+         DC    AL2($LIT1031-*,L'$LIT1031,16384)                         01-STRIN
00001520 000200008180                        896+         DC    S((R2),0),AL1(129,128)                                   01-STRIN
00000834                000003F4 00000000    897+$FARRTNE LOCTR                                                          01-STRIN
00000834 45E0 B1AA               000001AA    898          BAL   R14,SPACE2              BLANK LINE
                        00000838             899 RACF99   EQU   *
                                             900 *
00000838 5880 0408               00000408    901 VTAM00   L     R8,PSAATCVT             ADDR OF VTAM CVT
0000083C 1288                                902          LTR   R8,R8
0000083E 4780 C06A               0000084C    903          BZ    VTAM99
                                             904 *8       STRING '  VTAM LEVEL:   ',((R8),4),8X,((R8),,X),INTO=LINE
                                             905          STRING '  VTAM ACTIVE',INTO=LINE                         <38J>
00000842 4DE0 B3E8               000003E8    906+         BAS   R14,$STRING  R507       CALL @STRING SUB-ROUTINE         01-STRIN
00000846 0670                                907+         DC    AL2((IHB0054P-*)/2)     OFFSET TO FIELD DESCRIPTORS      01-STRIN
00001526                00001132 00000000    908+$LITERAL LOCTR                         NON-ADDRESSABLE CONSTANTS        01-STRIN
00001526 A0000064                            909+IHB0054P DC    S(LINE,L'LINE)                                           01-STRIN
0000152A 06AB000DC000                        910+         DC    AL2($LIT1033-*,L'$LIT1033,49152)                         01-STRIN
00000848                000003F4 00000000    911+$FARRTNE LOCTR                                                          01-STRIN
00000848 45E0 B1AA               000001AA    912          BAL   R14,SPACE2              BLANK LINE
0000084C                                     913 VTAM99   DS    0H
                                             914          P$END
0000084C 58E0 D0E4               000000E4    915+PEND0050 L     R14,P$END               RETURN ADDR                MACRO 01-P$END
00000850 07FE                                916+         BR    R14                                                MACRO 01-P$END
                                             917+         DROP  R12                     SET BY P$BEGIN        <38J>MACRO 01-P$END
                                                                                                                           Page   16 
  ACTIVE USINGS: PSA,R0  CVTMAP,R3  TCB,R4  UCBOB,R5  RCVT,R7  LINE,R10  BASEADDR,R11  DYN,R13  
  Loc    Object Code      Addr1    Addr2    Stmt  Source Statement                                    DASM V1.75.00 2004/12/29 15:27 
                                             919 *----------------------------------------------------------------------
                                             920 *        IDENTIFY SORT BY ITS REAL NAME
                                             921 *----------------------------------------------------------------------
                                             922 SORT     P$BEGIN ,
00000116                000000E0 00000000    923+$LTORG   LOCTR                         ADDRESSABLE CODE           MACRO 01-P$BEG
00000116 45F0 B35C               0000035C    924+SORT     BAL   R15,=X'4AF0,F000,07FF'  ADD HWORD OFFSET, BR FAR   MACRO 01-P$BEG
0000011A 0746                                925+         DC    Y(PROC0056-*)           OFFSET TO FAR ROUTINE      MACRO 01-P$BEG
00000852                000003F4 00000000    926+$FARRTNE LOCTR                         FAR ROUTINES               MACRO 01-P$BEG
00000858                                     927+         DS    0D                                            <38J>MACRO 01-P$BEG
00000858 E2D6D9E340404040                    928+         DC    CL8'SORT'                                     <38J>MACRO 01-P$BEG
00000860 05C0                                929+PROC0056 BALR  R12,0                   LOCAL BASE                 MACRO 01-P$BEG
                        00000862             930+         USING *,R12                   DROPPED BY P$END           MACRO 01-P$BEG
00000862 41F0 C0CA               0000092C    931+         LA    R15,PEND0056            LOAD RETRY ADDRESS         MACRO 01-P$BEG
00000866 90EF D0E4               000000E4    932+         STM   R14,R15,P$END           RETURN/RETRY ADDRESSES     MACRO 01-P$BEG
                                             933          LOAD  EPLOC=SORTNAME,ERRET=NOSORT  LOAD SORT UTILITY     <38J>
0000086A 0700           0000086C             934+         CNOP  0,4                                                      01-LOAD
0000086C 4100 C040               000008A2    935+         LA    0,SORTNAME         LOAD PARAMETER INTO REG 0             01-LOAD
00000870 5810 C016               00000878    936+         L     1,*+8              NO DCB, RETURN CODE REQUESTED         01-LOAD
00000874 47F0 C01A               0000087C    937+         B     *+8                BRANCH AROUND CONSTANT                01-LOAD
00000878 80000000                            938+         DC    X'80000000'        RETURN CODE REQUESTED                 01-LOAD
0000087C 0A08                    00000008    939+         SVC   8                                                        01-LOAD
0000087E 12FF                                940+         LTR   15,15              RETURN CODE TEST                      01-LOAD
00000880 4770 C0BA               0000091C    941+         BNZ   NOSORT           GO TO ERROR ROUTINE                     01-LOAD
00000884 5890 4024               00000044    942          L     R9,TCBLLS               POINT TO LAST LLE IN CHAIN
                        00000000             943          USING LLE,R9
                                             944 *LOOP
00000888 5860 9004               00000004    945 SORT21   L     R6,LLECDPT              CDE PTR
                        00000000             946          USING CDENTRY,R6
0000088C D507 C040 6008 000008A2 00000008    947          CLC   SORTNAME,CDNAME         IS IT SORT'S LLE?
00000892 4780 C050               000008B2    948          BE    SORT33                  YES, JUMP
00000896 BF9F 9000               00000000    949          ICM   R9,B'1111',LLECHN       CHECK FOR END OF CHAIN
0000089A 4770 C026               00000888    950          BNZ   SORT21                  LOOP THROUGH LOAD LIST
                                             951 *ENDLOOP
0000089E 47F0 C0C4               00000926    952          B     SORT99                  SOMETHING'S WRONG HERE
000008A2 E2D6D9E340404040                    953 SORTNAME DC    CL8'SORT'               NAME OF SORT PGM (ANY SORT)
000008AA C9C3C5D4C1D54040                    954 ICEMAN   DC    CL8'ICEMAN'             NAME OF SORT PGM (DFSORT)
000008B2 9104 601C      0000001C 00000004    955 SORT33   TM    CDATTR,CDMIN            IS THIS A MINOR CDE?
000008B6 47E0 C05C               000008BE    956          BNO   SORT36                  NO, JUMP
000008BA 5860 6014               00000014    957          L     R6,CDXLMJP              YES, POINT TO MAJOR CDE/LPDE
000008BE                                     958 SORT36   DS    0H
                                             959          STRING '  SORT''S TRUE NAME IS ',CDNAME,INTO=LINE
000008BE 4DE0 B3E8               000003E8    960+         BAS   R14,$STRING  R507       CALL @STRING SUB-ROUTINE         01-STRIN
000008C2 0637                                961+         DC    AL2((IHB0058P-*)/2)     OFFSET TO FIELD DESCRIPTORS      01-STRIN
00001530                00001132 00000000    962+$LITERAL LOCTR                         NON-ADDRESSABLE CONSTANTS        01-STRIN
00001530 A0000064                            963+IHB0058P DC    S(LINE,L'LINE)                                           01-STRIN
00001534 06AE00164000                        964+         DC    AL2($LIT1034-*,L'$LIT1034,16384)                         01-STRIN
0000153A 600800088000                        965+         DC    S(CDNAME,L'CDNAME),AL1(128,0)                            01-STRIN
000008C4                000003F4 00000000    966+$FARRTNE LOCTR                                                          01-STRIN
000008C4 D507 C040 6008 000008A2 00000008    967          CLC   SORTNAME,CDNAME         IS SORT'S NAME "SORT"?
000008CA 4770 C0C0               00000922    968          BNE   SORT98                  NO, QUIT
                                             969 * IF SORT'S TRUE NAME IS "SORT", DISPLAY THE FIRST 256 BYTES
                                             970 * OF THE LOAD-MODULE TO HELP WITH ITS IDENTIFICATION.
                                             971 *8       L     R7,LPDEXTAD-LPDE(,R6)   LOAD POINT ADDRESS (IF LPDE)
                                             972 *8       TM    CDATTRB,CDELPDE         IS THIS A LPDE?
                                             973 *8       BO    SORT42                  YES, JUMP
000008CE 5870 6014               00000014    974          L     R7,CDXLMJP              POINT TO XTLST
                                             975 *        L     R7,XTLMSBAD-XTLST(R7)   LOAD POINT     2004-12-n9gtm
000008D2 5877 000C               0000000C    976          L     R7,XTLMSBAA-XTLST(R7)   LOAD POINT     2004-12-n9gtm
000008D6                                     977 SORT42   DS    0H
                                             978          STRING (LINE,,T),'   (FIRST 256 BYTES FOLLOW)',INTO=LINE
000008D6 4DE0 B3E8               000003E8    979+         BAS   R14,$STRING  R507       CALL @STRING SUB-ROUTINE         01-STRIN
000008DA 0633                                980+         DC    AL2((IHB0059P-*)/2)     OFFSET TO FIELD DESCRIPTORS      01-STRIN
00001540                00001132 00000000    981+$LITERAL LOCTR                         NON-ADDRESSABLE CONSTANTS        01-STRIN
00001540 A0000064                            982+IHB0059P DC    S(LINE,L'LINE)                                           01-STRIN
00001544 A00000640080                        983+         DC    S(LINE,L'LINE),AL1(0,128)                                01-STRIN
0000154A 06AE001BC000                        984+         DC    AL2($LIT1035-*,L'$LIT1035,49152)                         01-STRIN
000008DC                000003F4 00000000    985+$FARRTNE LOCTR                                                          01-STRIN
000008DC 4190 A44C               0000044C    986          LA    R9,NEXTLINE+1000        POINT TO WORKING STORAGE
000008E0 D2FF 9000 7000 00000000 00000000    987          MVC   0(256,R9),0(R7)         MOVE TO WORKING STORAGE
000008E6 45E0 B2A8               000002A8    988          BAL   R14,NONPRINT            BUILD TRANSLATE TABLE
000008EA DCFF 9000 D39C 00000000 0000039C    989          TR    0(256,R9),WK256         GET RID OF NON-PRINTABLE CHARS
000008F0 45E0 B1AA               000001AA    990          BAL   R14,SPACE2              BLANK LINE
                                             991          STRING 8X,(000(R9),64),INTO=LINE
000008F4 4DE0 B3E8               000003E8    992+         BAS   R14,$STRING  R507       CALL @STRING SUB-ROUTINE         01-STRIN
000008F8 062C                                993+         DC    AL2((IHB0060P-*)/2)     OFFSET TO FIELD DESCRIPTORS      01-STRIN
00001550                00001132 00000000    994+$LITERAL LOCTR                         NON-ADDRESSABLE CONSTANTS        01-STRIN
00001550 A0000064                            995+IHB0060P DC    S(LINE,L'LINE)                                           01-STRIN
00001554 000000084000                        996+         DC    AL2(0,8,16384)          BLANKS                           01-STRIN
0000155A 900000408000                        997+         DC    S(000(R9),64),AL1(128,0)                                 01-STRIN
000008FA                000003F4 00000000    998+$FARRTNE LOCTR                                                          01-STRIN
000008FA 41A0 A064               00000064    999          LA    R10,NEXTLINE
                                            1000          STRING 8X,(064(R9),64),INTO=LINE
000008FE 4DE0 B3E8               000003E8   1001+         BAS   R14,$STRING  R507       CALL @STRING SUB-ROUTINE         01-STRIN
00000902 062F                               1002+         DC    AL2((IHB0061P-*)/2)     OFFSET TO FIELD DESCRIPTORS      01-STRIN
00001560                00001132 00000000   1003+$LITERAL LOCTR                         NON-ADDRESSABLE CONSTANTS        01-STRIN
00001560 A0000064                           1004+IHB0061P DC    S(LINE,L'LINE)                                           01-STRIN
00001564 000000084000                       1005+         DC    AL2(0,8,16384)          BLANKS                           01-STRIN
0000156A 904000408000                       1006+         DC    S(064(R9),64),AL1(128,0)                                 01-STRIN
00000904                000003F4 00000000   1007+$FARRTNE LOCTR                                                          01-STRIN
00000904 41A0 A064               00000064   1008          LA    R10,NEXTLINE
                                            1009          STRING 8X,(128(R9),64),INTO=LINE
00000908 4DE0 B3E8               000003E8   1010+         BAS   R14,$STRING  R507       CALL @STRING SUB-ROUTINE         01-STRIN
0000090C 0632                               1011+         DC    AL2((IHB0062P-*)/2)     OFFSET TO FIELD DESCRIPTORS      01-STRIN
00001570                00001132 00000000   1012+$LITERAL LOCTR                         NON-ADDRESSABLE CONSTANTS        01-STRIN
00001570 A0000064                           1013+IHB0062P DC    S(LINE,L'LINE)                                           01-STRIN
00001574 000000084000                       1014+         DC    AL2(0,8,16384)          BLANKS                           01-STRIN
0000157A 908000408000                       1015+         DC    S(128(R9),64),AL1(128,0)                                 01-STRIN
0000090E                000003F4 00000000   1016+$FARRTNE LOCTR                                                          01-STRIN
0000090E 41A0 A064               00000064   1017          LA    R10,NEXTLINE
                                            1018          STRING 8X,(192(R9),64),INTO=LINE
00000912 4DE0 B3E8               000003E8   1019+         BAS   R14,$STRING  R507       CALL @STRING SUB-ROUTINE         01-STRIN
00000916 0635                               1020+         DC    AL2((IHB0063P-*)/2)     OFFSET TO FIELD DESCRIPTORS      01-STRIN
00001580                00001132 00000000   1021+$LITERAL LOCTR                         NON-ADDRESSABLE CONSTANTS        01-STRIN
00001580 A0000064                           1022+IHB0063P DC    S(LINE,L'LINE)                                           01-STRIN
00001584 000000084000                       1023+         DC    AL2(0,8,16384)          BLANKS                           01-STRIN
0000158A 90C000408000                       1024+         DC    S(192(R9),64),AL1(128,0)                                 01-STRIN
00000918                000003F4 00000000   1025+$FARRTNE LOCTR                                                          01-STRIN
00000918 47F0 C0C0               00000922   1026          B     SORT98
                                            1027 *
0000091C                                    1028 NOSORT   DS    0H
                                            1029          STRING '  SORT NOT FOUND IN LINKLIST',INTO=LINE
0000091C 4DE0 B3E8               000003E8   1030+         BAS   R14,$STRING  R507       CALL @STRING SUB-ROUTINE         01-STRIN
00000920 0638                               1031+         DC    AL2((IHB0064P-*)/2)     OFFSET TO FIELD DESCRIPTORS      01-STRIN
00001590                00001132 00000000   1032+$LITERAL LOCTR                         NON-ADDRESSABLE CONSTANTS        01-STRIN
00001590 A0000064                           1033+IHB0064P DC    S(LINE,L'LINE)                                           01-STRIN
00001594 067F001CC000                       1034+         DC    AL2($LIT1036-*,L'$LIT1036,49152)                         01-STRIN
00000922                000003F4 00000000   1035+$FARRTNE LOCTR                                                          01-STRIN
                                            1036 *
00000922 45E0 B1AA               000001AA   1037 SORT98   BAL   R14,SPACE2              BLANK LINE
                                            1038 SORT99   DELETE EPLOC=SORTNAME         NOW GET RID OF IT
00000926                                    1039+SORT99   DS    0H                                                       02-IHBIN
00000926 4100 C040               000008A2   1040+         LA    0,SORTNAME                        LOAD PARAMETER REG 0   02-IHBIN
0000092A 0A09                    00000009   1041+.SVC     SVC   9                                 ISSUE DELETE SVC       01-DELET
                                            1042          P$END
0000092C 58E0 D0E4               000000E4   1043+PEND0056 L     R14,P$END               RETURN ADDR                MACRO 01-P$END
00000930 07FE                               1044+         BR    R14                                                MACRO 01-P$END
                                            1045+         DROP  R12                     SET BY P$BEGIN        <38J>MACRO 01-P$END
                                            1046          DROP  R6,R9                   CDENTRY,LLE
                                                                                                                           Page   17 
  ACTIVE USINGS: PSA,R0  CVTMAP,R3  TCB,R4  UCBOB,R5  RCVT,R7  LINE,R10  BASEADDR,R11  DYN,R13  
  Loc    Object Code      Addr1    Addr2    Stmt  Source Statement                                    DASM V1.75.00 2004/12/29 15:27 
                                            1048 *----------------------------------------------------------------------
                                            1049 *        UCB TABLE
                                            1050 *----------------------------------------------------------------------
                                            1051 DEVICES  P$BEGIN ,
0000011C                000000E0 00000000   1052+$LTORG   LOCTR                         ADDRESSABLE CODE           MACRO 01-P$BEG
0000011C 45F0 B35C               0000035C   1053+DEVICES  BAL   R15,=X'4AF0,F000,07FF'  ADD HWORD OFFSET, BR FAR   MACRO 01-P$BEG
00000120 0820                               1054+         DC    Y(PROC0068-*)           OFFSET TO FAR ROUTINE      MACRO 01-P$BEG
00000932                000003F4 00000000   1055+$FARRTNE LOCTR                         FAR ROUTINES               MACRO 01-P$BEG
00000938                                    1056+         DS    0D                                            <38J>MACRO 01-P$BEG
00000938 C4C5E5C9C3C5E240                   1057+         DC    CL8'DEVICES'                                  <38J>MACRO 01-P$BEG
00000940 05C0                               1058+PROC0068 BALR  R12,0                   LOCAL BASE                 MACRO 01-P$BEG
                        00000942            1059+         USING *,R12                   DROPPED BY P$END           MACRO 01-P$BEG
00000942 41F0 C0B8               000009FA   1060+         LA    R15,PEND0068            LOAD RETRY ADDRESS         MACRO 01-P$BEG
00000946 90EF D0E4               000000E4   1061+         STM   R14,R15,P$END           RETURN/RETRY ADDRESSES     MACRO 01-P$BEG
                                            1062          STRING 'ON-LINE DEVICES:',INTO=LINE
0000094A 4DE0 B3E8               000003E8   1063+         BAS   R14,$STRING  R507       CALL @STRING SUB-ROUTINE         01-STRIN
0000094E 0626                               1064+         DC    AL2((IHB0069P-*)/2)     OFFSET TO FIELD DESCRIPTORS      01-STRIN
0000159A                00001132 00000000   1065+$LITERAL LOCTR                         NON-ADDRESSABLE CONSTANTS        01-STRIN
0000159A A0000064                           1066+IHB0069P DC    S(LINE,L'LINE)                                           01-STRIN
0000159E 06910010C000                       1067+         DC    AL2($LIT1037-*,L'$LIT1037,49152)                         01-STRIN
00000950                000003F4 00000000   1068+$FARRTNE LOCTR                                                          01-STRIN
00000950 45E0 B1AA               000001AA   1069          BAL   R14,SPACE2              BLANK LINE
                                            1070          STRING '  CUU  UCBTYP    UNITNAME  VOLSER  STATUS',INTO=LINE
00000954 4DE0 B3E8               000003E8   1071+         BAS   R14,$STRING  R507       CALL @STRING SUB-ROUTINE         01-STRIN
00000958 0626                               1072+         DC    AL2((IHB0070P-*)/2)     OFFSET TO FIELD DESCRIPTORS      01-STRIN
000015A4                00001132 00000000   1073+$LITERAL LOCTR                         NON-ADDRESSABLE CONSTANTS        01-STRIN
000015A4 A0000064                           1074+IHB0070P DC    S(LINE,L'LINE)                                           01-STRIN
000015A8 06970029C000                       1075+         DC    AL2($LIT1038-*,L'$LIT1038,49152)                         01-STRIN
0000095A                000003F4 00000000   1076+$FARRTNE LOCTR                                                          01-STRIN
0000095A 45E0 B1AA               000001AA   1077          BAL   R14,SPACE2              BLANK LINE
0000095E D763 D39C D39C 0000039C 0000039C   1078          XC    WK256(100),WK256        CLEAR WORK AREA
00000964 D203 D39C 3028 0000039C 00000128   1079          MVC   WK256(4),CVTILK2        @ 1ST UCB HWORD PTR   <38J>
                                            1080 *LOOP
0000096A                                    1081 DEV_GET  DS    0H                                            <38J>
                                            1082 *                                                            <38J>
                                            1083 *8V_GET  LA    R14,WK256               WORK AREA FOR UCB SCAN RTN.
                                            1084 *8       LA    R15,CVTPTR              POINT TO X'00' IF CLASS=ALL
                                            1085 *8       LA    R0,TENWORDS+12          RETURNED UCB ADDRESS
                                            1086 *8       STM   R14,R0,TENWORDS         BUILD PARM LIST
                                            1087 *8       OI    TENWORDS+8,X'80'        MARK END OF LIST
                                            1088 *8       LA    R1,TENWORDS             PARAMETER LIST
                                            1089 *8       L     R15,CVTUCBSC            UCB SCAN ROUTINE
                                            1090 *8       BALR  R14,R15                 CALL THE UCBSCAN ROUTINE
                                            1091 *8       LTR   R15,R15
                                            1092 *8       BNZ   DEV_EOD
                                            1093 *8       L     R5,TENWORDS+12          LOAD R1 WITH ADDRESS OF UCB
                                            1094 *                                                             <38J>
0000096A 58E0 D39C               0000039C   1095          L     R14,WK256               @ UCB OR END-OF-TABLE  <38J>
0000096E D501 B348 E000 00000348 00000000   1096          CLC   =X'FFFF',0(R14)         END OF UCB LOOKUP TBL? <38J>
00000974 4780 C0B4               000009F6   1097          BE    DEV_EOD                 YES, BR                <38J>
00000978 1F55                               1098          SLR   R5,R5                                          <38J>
0000097A BF53 E000               00000000   1099          ICM   R5,3,0(R14)             @ UCB                  <38J>
0000097E 41E0 E002               00000002   1100          LA    R14,2(,R14)             @ NEXT UCB PTR         <38J>
00000982 50E0 D39C               0000039C   1101          ST    R14,WK256               FOR NEXT TIME          <38J>
                                            1102 *                                                             <38J>
00000986 9180 5003      00000043 00000080   1103          TM    UCBSTAT,UCBONLI         ONLINE UNITS ONLY
0000098A 47E0 C028               0000096A   1104          BNO   DEV_GET
                                            1105 *
0000098E D206 D160 D0FC 00000160 000000FC   1106          MVC   VOLMOUNT,BLANKS
00000994 D203 D178 5010 00000178 00000050   1107          MVC   UNITNAME+8(4),UCBTYP    DEVICE TYPE
0000099A 45E0 B18C               0000018C   1108          BAL   R14,GETUNIT             GET UNITNAME
0000099E 4110 D0FC               000000FC   1109 DEV_VOL  LA    R1,BLANKS               NO VOLSER UNLESS TAPE/DASD
000009A2 9580 5012      00000052 00000080   1110          CLI   UCBTBYT3,UCB3TAPE       TAPE?
000009A6 4780 C070               000009B2   1111          BE    DEV_VOL2                YES, JUMP
000009AA 9520 5012      00000052 00000020   1112          CLI   UCBTBYT3,UCB3DACC       DASD?
000009AE 4770 C0A6               000009E8   1113          BNE   DEV_PUN                 NO, JUMP
000009B2 9540 501C      0000005C 00000040   1114 DEV_VOL2 CLI   UCBVOLI,C' '            VALID VOLSER?
000009B6 47D0 C0A6               000009E8   1115          BNH   DEV_PUN                 NO, JUMP
000009BA 4110 501C               0000005C   1116          LA    R1,UCBVOLI              VOLSER FOR TAPE/DASD
000009BE 9520 5012      00000052 00000020   1117          CLI   UCBTBYT3,UCB3DACC       DASD?
000009C2 4770 C0A6               000009E8   1118          BNE   DEV_PUN                 NO, JUMP
                                            1119 *8       MVC   VOLMOUNT(3),=C'SMS'     YES, SHOW IT
                                            1120 *8       TM    UCBFL5,UCBSMS           SMS VOL?
                                            1121 *8       BO    DEV_PUN                 YES, JUMP
000009C6 D206 D160 B37A 00000160 0000037A   1122          MVC   VOLMOUNT,=C'PRIVATE'    USE=PRIVATE
000009CC 9110 5022      00000062 00000010   1123          TM    UCBSTAB,UCBBPRV         CHECK USE
000009D0 4710 C0A6               000009E8   1124          BO    DEV_PUN
000009D4 D206 D160 B381 00000160 00000381   1125          MVC   VOLMOUNT,=C'PUBLIC '    USE=PUBLIC
000009DA 9108 5022      00000062 00000008   1126          TM    UCBSTAB,UCBBPUB         CHECK USE
000009DE 4710 C0A6               000009E8   1127          BO    DEV_PUN
000009E2 D206 D160 B388 00000160 00000388   1128          MVC   VOLMOUNT,=C'STORAGE'    USE=STORAGE
000009E8                                    1129 DEV_PUN  DS    0H
                                            1130          STRING 2X,UCBNAME,2X,(UCBTYP,4,X),2X,UNITNAME,2X,((R1),6),  XXX
                                                                2X,VOLMOUNT,INTO=LINE
000009E8 4DE0 B3E8               000003E8   1131+         BAS   R14,$STRING  R507       CALL @STRING SUB-ROUTINE         01-STRIN
000009EC 05E1                               1132+         DC    AL2((IHB0071P-*)/2)     OFFSET TO FIELD DESCRIPTORS      01-STRIN
000015AE                00001132 00000000   1133+$LITERAL LOCTR                         NON-ADDRESSABLE CONSTANTS        01-STRIN
000015AE A0000064                           1134+IHB0071P DC    S(LINE,L'LINE)                                           01-STRIN
000015B2 000000024000                       1135+         DC    AL2(0,2,16384)          BLANKS                           01-STRIN
000015B8 500D00030000                       1136+         DC    S(UCBNAME,L'UCBNAME),AL1(0,0)                            01-STRIN
000015BE 000000024000                       1137+         DC    AL2(0,2,16384)          BLANKS                           01-STRIN
000015C4 501000040800                       1138+         DC    S(UCBTYP,4),AL1(8,0)                                     01-STRIN
000015CA 000000024000                       1139+         DC    AL2(0,2,16384)          BLANKS                           01-STRIN
000015D0 D17000080000                       1140+         DC    S(UNITNAME,L'UNITNAME),AL1(0,0)                          01-STRIN
000015D6 000000024000                       1141+         DC    AL2(0,2,16384)          BLANKS                           01-STRIN
000015DC 100000060000                       1142+         DC    S(0(R1),6),AL1(0,0)                                      01-STRIN
000015E2 000000024000                       1143+         DC    AL2(0,2,16384)          BLANKS                           01-STRIN
000015E8 D16000078000                       1144+         DC    S(VOLMOUNT,L'VOLMOUNT),AL1(128,0)                        01-STRIN
000009EE                000003F4 00000000   1145+$FARRTNE LOCTR                                                          01-STRIN
000009EE 41A0 A064               00000064   1146          LA    R10,NEXTLINE
000009F2 47F0 C028               0000096A   1147          B     DEV_GET
                                            1148 *ENDLOOP
000009F6 45E0 B1AE               000001AE   1149 DEV_EOD  BAL   R14,SPACE1              BLANK LINE
                                            1150          P$END                         UCB
000009FA 58E0 D0E4               000000E4   1151+PEND0068 L     R14,P$END               RETURN ADDR                MACRO 01-P$END
000009FE 07FE                               1152+         BR    R14                                                MACRO 01-P$END
                                            1153+         DROP  R12                     SET BY P$BEGIN        <38J>MACRO 01-P$END
                                            1154          DROP  R5                      UCB
                                                                                                                           Page   18 
  ACTIVE USINGS: PSA,R0  CVTMAP,R3  TCB,R4  RCVT,R7  LINE,R10  BASEADDR,R11  DYN,R13  
  Loc    Object Code      Addr1    Addr2    Stmt  Source Statement                                    DASM V1.75.00 2004/12/29 15:27 
                                            1156 *----------------------------------------------------------------------
                                            1157 *        SUB-SYSTEMS AND FUNCTIONS PROCESSED
                                            1158 *----------------------------------------------------------------------
                                            1159 SUBSYSTM P$BEGIN ,
00000122                000000E0 00000000   1160+$LTORG   LOCTR                         ADDRESSABLE CODE           MACRO 01-P$BEG
00000122 45F0 B35C               0000035C   1161+SUBSYSTM BAL   R15,=X'4AF0,F000,07FF'  ADD HWORD OFFSET, BR FAR   MACRO 01-P$BEG
00000126 08E2                               1162+         DC    Y(PROC0073-*)           OFFSET TO FAR ROUTINE      MACRO 01-P$BEG
00000A00                000003F4 00000000   1163+$FARRTNE LOCTR                         FAR ROUTINES               MACRO 01-P$BEG
00000A00                                    1164+         DS    0D                                            <38J>MACRO 01-P$BEG
00000A00 E2E4C2E2E8E2E3D4                   1165+         DC    CL8'SUBSYSTM'                                 <38J>MACRO 01-P$BEG
00000A08 05C0                               1166+PROC0073 BALR  R12,0                   LOCAL BASE                 MACRO 01-P$BEG
                        00000A0A            1167+         USING *,R12                   DROPPED BY P$END           MACRO 01-P$BEG
00000A0A 41F0 C05E               00000A68   1168+         LA    R15,PEND0073            LOAD RETRY ADDRESS         MACRO 01-P$BEG
00000A0E 90EF D0E4               000000E4   1169+         STM   R14,R15,P$END           RETURN/RETRY ADDRESSES     MACRO 01-P$BEG
                                            1170          STRING 'SUB-SYSTEM VECTOR TABLE:',INTO=LINE
00000A12 4DE0 B3E8               000003E8   1171+         BAS   R14,$STRING  R507       CALL @STRING SUB-ROUTINE         01-STRIN
00000A16 05EC                               1172+         DC    AL2((IHB0074P-*)/2)     OFFSET TO FIELD DESCRIPTORS      01-STRIN
000015EE                00001132 00000000   1173+$LITERAL LOCTR                         NON-ADDRESSABLE CONSTANTS        01-STRIN
000015EE A0000064                           1174+IHB0074P DC    S(LINE,L'LINE)                                           01-STRIN
000015F2 06760018C000                       1175+         DC    AL2($LIT1039-*,L'$LIT1039,49152)                         01-STRIN
00000A18                000003F4 00000000   1176+$FARRTNE LOCTR                                                          01-STRIN
00000A18 45E0 B1AA               000001AA   1177          BAL   R14,SPACE2              BLANK LINE
00000A1C 5810 3128               00000228   1178          L     R1,CVTJESCT             JES COMM TABLE
00000A20 5850 1018               00000018   1179          L     R5,JESSSCT-JESCT(,R1)   FIRST JSCVT
                        00000000            1180          USING SSCT,R5
                                            1181 *LOOP
00000A24 D263 A064 D0FC 00000064 000000FC   1182 SUBSYS22 MVC   NEXTLINE,BLANKS
00000A2A BF6F 5010               00000010   1183          ICM   R6,15,SSCTSSVT          SUB-SYSTEM VECTOR TABLE
00000A2E 4780 C048               00000A52   1184          BZ    SUBSYS70                INACTIVE SUB-SYSTEM
                        00000000            1185          USING SSVT,R6
00000A32 1F11                               1186          SLR   R1,R1                   FIRST FUNCTION CODE
00000A34 4120 0100               00000100   1187          LA    R2,256                  MAX NUMBER OF FUNCTIONS
                                            1188 *--LOOP
00000A38 41E1 6004               00000004   1189 SUBSYS30 LA    R14,SSVTFCOD(R1)        FUNCTION BYTE
00000A3C 4110 1001               00000001   1190          LA    R1,1(,R1)               NEXT FUNCTION CODE
00000A40 9500 E000      00000000 00000000   1191          CLI   0(R14),0
00000A44 4780 C044               00000A4E   1192          BE    SUBSYS35
                                            1193          STRING (NEXTLINE,,T),1X,((R1),,L0),INTO=NEXTLINE
00000A48 4DE0 B3E8               000003E8   1194+         BAS   R14,$STRING  R507       CALL @STRING SUB-ROUTINE         01-STRIN
00000A4C 05D6                               1195+         DC    AL2((IHB0075P-*)/2)     OFFSET TO FIELD DESCRIPTORS      01-STRIN
000015F8                00001132 00000000   1196+$LITERAL LOCTR                         NON-ADDRESSABLE CONSTANTS        01-STRIN
000015F8 A0640064                           1197+IHB0075P DC    S(NEXTLINE,L'NEXTLINE)                                   01-STRIN
000015FC A06400640080                       1198+         DC    S(NEXTLINE,L'NEXTLINE),AL1(0,128)                        01-STRIN
00001602 000000014000                       1199+         DC    AL2(0,1,16384)          BLANKS                           01-STRIN
00001608 000100008180                       1200+         DC    S((R1),0),AL1(129,128)                                   01-STRIN
00000A4E                000003F4 00000000   1201+$FARRTNE LOCTR                                                          01-STRIN
00000A4E 4620 C02E               00000A38   1202 SUBSYS35 BCT   R2,SUBSYS30
                                            1203 *--ENDLOOP
00000A52                                    1204 SUBSYS70 DS    0H
                                            1205          STRING 2X,SSCTSNAM,1X,(SSCTSSVT,,X),NEXTLINE,INTO=LINE
00000A52 4DE0 B3E8               000003E8   1206+         BAS   R14,$STRING  R507       CALL @STRING SUB-ROUTINE         01-STRIN
00000A56 05DC                               1207+         DC    AL2((IHB0076P-*)/2)     OFFSET TO FIELD DESCRIPTORS      01-STRIN
0000160E                00001132 00000000   1208+$LITERAL LOCTR                         NON-ADDRESSABLE CONSTANTS        01-STRIN
0000160E A0000064                           1209+IHB0076P DC    S(LINE,L'LINE)                                           01-STRIN
00001612 000000024000                       1210+         DC    AL2(0,2,16384)          BLANKS                           01-STRIN
00001618 500800040000                       1211+         DC    S(SSCTSNAM,L'SSCTSNAM),AL1(0,0)                          01-STRIN
0000161E 000000014000                       1212+         DC    AL2(0,1,16384)          BLANKS                           01-STRIN
00001624 501000040800                       1213+         DC    S(SSCTSSVT,L'SSCTSSVT),AL1(8,0)                          01-STRIN
0000162A A06400648000                       1214+         DC    S(NEXTLINE,L'NEXTLINE),AL1(128,0)                        01-STRIN
00000A58                000003F4 00000000   1215+$FARRTNE LOCTR                                                          01-STRIN
00000A58 41A0 A064               00000064   1216          LA    R10,NEXTLINE
00000A5C BF5F 5004               00000004   1217          ICM   R5,15,4(R5)             NEXT SSCVT
00000A60 4770 C01A               00000A24   1218          BNZ   SUBSYS22
                                            1219 *ENDLOOP
00000A64 45E0 B1AE               000001AE   1220          BAL   R14,SPACE1              BLANK LINE
                                            1221          P$END
00000A68 58E0 D0E4               000000E4   1222+PEND0073 L     R14,P$END               RETURN ADDR                MACRO 01-P$END
00000A6C 07FE                               1223+         BR    R14                                                MACRO 01-P$END
                                            1224+         DROP  R12                     SET BY P$BEGIN        <38J>MACRO 01-P$END
                                                                                                                           Page   19 
  ACTIVE USINGS: PSA,R0  CVTMAP,R3  TCB,R4  SSCT,R5  SSVT,R6  RCVT,R7  LINE,R10  BASEADDR,R11  DYN,R13  
  Loc    Object Code      Addr1    Addr2    Stmt  Source Statement                                    DASM V1.75.00 2004/12/29 15:27 
                                            1226 *----------------------------------------------------------------------
                                            1227 *        ACTIVE LPA Q
                                            1228 *----------------------------------------------------------------------
                                            1229 LPACTIV  P$BEGIN ,
00000128                000000E0 00000000   1230+$LTORG   LOCTR                         ADDRESSABLE CODE           MACRO 01-P$BEG
00000128 45F0 B35C               0000035C   1231+LPACTIV  BAL   R15,=X'4AF0,F000,07FF'  ADD HWORD OFFSET, BR FAR   MACRO 01-P$BEG
0000012C 094C                               1232+         DC    Y(PROC0078-*)           OFFSET TO FAR ROUTINE      MACRO 01-P$BEG
00000A6E                000003F4 00000000   1233+$FARRTNE LOCTR                         FAR ROUTINES               MACRO 01-P$BEG
00000A70                                    1234+         DS    0D                                            <38J>MACRO 01-P$BEG
00000A70 D3D7C1C3E3C9E540                   1235+         DC    CL8'LPACTIV'                                  <38J>MACRO 01-P$BEG
00000A78 05C0                               1236+PROC0078 BALR  R12,0                   LOCAL BASE                 MACRO 01-P$BEG
                        00000A7A            1237+         USING *,R12                   DROPPED BY P$END           MACRO 01-P$BEG
00000A7A 41F0 C058               00000AD2   1238+         LA    R15,PEND0078            LOAD RETRY ADDRESS         MACRO 01-P$BEG
00000A7E 90EF D0E4               000000E4   1239+         STM   R14,R15,P$END           RETURN/RETRY ADDRESSES     MACRO 01-P$BEG
00000A82 5850 30BC               000001BC   1240          L     R5,CVTQLPAQ             ACTIVE LPA QUEUE
00000A86 BF5F 5000               00000000   1241          ICM   R5,B'1111',0(R5)        FIRST LPDE ON QUEUE
00000A8A 4780 C054               00000ACE   1242          BZ    LPACT99                 EMPTY QUEUE, SKIP SEARCH
                                            1243 *
                        00000000            1244          USING LPDE,R5
                                            1245          STRING 'ACTIVE LPA QUEUE:',INTO=LINE
00000A8E 4DE0 B3E8               000003E8   1246+         BAS   R14,$STRING  R507       CALL @STRING SUB-ROUTINE         01-STRIN
00000A92 05CF                               1247+         DC    AL2((IHB0079P-*)/2)     OFFSET TO FIELD DESCRIPTORS      01-STRIN
00001630                00001132 00000000   1248+$LITERAL LOCTR                         NON-ADDRESSABLE CONSTANTS        01-STRIN
00001630 A0000064                           1249+IHB0079P DC    S(LINE,L'LINE)                                           01-STRIN
00001634 064C0011C000                       1250+         DC    AL2($LIT1040-*,L'$LIT1040,49152)                         01-STRIN
00000A94                000003F4 00000000   1251+$FARRTNE LOCTR                                                          01-STRIN
00000A94 45E0 B1AA               000001AA   1252          BAL   R14,SPACE2
                                            1253          STRING 9X,'@LPDE   ',                                         +
                                                                1X,'LPDECHN ',                                          +
                                                                1X,'LPDERBP ',                                          +
                                                                1X,'LPDENAME',                                          +
                                                                1X,'LPDENTP ',                                          +
                                                                1X,'LPDEXLP ',                                          +
                                                                1X,'USE ',                                              +
                                                                1X,'AT',                                                +
                                                                1X,'A2',                                                +
                                                                1X,'LPDEXTLN',                                          +
                                                                1X,'LPDEXTAD',                                          +
                                                                1X,'MAJORNAM',                                          +
                                                                INTO=LINE
00000A98 4DE0 B3E8               000003E8   1254+         BAS   R14,$STRING  R507       CALL @STRING SUB-ROUTINE         01-STRIN
00000A9C 05CF                               1255+         DC    AL2((IHB0080P-*)/2)     OFFSET TO FIELD DESCRIPTORS      01-STRIN
0000163A                00001132 00000000   1256+$LITERAL LOCTR                         NON-ADDRESSABLE CONSTANTS        01-STRIN
0000163A A0000064                           1257+IHB0080P DC    S(LINE,L'LINE)                                           01-STRIN
0000163E 000000094000                       1258+         DC    AL2(0,9,16384)          BLANKS                           01-STRIN
00001644 064D00084000                       1259+         DC    AL2($LIT1041-*,L'$LIT1041,16384)                         01-STRIN
0000164A 000000014000                       1260+         DC    AL2(0,1,16384)          BLANKS                           01-STRIN
00001650 064900084000                       1261+         DC    AL2($LIT1042-*,L'$LIT1042,16384)                         01-STRIN
00001656 000000014000                       1262+         DC    AL2(0,1,16384)          BLANKS                           01-STRIN
0000165C 064500084000                       1263+         DC    AL2($LIT1043-*,L'$LIT1043,16384)                         01-STRIN
00001662 000000014000                       1264+         DC    AL2(0,1,16384)          BLANKS                           01-STRIN
00001668 064100084000                       1265+         DC    AL2($LIT1044-*,L'$LIT1044,16384)                         01-STRIN
0000166E 000000014000                       1266+         DC    AL2(0,1,16384)          BLANKS                           01-STRIN
00001674 063D00084000                       1267+         DC    AL2($LIT1045-*,L'$LIT1045,16384)                         01-STRIN
0000167A 000000014000                       1268+         DC    AL2(0,1,16384)          BLANKS                           01-STRIN
00001680 063900084000                       1269+         DC    AL2($LIT1046-*,L'$LIT1046,16384)                         01-STRIN
00001686 000000014000                       1270+         DC    AL2(0,1,16384)          BLANKS                           01-STRIN
0000168C 063500044000                       1271+         DC    AL2($LIT1047-*,L'$LIT1047,16384)                         01-STRIN
00001692 000000014000                       1272+         DC    AL2(0,1,16384)          BLANKS                           01-STRIN
00001698 062D00024000                       1273+         DC    AL2($LIT1048-*,L'$LIT1048,16384)                         01-STRIN
0000169E 000000014000                       1274+         DC    AL2(0,1,16384)          BLANKS                           01-STRIN
000016A4 062300024000                       1275+         DC    AL2($LIT1049-*,L'$LIT1049,16384)                         01-STRIN
000016AA 000000014000                       1276+         DC    AL2(0,1,16384)          BLANKS                           01-STRIN
000016B0 061900084000                       1277+         DC    AL2($LIT1050-*,L'$LIT1050,16384)                         01-STRIN
000016B6 000000014000                       1278+         DC    AL2(0,1,16384)          BLANKS                           01-STRIN
000016BC 061500084000                       1279+         DC    AL2($LIT1051-*,L'$LIT1051,16384)                         01-STRIN
000016C2 000000014000                       1280+         DC    AL2(0,1,16384)          BLANKS                           01-STRIN
000016C8 06110008C000                       1281+         DC    AL2($LIT1052-*,L'$LIT1052,49152)                         01-STRIN
00000A9E                000003F4 00000000   1282+$FARRTNE LOCTR                                                          01-STRIN
00000A9E 45E0 B1AA               000001AA   1283          BAL   R14,SPACE2
                                            1284 *
                                            1285 *
00000AA2 9104 501C      0000001C 00000004   1286 LPACT11  TM    LPDEATTR,LPDEMIN        MINOR LPDE?
00000AA6 4710 C03A               00000AB4   1287          BO    LPACT12                 YES, JUMP
                                            1288 *
                                            1289          STRING ' MAJLPDE',                                            +
                                                                1X,((R5),,X),                                           +
                                                                1X,(LPDECHN,,X),                                        +
                                                                1X,(LPDERBP,,X),                                        +
                                                                1X,LPDENAME,                                            +
                                                                1X,(LPDENTP,,X),                                        +
                                                                1X,(LPDEXLP,,X),                                        +
                                                                1X,(LPDEUSE,,X),                                        +
                                                                1X,(LPDEATTR,,X),                                       +
                                                                1X,(LPDEATT2,,X),                                       +
                                                                1X,(LPDEXTLN,,X),                                       +
                                                                1X,(LPDEXTAD,,X),                                       +
                                                                1X,(LPDENAME-LPDE(R5),8),                               +
                                                                INTO=LINE
00000AAA 4DE0 B3E8               000003E8   1290+         BAS   R14,$STRING  R507       CALL @STRING SUB-ROUTINE         01-STRIN
00000AAE 0610                               1291+         DC    AL2((IHB0081P-*)/2)     OFFSET TO FIELD DESCRIPTORS      01-STRIN
000016CE                00001132 00000000   1292+$LITERAL LOCTR                         NON-ADDRESSABLE CONSTANTS        01-STRIN
000016CE A0000064                           1293+IHB0081P DC    S(LINE,L'LINE)                                           01-STRIN
000016D2 060F00084000                       1294+         DC    AL2($LIT1053-*,L'$LIT1053,16384)                         01-STRIN
000016D8 000000014000                       1295+         DC    AL2(0,1,16384)          BLANKS                           01-STRIN
000016DE 000500000900                       1296+         DC    S((R5),0),AL1(9,0)                                       01-STRIN
000016E4 000000014000                       1297+         DC    AL2(0,1,16384)          BLANKS                           01-STRIN
000016EA 500000040800                       1298+         DC    S(LPDECHN,L'LPDECHN),AL1(8,0)                            01-STRIN
000016F0 000000014000                       1299+         DC    AL2(0,1,16384)          BLANKS                           01-STRIN
000016F6 500400040800                       1300+         DC    S(LPDERBP,L'LPDERBP),AL1(8,0)                            01-STRIN
000016FC 000000014000                       1301+         DC    AL2(0,1,16384)          BLANKS                           01-STRIN
00001702 500800080000                       1302+         DC    S(LPDENAME,L'LPDENAME),AL1(0,0)                          01-STRIN
00001708 000000014000                       1303+         DC    AL2(0,1,16384)          BLANKS                           01-STRIN
0000170E 501000040800                       1304+         DC    S(LPDENTP,L'LPDENTP),AL1(8,0)                            01-STRIN
00001714 000000014000                       1305+         DC    AL2(0,1,16384)          BLANKS                           01-STRIN
0000171A 501400040800                       1306+         DC    S(LPDEXLP,L'LPDEXLP),AL1(8,0)                            01-STRIN
00001720 000000014000                       1307+         DC    AL2(0,1,16384)          BLANKS                           01-STRIN
00001726 501800020800                       1308+         DC    S(LPDEUSE,L'LPDEUSE),AL1(8,0)                            01-STRIN
0000172C 000000014000                       1309+         DC    AL2(0,1,16384)          BLANKS                           01-STRIN
00001732 501C00010800                       1310+         DC    S(LPDEATTR,L'LPDEATTR),AL1(8,0)                          01-STRIN
00001738 000000014000                       1311+         DC    AL2(0,1,16384)          BLANKS                           01-STRIN
0000173E 501D00010800                       1312+         DC    S(LPDEATT2,L'LPDEATT2),AL1(8,0)                          01-STRIN
00001744 000000014000                       1313+         DC    AL2(0,1,16384)          BLANKS                           01-STRIN
0000174A 502000040800                       1314+         DC    S(LPDEXTLN,L'LPDEXTLN),AL1(8,0)                          01-STRIN
00001750 000000014000                       1315+         DC    AL2(0,1,16384)          BLANKS                           01-STRIN
00001756 502400040800                       1316+         DC    S(LPDEXTAD,L'LPDEXTAD),AL1(8,0)                          01-STRIN
0000175C 000000014000                       1317+         DC    AL2(0,1,16384)          BLANKS                           01-STRIN
00001762 500800088000                       1318+         DC    S(LPDENAME-LPDE(R5),8),AL1(128,0)                        01-STRIN
00000AB0                000003F4 00000000   1319+$FARRTNE LOCTR                                                          01-STRIN
00000AB0 47F0 C048               00000AC2   1320          B     LPACT14
                                            1321 *
00000AB4                                    1322 LPACT12  DS    0H                      MINOR LPDE
00000AB4 BF2F 5014               00000014   1323          ICM   R2,15,LPDEXLP           @ ASSOCIATED MAJOR LPDE
00000AB8 4780 C048               00000AC2   1324          BZ    LPACT14
                                            1325          STRING ' MINLPDE',                                            +
                                                                1X,((R5),,X),                                           +
                                                                1X,(LPDECHN,,X),                                        +
                                                                1X,(LPDERBP,,X),                                        +
                                                                1X,LPDENAME,                                            +
                                                                1X,(LPDENTP,,X),                                        +
                                                                1X,(LPDEXLP,,X),                                        +
                                                                1X,(LPDEUSE,,X),                                        +
                                                                1X,(LPDEATTR,,X),                                       +
                                                                1X,(LPDEATT2,,X),                                       +
                                                                1X,(LPDEXTLN,,X),                                       +
                                                                1X,(LPDEXTAD,,X),                                       +
                                                                1X,(LPDENAME-LPDE(R2),8),                               +
                                                                INTO=LINE
00000ABC 4DE0 B3E8               000003E8   1326+         BAS   R14,$STRING  R507       CALL @STRING SUB-ROUTINE         01-STRIN
00000AC0 0654                               1327+         DC    AL2((IHB0082P-*)/2)     OFFSET TO FIELD DESCRIPTORS      01-STRIN
00001768                00001132 00000000   1328+$LITERAL LOCTR                         NON-ADDRESSABLE CONSTANTS        01-STRIN
00001768 A0000064                           1329+IHB0082P DC    S(LINE,L'LINE)                                           01-STRIN
0000176C 057D00084000                       1330+         DC    AL2($LIT1054-*,L'$LIT1054,16384)                         01-STRIN
00001772 000000014000                       1331+         DC    AL2(0,1,16384)          BLANKS                           01-STRIN
00001778 000500000900                       1332+         DC    S((R5),0),AL1(9,0)                                       01-STRIN
0000177E 000000014000                       1333+         DC    AL2(0,1,16384)          BLANKS                           01-STRIN
00001784 500000040800                       1334+         DC    S(LPDECHN,L'LPDECHN),AL1(8,0)                            01-STRIN
0000178A 000000014000                       1335+         DC    AL2(0,1,16384)          BLANKS                           01-STRIN
00001790 500400040800                       1336+         DC    S(LPDERBP,L'LPDERBP),AL1(8,0)                            01-STRIN
00001796 000000014000                       1337+         DC    AL2(0,1,16384)          BLANKS                           01-STRIN
0000179C 500800080000                       1338+         DC    S(LPDENAME,L'LPDENAME),AL1(0,0)                          01-STRIN
000017A2 000000014000                       1339+         DC    AL2(0,1,16384)          BLANKS                           01-STRIN
000017A8 501000040800                       1340+         DC    S(LPDENTP,L'LPDENTP),AL1(8,0)                            01-STRIN
000017AE 000000014000                       1341+         DC    AL2(0,1,16384)          BLANKS                           01-STRIN
000017B4 501400040800                       1342+         DC    S(LPDEXLP,L'LPDEXLP),AL1(8,0)                            01-STRIN
000017BA 000000014000                       1343+         DC    AL2(0,1,16384)          BLANKS                           01-STRIN
000017C0 501800020800                       1344+         DC    S(LPDEUSE,L'LPDEUSE),AL1(8,0)                            01-STRIN
000017C6 000000014000                       1345+         DC    AL2(0,1,16384)          BLANKS                           01-STRIN
000017CC 501C00010800                       1346+         DC    S(LPDEATTR,L'LPDEATTR),AL1(8,0)                          01-STRIN
000017D2 000000014000                       1347+         DC    AL2(0,1,16384)          BLANKS                           01-STRIN
000017D8 501D00010800                       1348+         DC    S(LPDEATT2,L'LPDEATT2),AL1(8,0)                          01-STRIN
000017DE 000000014000                       1349+         DC    AL2(0,1,16384)          BLANKS                           01-STRIN
000017E4 502000040800                       1350+         DC    S(LPDEXTLN,L'LPDEXTLN),AL1(8,0)                          01-STRIN
000017EA 000000014000                       1351+         DC    AL2(0,1,16384)          BLANKS                           01-STRIN
000017F0 502400040800                       1352+         DC    S(LPDEXTAD,L'LPDEXTAD),AL1(8,0)                          01-STRIN
000017F6 000000014000                       1353+         DC    AL2(0,1,16384)          BLANKS                           01-STRIN
000017FC 200800088000                       1354+         DC    S(LPDENAME-LPDE(R2),8),AL1(128,0)                        01-STRIN
00000AC2                000003F4 00000000   1355+$FARRTNE LOCTR                                                          01-STRIN
                                            1356 *
00000AC2                                    1357 LPACT14  DS    0H
00000AC2 41A0 A064               00000064   1358          LA    R10,NEXTLINE
00000AC6 BF5F 5000               00000000   1359          ICM   R5,B'1111',LPDECHN      NEXT LPDE ADDR
00000ACA 4770 C028               00000AA2   1360          BNZ   LPACT11                 NO FINISHED YET, LOOP
                                            1361 *
00000ACE                                    1362 LPACT99  DS    0H
00000ACE 45E0 B1AA               000001AA   1363          BAL   R14,SPACE2
                                            1364          P$END
00000AD2 58E0 D0E4               000000E4   1365+PEND0078 L     R14,P$END               RETURN ADDR                MACRO 01-P$END
00000AD6 07FE                               1366+         BR    R14                                                MACRO 01-P$END
                                            1367+         DROP  R12                     SET BY P$BEGIN        <38J>MACRO 01-P$END
                                                                                                                           Page   20 
  ACTIVE USINGS: PSA,R0  CVTMAP,R3  TCB,R4  LPDE,R5  SSVT,R6  RCVT,R7  LINE,R10  BASEADDR,R11  DYN,R13  
  Loc    Object Code      Addr1    Addr2    Stmt  Source Statement                                    DASM V1.75.00 2004/12/29 15:27 
                                            1369 *----------------------------------------------------------------------
                                            1370 *        SVC TABLE
                                            1371 *----------------------------------------------------------------------
                                            1372 SVCTABLE P$BEGIN ,
0000012E                000000E0 00000000   1373+$LTORG   LOCTR                         ADDRESSABLE CODE           MACRO 01-P$BEG
0000012E 45F0 B35C               0000035C   1374+SVCTABLE BAL   R15,=X'4AF0,F000,07FF'  ADD HWORD OFFSET, BR FAR   MACRO 01-P$BEG
00000132 09AE                               1375+         DC    Y(PROC0084-*)           OFFSET TO FAR ROUTINE      MACRO 01-P$BEG
00000AD8                000003F4 00000000   1376+$FARRTNE LOCTR                         FAR ROUTINES               MACRO 01-P$BEG
00000AD8                                    1377+         DS    0D                                            <38J>MACRO 01-P$BEG
00000AD8 E2E5C3E3C1C2D3C5                   1378+         DC    CL8'SVCTABLE'                                 <38J>MACRO 01-P$BEG
00000AE0 05C0                               1379+PROC0084 BALR  R12,0                   LOCAL BASE                 MACRO 01-P$BEG
                        00000AE2            1380+         USING *,R12                   DROPPED BY P$END           MACRO 01-P$BEG
00000AE2 41F0 C06E               00000B50   1381+         LA    R15,PEND0084            LOAD RETRY ADDRESS         MACRO 01-P$BEG
00000AE6 90EF D0E4               000000E4   1382+         STM   R14,R15,P$END           RETURN/RETRY ADDRESSES     MACRO 01-P$BEG
                                            1383          STRING 'SVC TABLE:',INTO=LINE
00000AEA 4DE0 B3E8               000003E8   1384+         BAS   R14,$STRING  R507       CALL @STRING SUB-ROUTINE         01-STRIN
00000AEE 068A                               1385+         DC    AL2((IHB0085P-*)/2)     OFFSET TO FIELD DESCRIPTORS      01-STRIN
00001802                00001132 00000000   1386+$LITERAL LOCTR                         NON-ADDRESSABLE CONSTANTS        01-STRIN
00001802 A0000064                           1387+IHB0085P DC    S(LINE,L'LINE)                                           01-STRIN
00001806 04EB000AC000                       1388+         DC    AL2($LIT1055-*,L'$LIT1055,49152)                         01-STRIN
00000AF0                000003F4 00000000   1389+$FARRTNE LOCTR                                                          01-STRIN
00000AF0 45E0 B1AA               000001AA   1390          BAL   R14,SPACE2              BLANK LINE
00000AF4 5850 30C8               000001C8   1391          L     R5,CVTABEND             SECONDARY CVT
                        00000000            1392          USING SCVTSECT,R5
00000AF8 4110 02C0               000002C0   1393          LA    R1,088*8                MULT BY 8 (LEN OF SVC ENTRY)
00000AFC 5A10 5084               00000084   1394          A     R1,SCVTSVCT             CHANGE OFFSET TO ADDRESS
00000B00 D203 D1BC 1000 000001BC 00000000   1395          MVC   SVC88,0(R1)             SAVE FOR LATER
00000B06 5850 5084               00000084   1396          L     R5,SCVTSVCT             SVC TABLE
00000B0A 4180 0080               00000080   1397          LA    R8,00256/2
00000B0E 960F D1A3      000001A3 0000000F   1398          OI    K1+L'K1-1,15            INIT PACKED CTR
                                            1399 *LOOP
00000B12 F833 D1A4 D1A0 000001A4 000001A0   1400 SVCTAB3  ZAP   K2,K1
00000B18 FA30 D1A4 B38F 000001A4 0000038F   1401          AP    K2,=P'1'
00000B1E 5810 5000               00000000   1402          L     R1,0(,R5)               SVC EP ADDR
00000B22 45E0 B184               00000184   1403          BAL   R14,CSVQUERY            GET EP NAME
00000B26 D209 D1A8 D1B2 000001A8 000001B2   1404          MVC   EP1,EP2                 PASS EP NAME
00000B2C 5810 5008               00000008   1405          L     R1,8(,R5)               SVC EP ADDR
00000B30 45E0 B184               00000184   1406          BAL   R14,CSVQUERY            GET EP NAME
                                            1407          STRING (K1,P),2X,(0(R5),4,X),2X,(4(R5),4,X),1X,EP1,       XXXXX
                                                                (K2,P),2X,(8(R5),4,X),2X,(12(R5),4,X),1X,EP2,INTO=LINE
00000B34 4DE0 B3E8               000003E8   1408+         BAS   R14,$STRING  R507       CALL @STRING SUB-ROUTINE         01-STRIN
00000B38 066A                               1409+         DC    AL2((IHB0086P-*)/2)     OFFSET TO FIELD DESCRIPTORS      01-STRIN
0000180C                00001132 00000000   1410+$LITERAL LOCTR                         NON-ADDRESSABLE CONSTANTS        01-STRIN
0000180C A0000064                           1411+IHB0086P DC    S(LINE,L'LINE)                                           01-STRIN
00001810 D1A000000207                       1412+         DC    S(K1,0),AL1(2,7)                                         01-STRIN
00001816 000000024000                       1413+         DC    AL2(0,2,16384)          BLANKS                           01-STRIN
0000181C 500000040800                       1414+         DC    S(0(R5),4),AL1(8,0)                                      01-STRIN
00001822 000000024000                       1415+         DC    AL2(0,2,16384)          BLANKS                           01-STRIN
00001828 500400040800                       1416+         DC    S(4(R5),4),AL1(8,0)                                      01-STRIN
0000182E 000000014000                       1417+         DC    AL2(0,1,16384)          BLANKS                           01-STRIN
00001834 D1A8000A0000                       1418+         DC    S(EP1,L'EP1),AL1(0,0)                                    01-STRIN
0000183A D1A400000207                       1419+         DC    S(K2,0),AL1(2,7)                                         01-STRIN
00001840 000000024000                       1420+         DC    AL2(0,2,16384)          BLANKS                           01-STRIN
00001846 500800040800                       1421+         DC    S(8(R5),4),AL1(8,0)                                      01-STRIN
0000184C 000000024000                       1422+         DC    AL2(0,2,16384)          BLANKS                           01-STRIN
00001852 500C00040800                       1423+         DC    S(12(R5),4),AL1(8,0)                                     01-STRIN
00001858 000000014000                       1424+         DC    AL2(0,1,16384)          BLANKS                           01-STRIN
0000185E D1B2000A8000                       1425+         DC    S(EP2,L'EP2),AL1(128,0)                                  01-STRIN
00000B3A                000003F4 00000000   1426+$FARRTNE LOCTR                                                          01-STRIN
00000B3A 41A0 A064               00000064   1427          LA    R10,NEXTLINE
00000B3E FA30 D1A0 B390 000001A0 00000390   1428          AP    K1,=P'2'
00000B44 4150 5010               00000010   1429          LA    R5,8+8(,R5)
00000B48 4680 C030               00000B12   1430          BCT   R8,SVCTAB3
                                            1431 *ENDLOOP
00000B4C 45E0 B1AE               000001AE   1432          BAL   R14,SPACE1              BLANK LINE
                                            1433          P$END
00000B50 58E0 D0E4               000000E4   1434+PEND0084 L     R14,P$END               RETURN ADDR                MACRO 01-P$END
00000B54 07FE                               1435+         BR    R14                                                MACRO 01-P$END
                                            1436+         DROP  R12                     SET BY P$BEGIN        <38J>MACRO 01-P$END
                                                                                                                           Page   21 
  ACTIVE USINGS: PSA,R0  CVTMAP,R3  TCB,R4  SCVTSECT,R5  SSVT,R6  RCVT,R7  LINE,R10  BASEADDR,R11  DYN,R13  
  Loc    Object Code      Addr1    Addr2    Stmt  Source Statement                                    DASM V1.75.00 2004/12/29 15:27 
                                            1438 *----------------------------------------------------------------------
                                            1439 *        LIST LNKLSTXX LIBRARIES
                                            1440 *----------------------------------------------------------------------
                                            1441 LINKLIST P$BEGIN ,
00000134                000000E0 00000000   1442+$LTORG   LOCTR                         ADDRESSABLE CODE           MACRO 01-P$BEG
00000134 45F0 B35C               0000035C   1443+LINKLIST BAL   R15,=X'4AF0,F000,07FF'  ADD HWORD OFFSET, BR FAR   MACRO 01-P$BEG
00000138 0A28                               1444+         DC    Y(PROC0088-*)           OFFSET TO FAR ROUTINE      MACRO 01-P$BEG
00000B56                000003F4 00000000   1445+$FARRTNE LOCTR                         FAR ROUTINES               MACRO 01-P$BEG
00000B58                                    1446+         DS    0D                                            <38J>MACRO 01-P$BEG
00000B58 D3C9D5D2D3C9E2E3                   1447+         DC    CL8'LINKLIST'                                 <38J>MACRO 01-P$BEG
00000B60 05C0                               1448+PROC0088 BALR  R12,0                   LOCAL BASE                 MACRO 01-P$BEG
                        00000B62            1449+         USING *,R12                   DROPPED BY P$END           MACRO 01-P$BEG
00000B62 41F0 C024               00000B86   1450+         LA    R15,PEND0088            LOAD RETRY ADDRESS         MACRO 01-P$BEG
00000B66 90EF D0E4               000000E4   1451+         STM   R14,R15,P$END           RETURN/RETRY ADDRESSES     MACRO 01-P$BEG
00000B6A 5860 3008               00000108   1452          L     R6,CVTLINK              SYS1.LINKLIB DCB
00000B6E BF67 602D               0000002D   1453          ICM   R6,B'0111',DCBDEBA-IHADCB(R6) DEB ADDRESS
00000B72 4110 B391               00000391   1454          LA    R1,=C'LNKAUTH=LNKLST'
00000B76 9102 600E      0000000E 00000002   1455          TM    DEBFLGS1-DEBBASIC(R6),DEBAPFIN    AUTH=YES?
00000B7A 4710 C020               00000B82   1456          BO    *+8                     YES, JUMP
00000B7E 4110 B39F               0000039F   1457          LA    R1,=C'LNKAUTH=APFTAB'
                                            1458          AGO   .XLNKL                                 <38J>
                                            1459 .XLNKL   ANOP                              <38J>
                                            1460 *ENDLOOP
00000B82 45E0 B1AE               000001AE   1461          BAL   R14,SPACE1              BLANK LINE
                                            1462          P$END
00000B86 58E0 D0E4               000000E4   1463+PEND0088 L     R14,P$END               RETURN ADDR                MACRO 01-P$END
00000B8A 07FE                               1464+         BR    R14                                                MACRO 01-P$END
                                            1465+         DROP  R12                     SET BY P$BEGIN        <38J>MACRO 01-P$END
                                                                                                                           Page   22 
  ACTIVE USINGS: PSA,R0  CVTMAP,R3  TCB,R4  SCVTSECT,R5  SSVT,R6  RCVT,R7  LINE,R10  BASEADDR,R11  DYN,R13  
  Loc    Object Code      Addr1    Addr2    Stmt  Source Statement                                    DASM V1.75.00 2004/12/29 15:27 
                                            1467 *----------------------------------------------------------------------
                                            1468 *        LIST LPALSTXX LIBRARIES
                                            1469 *----------------------------------------------------------------------
                                            1470 LPALIST  P$BEGIN ,
0000013A                000000E0 00000000   1471+$LTORG   LOCTR                         ADDRESSABLE CODE           MACRO 01-P$BEG
0000013A 45F0 B35C               0000035C   1472+LPALIST  BAL   R15,=X'4AF0,F000,07FF'  ADD HWORD OFFSET, BR FAR   MACRO 01-P$BEG
0000013E 0A5A                               1473+         DC    Y(PROC0090-*)           OFFSET TO FAR ROUTINE      MACRO 01-P$BEG
00000B8C                000003F4 00000000   1474+$FARRTNE LOCTR                         FAR ROUTINES               MACRO 01-P$BEG
00000B90                                    1475+         DS    0D                                            <38J>MACRO 01-P$BEG
00000B90 D3D7C1D3C9E2E340                   1476+         DC    CL8'LPALIST'                                  <38J>MACRO 01-P$BEG
00000B98 05C0                               1477+PROC0090 BALR  R12,0                   LOCAL BASE                 MACRO 01-P$BEG
                        00000B9A            1478+         USING *,R12                   DROPPED BY P$END           MACRO 01-P$BEG
00000B9A 41F0 C008               00000BA2   1479+         LA    R15,PEND0090            LOAD RETRY ADDRESS         MACRO 01-P$BEG
00000B9E 90EF D0E4               000000E4   1480+         STM   R14,R15,P$END           RETURN/RETRY ADDRESSES     MACRO 01-P$BEG
                                            1481          AGO   .XLPAL                            <38J>
                                            1482 .XLPAL   ANOP                                       <38J>
                                            1483 LPALST99 P$END
                        00000BA2            1484+LPALST99 EQU   *                                                  MACRO 01-P$END
00000BA2 58E0 D0E4               000000E4   1485+PEND0090 L     R14,P$END               RETURN ADDR                MACRO 01-P$END
00000BA6 07FE                               1486+         BR    R14                                                MACRO 01-P$END
                                            1487+         DROP  R12                     SET BY P$BEGIN        <38J>MACRO 01-P$END
                                                                                                                           Page   23 
  ACTIVE USINGS: PSA,R0  CVTMAP,R3  TCB,R4  SCVTSECT,R5  SSVT,R6  RCVT,R7  LINE,R10  BASEADDR,R11  DYN,R13  
  Loc    Object Code      Addr1    Addr2    Stmt  Source Statement                                    DASM V1.75.00 2004/12/29 15:27 
                                            1489 *----------------------------------------------------------------------
                                            1490 *        LIST AUTHORIZED LIBRARIES
                                            1491 *----------------------------------------------------------------------
                                            1492 APFLIST  P$BEGIN ,
00000140                000000E0 00000000   1493+$LTORG   LOCTR                         ADDRESSABLE CODE           MACRO 01-P$BEG
00000140 45F0 B35C               0000035C   1494+APFLIST  BAL   R15,=X'4AF0,F000,07FF'  ADD HWORD OFFSET, BR FAR   MACRO 01-P$BEG
00000144 0A6C                               1495+         DC    Y(PROC0092-*)           OFFSET TO FAR ROUTINE      MACRO 01-P$BEG
00000BA8                000003F4 00000000   1496+$FARRTNE LOCTR                         FAR ROUTINES               MACRO 01-P$BEG
00000BA8                                    1497+         DS    0D                                            <38J>MACRO 01-P$BEG
00000BA8 C1D7C6D3C9E2E340                   1498+         DC    CL8'APFLIST'                                  <38J>MACRO 01-P$BEG
00000BB0 05C0                               1499+PROC0092 BALR  R12,0                   LOCAL BASE                 MACRO 01-P$BEG
                        00000BB2            1500+         USING *,R12                   DROPPED BY P$END           MACRO 01-P$BEG
00000BB2 41F0 C094               00000C46   1501+         LA    R15,PEND0092            LOAD RETRY ADDRESS         MACRO 01-P$BEG
00000BB6 90EF D0E4               000000E4   1502+         STM   R14,R15,P$END           RETURN/RETRY ADDRESSES     MACRO 01-P$BEG
00000BBA 5870 31E4               000002E4   1503          L     R7,CVTAUTHL             APF TABLE
00000BBE 4880 7000               00000000   1504          LH    R8,0(,R7)               # OF ENTRIES
                                            1505          STRING 'APF-LIST: ',(CVTAUTHL,,X),                            X
                                                                ((R8),,R9B),' ENTRIES.',INTO=LINE
00000BC2 4DE0 B3E8               000003E8   1506+         BAS   R14,$STRING  R507       CALL @STRING SUB-ROUTINE         01-STRIN
00000BC6 064F                               1507+         DC    AL2((IHB0093P-*)/2)     OFFSET TO FIELD DESCRIPTORS      01-STRIN
00001864                00001132 00000000   1508+$LITERAL LOCTR                         NON-ADDRESSABLE CONSTANTS        01-STRIN
00001864 A0000064                           1509+IHB0093P DC    S(LINE,L'LINE)                                           01-STRIN
00001868 0493000A4000                       1510+         DC    AL2($LIT1056-*,L'$LIT1056,16384)                         01-STRIN
0000186E 31E400040800                       1511+         DC    S(CVTAUTHL,L'CVTAUTHL),AL1(8,0)                          01-STRIN
00001874 000800000109                       1512+         DC    S((R8),0),AL1(1,9)                                       01-STRIN
0000187A 048B0009C000                       1513+         DC    AL2($LIT1057-*,L'$LIT1057,49152)                         01-STRIN
00000BC8                000003F4 00000000   1514+$FARRTNE LOCTR                                                          01-STRIN
00000BC8 45E0 B1AA               000001AA   1515          BAL   R14,SPACE2              BLANK LINE
00000BCC 50A0 D0F0               000000F0   1516          ST    R10,APFTABLE            SAVE ADDR OF 1ST LINE
                                            1517 *LOOP
00000BD0 D263 A000 D0FC 00000000 000000FC   1518 APFLIST3 MVC   LINE,BLANKS
00000BD6 1F11                               1519          SLR   R1,R1
00000BD8 4310 7002               00000002   1520          IC    R1,2(,R7)
00000BDC 4B10 B34A               0000034A   1521          SH    R1,=H'6'                VOLSER LENGTH
                                            1522          STRING (9(R7),(R1)),INTO=DSNAME MOVE DSNAME
00000BE0 4DE0 B3E8               000003E8   1523+         BAS   R14,$STRING  R507       CALL @STRING SUB-ROUTINE         01-STRIN
00000BE4 064E                               1524+         DC    AL2((IHB0094P-*)/2)     OFFSET TO FIELD DESCRIPTORS      01-STRIN
00001880                00001132 00000000   1525+$LITERAL LOCTR                         NON-ADDRESSABLE CONSTANTS        01-STRIN
00001880 A002002C                           1526+IHB0094P DC    S(DSNAME,L'DSNAME)                                       01-STRIN
00001884 700910008000                       1527+         DC    S(9(R7),0(R1)),AL1(128,0)                                01-STRIN
00000BE6                000003F4 00000000   1528+$FARRTNE LOCTR                                                          01-STRIN
00000BE6 D205 A031 7003 00000031 00000003   1529          MVC   VOLSER,3(R7)            MOVE VOLSER
00000BEC 926F A03A      0000003A 0000006F   1530          MVI   YYMMDD,C'?'             $OBTAIN REQUIRED
00000BF0 926F A043      00000043 0000006F   1531          MVI   CATUNCAT,C'?'           $LOCATE REQUIRED
00000BF4 41A0 A064               00000064   1532          LA    R10,NEXTLINE
00000BF8 4171 7007               00000007   1533          LA    R7,7(R1,R7)             NEXT ENTRY
00000BFC 4680 C01E               00000BD0   1534          BCT   R8,APFLIST3
                                            1535 *ENDLOOP
                                                                                                                           Page   24 
  ACTIVE USINGS: PSA,R0  CVTMAP,R3  TCB,R4  SCVTSECT,R5  SSVT,R6  RCVT,R7  LINE,R10  BASEADDR,R11  SHOWMVS+X'BB2',R12  DYN,R13  
  Loc    Object Code      Addr1    Addr2    Stmt  Source Statement                                    DASM V1.75.00 2004/12/29 15:27 
                                            1537 *----------------------------------------------------------------------
                                            1538 *------- TRI DE LA TABLE APF-LIST -------------------------------------
                                            1539 *----------------------------------------------------------------------
00000C00 4100 0064               00000064   1540          LA    R0,L'LINE               LONGUEUR D'UN POSTE
00000C04 181A                               1541          LR    R1,R10                  A(NEXTLINE)
00000C06 1F10                               1542          SLR   R1,R0                   DERNIER POSTE DE LA TABLE
00000C08 9001 D0F4               000000F4   1543          STM   R0,R1,APFTABLE+4        LONGUEUR, DERNIER POSTE
                                            1544 *LOOP
00000C0C 9200 D000      00000000 00000000   1545 TRIZO    MVI   0(R13),0                ETAT INITIAL DE L'INDICATEUR
00000C10 58F0 D0F0               000000F0   1546          L     R15,APFTABLE            DEBUT DE LA TABLE  N=1
                        00000000            1547          USING LINE,R15
00000C14 1F10                               1548          SLR   R1,R0                   LE DERNIER POSTE EST TRIE
                                            1549 *--LOOP
00000C16 D52B F002 F066 00000002 00000066   1550 TRIZOC   CLC   DSNAME,DSNAME+L'LINE    (POSTE N) GT (POSTE N+1) ?
00000C1C 47D0 C084               00000C36   1551          BNH   TRIZOH                  SI NON, BRANCH
00000C20 D763 F000 F064 00000000 00000064   1552          XC    LINE,NEXTLINE           SI (POSTE N+1) LT (POSTE N)
00000C26 D763 F064 F000 00000064 00000000   1553          XC    NEXTLINE,LINE            RENVERSER LES
00000C2C D763 F000 F064 00000000 00000064   1554          XC    LINE,NEXTLINE             DEUX POSTES.
00000C32 9208 D000      00000000 00000008   1555          MVI   0(R13),8                NOTER LE DECLASSEMENT
00000C36 87F0 C064               00000C16   1556 TRIZOH   BXLE  R15,R0,TRIZOC           FAIRE N=N+1
                                            1557 *--ENDLOOP
00000C3A 9500 D000      00000000 00000000   1558 TRIZON   CLI   0(R13),0                Y-A-T-IL EU UN DECLASSEMENT ?
00000C3E 4770 C05A               00000C0C   1559          BNE   TRIZO                   SI OUI, REFAIRE UN PASSAGE
                                            1560 *ENDLOOP
                                            1561          DROP  R15                     LINE
00000C42 45E0 B1AE               000001AE   1562          BAL   R14,SPACE1              BLANK LINE
                                            1563          P$END
00000C46 58E0 D0E4               000000E4   1564+PEND0092 L     R14,P$END               RETURN ADDR                MACRO 01-P$END
00000C4A 07FE                               1565+         BR    R14                                                MACRO 01-P$END
                                            1566+         DROP  R12                     SET BY P$BEGIN        <38J>MACRO 01-P$END
                                                                                                                           Page   25 
  ACTIVE USINGS: PSA,R0  CVTMAP,R3  TCB,R4  SCVTSECT,R5  SSVT,R6  RCVT,R7  LINE,R10  BASEADDR,R11  DYN,R13  
  Loc    Object Code      Addr1    Addr2    Stmt  Source Statement                                    DASM V1.75.00 2004/12/29 15:27 
                                            1568 *----------------------------------------------------------------------
                                            1569 *        SCAN TIOT
                                            1570 *----------------------------------------------------------------------
                                            1571 SCANTIOT P$BEGIN ,
00000146                000000E0 00000000   1572+$LTORG   LOCTR                         ADDRESSABLE CODE           MACRO 01-P$BEG
00000146 45F0 B35C               0000035C   1573+SCANTIOT BAL   R15,=X'4AF0,F000,07FF'  ADD HWORD OFFSET, BR FAR   MACRO 01-P$BEG
0000014A 0B0E                               1574+         DC    Y(PROC0096-*)           OFFSET TO FAR ROUTINE      MACRO 01-P$BEG
00000C4C                000003F4 00000000   1575+$FARRTNE LOCTR                         FAR ROUTINES               MACRO 01-P$BEG
00000C50                                    1576+         DS    0D                                            <38J>MACRO 01-P$BEG
00000C50 E2C3C1D5E3C9D6E3                   1577+         DC    CL8'SCANTIOT'                                 <38J>MACRO 01-P$BEG
00000C58 05C0                               1578+PROC0096 BALR  R12,0                   LOCAL BASE                 MACRO 01-P$BEG
                        00000C5A            1579+         USING *,R12                   DROPPED BY P$END           MACRO 01-P$BEG
00000C5A 41F0 C008               00000C62   1580+         LA    R15,PEND0096            LOAD RETRY ADDRESS         MACRO 01-P$BEG
00000C5E 90EF D0E4               000000E4   1581+         STM   R14,R15,P$END           RETURN/RETRY ADDRESSES     MACRO 01-P$BEG
                                            1582          AGO   .XSCTIOT                                <38J>
                                            1583 .XSCTIOT ANOP                                     <38J>
                                            1584          P$END
00000C62 58E0 D0E4               000000E4   1585+PEND0096 L     R14,P$END               RETURN ADDR                MACRO 01-P$END
00000C66 07FE                               1586+         BR    R14                                                MACRO 01-P$END
                                            1587+         DROP  R12                     SET BY P$BEGIN        <38J>MACRO 01-P$END
                                                                                                                           Page   26 
  ACTIVE USINGS: PSA,R0  CVTMAP,R3  TCB,R4  SCVTSECT,R5  SSVT,R6  RCVT,R7  LINE,R10  BASEADDR,R11  DYN,R13  
  Loc    Object Code      Addr1    Addr2    Stmt  Source Statement                                    DASM V1.75.00 2004/12/29 15:27 
                                            1589 *----------------------------------------------------------------------
                                            1590 *        DISPLAY TCB TREE AND RB CHAINS
                                            1591 *----------------------------------------------------------------------
                                            1592 TCB_TREE P$BEGIN
0000014C                000000E0 00000000   1593+$LTORG   LOCTR                         ADDRESSABLE CODE           MACRO 01-P$BEG
0000014C 45F0 B35C               0000035C   1594+TCB_TREE BAL   R15,=X'4AF0,F000,07FF'  ADD HWORD OFFSET, BR FAR   MACRO 01-P$BEG
00000150 0B20                               1595+         DC    Y(PROC0098-*)           OFFSET TO FAR ROUTINE      MACRO 01-P$BEG
00000C68                000003F4 00000000   1596+$FARRTNE LOCTR                         FAR ROUTINES               MACRO 01-P$BEG
00000C68                                    1597+         DS    0D                                            <38J>MACRO 01-P$BEG
00000C68 E3C3C26DE3D9C5C5                   1598+         DC    CL8'TCB_TREE'                                 <38J>MACRO 01-P$BEG
00000C70 05C0                               1599+PROC0098 BALR  R12,0                   LOCAL BASE                 MACRO 01-P$BEG
                        00000C72            1600+         USING *,R12                   DROPPED BY P$END           MACRO 01-P$BEG
00000C72 41F0 C0A0               00000D12   1601+         LA    R15,PEND0098            LOAD RETRY ADDRESS         MACRO 01-P$BEG
00000C76 90EF D0E4               000000E4   1602+         STM   R14,R15,P$END           RETURN/RETRY ADDRESSES     MACRO 01-P$BEG
00000C7A 5840 D0C8               000000C8   1603          L     R4,JSTCB                THE JOB STEP TCB
                                            1604          STRING 'TCB TREE AND RB CHAINS:',INTO=LINE
00000C7E 4DE0 B3E8               000003E8   1605+         BAS   R14,$STRING  R507       CALL @STRING SUB-ROUTINE         01-STRIN
00000C82 0604                               1606+         DC    AL2((IHB0099P-*)/2)     OFFSET TO FIELD DESCRIPTORS      01-STRIN
0000188A                00001132 00000000   1607+$LITERAL LOCTR                         NON-ADDRESSABLE CONSTANTS        01-STRIN
0000188A A0000064                           1608+IHB0099P DC    S(LINE,L'LINE)                                           01-STRIN
0000188E 04800017C000                       1609+         DC    AL2($LIT1058-*,L'$LIT1058,49152)                         01-STRIN
00000C84                000003F4 00000000   1610+$FARRTNE LOCTR                                                          01-STRIN
00000C84 45E0 B1AA               000001AA   1611          BAL   R14,SPACE2              BLANK LINE
                                            1612          STRING 4X,'TCB ADDRESS',19X,INTO=LINE,                        X
                                                                'PROGRAM     IC    STAB  CDFLGS    DDNAME'
00000C88 4DE0 B3E8               000003E8   1613+         BAS   R14,$STRING  R507       CALL @STRING SUB-ROUTINE         01-STRIN
00000C8C 0604                               1614+         DC    AL2((IHB0100P-*)/2)     OFFSET TO FIELD DESCRIPTORS      01-STRIN
00001894                00001132 00000000   1615+$LITERAL LOCTR                         NON-ADDRESSABLE CONSTANTS        01-STRIN
00001894 A0000064                           1616+IHB0100P DC    S(LINE,L'LINE)                                           01-STRIN
00001898 000000044000                       1617+         DC    AL2(0,4,16384)          BLANKS                           01-STRIN
0000189E 0487000B4000                       1618+         DC    AL2($LIT1059-*,L'$LIT1059,16384)                         01-STRIN
000018A4 000000134000                       1619+         DC    AL2(0,19,16384)         BLANKS                           01-STRIN
000018AA 04860028C000                       1620+         DC    AL2($LIT1060-*,L'$LIT1060,49152)                         01-STRIN
00000C8E                000003F4 00000000   1621+$FARRTNE LOCTR                                                          01-STRIN
00000C8E 45E0 B1AA               000001AA   1622          BAL   R14,SPACE2              BLANK LINE
00000C92 1F33                               1623          SLR   R3,R3                   INDENTATION INDEX
                                            1624 *LOOP
00000C94 BE47 D098               00000098   1625 TREE100  STCM  R4,B'0111',DWD          STORE TCB ADDR
                                            1626          STRING (BLANKS,4(R3)),(DWD,3,X),INTO=LINE
00000C98 4DE0 B3E8               000003E8   1627+         BAS   R14,$STRING  R507       CALL @STRING SUB-ROUTINE         01-STRIN
00000C9C 060A                               1628+         DC    AL2((IHB0101P-*)/2)     OFFSET TO FIELD DESCRIPTORS      01-STRIN
000018B0                00001132 00000000   1629+$LITERAL LOCTR                         NON-ADDRESSABLE CONSTANTS        01-STRIN
000018B0 A0000064                           1630+IHB0101P DC    S(LINE,L'LINE)                                           01-STRIN
000018B4 D0FC30040000                       1631+         DC    S(BLANKS,4(R3)),AL1(0,0)                                 01-STRIN
000018BA D09800038800                       1632+         DC    S(DWD,3),AL1(136,0)                                      01-STRIN
00000C9E                000003F4 00000000   1633+$FARRTNE LOCTR                                                          01-STRIN
00000C9E 5850 4000               00000020   1634          L     R5,TCBRBP               POINT TO TOP RB
00000CA2 4190 D39C               0000039C   1635          LA    R9,WK256                START OF RB TABLE
                                            1636 *
                                            1637 *        BUILD RB TABLE
                                            1638 *--LOOP
00000CA6 BF58 0010               00000010   1639 TREE110  ICM   R5,B'1000',CVTPTR       CLEAN UP HI-ORDER BYTE
00000CAA 4B50 B34C               0000034C   1640          SH    R5,=Y(RBBASIC-RBPREFIX) POINT TO RBPREFIX
                        00000000            1641          USING RBPREFIX,R5
00000CAE 5050 9000               00000000   1642          ST    R5,0(,R9)               STORE RB ADDRESS
00000CB2 9180 504B      0000004B 00000080   1643          TM    RBSTAB2,RBTCBNXT        CHECK FOR END OF CHAIN
00000CB6 5850 505C               0000005C   1644          L     R5,RBLINK               POINT TO PREVIOUS RB (OR TCB)
00000CBA 4190 9004               00000004   1645          LA    R9,4(,R9)               BUMP UP TO NEXT TABLE ENTRY
00000CBE 4780 C034               00000CA6   1646          BZ    TREE110                 JUMP IF RB FOR 1ST ATTACHED PGM
                                            1647 *--ENDLOOP
                                            1648 *
                                            1649 *        PROCESS RB TABLE BACKWARDS
                                            1650 *--LOOP
00000CC2 4B90 B34E               0000034E   1651 TREE200  SH    R9,=H'4'                PREVIOUS ENTRY IN RB TABLE
00000CC6 5850 9000               00000000   1652          L     R5,0(,R9)               LOAD RB ADDRESS
00000CCA 9500 504A      0000004A 00000000   1653          CLI   RBSTAB1,RBFTPRB         IS THIS A PRB?
00000CCE 4770 C08A               00000CFC   1654          BNE   TREE280                 NO, IGNORE IT
00000CD2 9104 504C      0000004C 00000004   1655          TM    RBCDFLGS,RBCDSYNC       CHECK FLAGS
00000CD6 4710 C076               00000CE8   1656          BO    TREE260                 JUMP IF IT IS A SYNCH PRB
00000CDA 5810 504C               0000004C   1657          L     R1,RBCDE                POINT TO CDE/LPDE
                                            1658          STRING INTO=(LINE+30,L'LINE),4X,                             XX
                                                                (CDNAME-CDENTRY(R1),8),4X,      PGM NAME               XX
                                                                (RBINTCOD,2,X),4X,      INTERRUPT CODE <38J>           XX
                                                                (RBSTAB,2,X),4X,        STATUS BYTE                    XX
                                                                (RBCDFLGS,,X)           FLAGS
00000CDE 4DE0 B3E8               000003E8   1659+         BAS   R14,$STRING  R507       CALL @STRING SUB-ROUTINE         01-STRIN
00000CE2 05EF                               1660+         DC    AL2((IHB0102P-*)/2)     OFFSET TO FIELD DESCRIPTORS      01-STRIN
000018C0                00001132 00000000   1661+$LITERAL LOCTR                         NON-ADDRESSABLE CONSTANTS        01-STRIN
000018C0 A01E0064                           1662+IHB0102P DC    S(LINE+30,L'LINE)                                        01-STRIN
000018C4 000000044000                       1663+         DC    AL2(0,4,16384)          BLANKS                           01-STRIN
000018CA 100800080000                       1664+         DC    S(CDNAME-CDENTRY(R1),8),AL1(0,0)                         01-STRIN
000018D0 000000044000                       1665+         DC    AL2(0,4,16384)          BLANKS                           01-STRIN
000018D6 503E00020800                       1666+         DC    S(RBINTCOD,2),AL1(8,0)                                   01-STRIN
000018DC 000000044000                       1667+         DC    AL2(0,4,16384)          BLANKS                           01-STRIN
000018E2 504A00020800                       1668+         DC    S(RBSTAB,2),AL1(8,0)                                     01-STRIN
000018E8 000000044000                       1669+         DC    AL2(0,4,16384)          BLANKS                           01-STRIN
000018EE 504C00018800                       1670+         DC    S(RBCDFLGS,L'RBCDFLGS),AL1(136,0)                        01-STRIN
00000CE4                000003F4 00000000   1671+$FARRTNE LOCTR                                                          01-STRIN
                                            1672 *8             (RBWLIC+3,1,X),         IC
00000CE4 47F0 C086               00000CF8   1673          B     TREE270
00000CE8 D207 D098 509C 00000098 0000009C   1674 TREE260  MVC   DWD,RBGRS15             PICK UP ENTRY POINT ADDRESS
00000CEE 94FE D09B      0000009B 000000FE   1675          NI    DWD+3,X'FE'             SET BIT 31 TO ZERO
                                            1676          STRING INTO=(LINE+30,L'LINE),4X,                             XX
                                                                (DWD,4,X),4X,           EP ADDRESS                     XX
                                                                (RBINTCOD,2,X),4X,      INTERRUPT CODE <38J>           XX
                                                                (RBSTAB,2,X),4X,                                       XX
                                                                (RBCDFLGS,,X)
00000CF2 4DE0 B3E8               000003E8   1677+         BAS   R14,$STRING  R507       CALL @STRING SUB-ROUTINE         01-STRIN
00000CF6 05FF                               1678+         DC    AL2((IHB0103P-*)/2)     OFFSET TO FIELD DESCRIPTORS      01-STRIN
000018F4                00001132 00000000   1679+$LITERAL LOCTR                         NON-ADDRESSABLE CONSTANTS        01-STRIN
000018F4 A01E0064                           1680+IHB0103P DC    S(LINE+30,L'LINE)                                        01-STRIN
000018F8 000000044000                       1681+         DC    AL2(0,4,16384)          BLANKS                           01-STRIN
000018FE D09800040800                       1682+         DC    S(DWD,4),AL1(8,0)                                        01-STRIN
00001904 000000044000                       1683+         DC    AL2(0,4,16384)          BLANKS                           01-STRIN
0000190A 503E00020800                       1684+         DC    S(RBINTCOD,2),AL1(8,0)                                   01-STRIN
00001910 000000044000                       1685+         DC    AL2(0,4,16384)          BLANKS                           01-STRIN
00001916 504A00020800                       1686+         DC    S(RBSTAB,2),AL1(8,0)                                     01-STRIN
0000191C 000000044000                       1687+         DC    AL2(0,4,16384)          BLANKS                           01-STRIN
00001922 504C00018800                       1688+         DC    S(RBCDFLGS,L'RBCDFLGS),AL1(136,0)                        01-STRIN
00000CF8                000003F4 00000000   1689+$FARRTNE LOCTR                                                          01-STRIN
                                            1690 *8             (RBWLIC+3,1,X),
                                            1691 *
00000CF8 41A0 A064               00000064   1692 TREE270  LA    R10,NEXTLINE            NEXT LINE
00000CFC 4100 D39C               0000039C   1693 TREE280  LA    R0,WK256                CHECK FOR END OF CHAIN
00000D00 1990                               1694          CR    R9,R0                   CHECK FOR END OF CHAIN
00000D02 4720 C050               00000CC2   1695          BH    TREE200                 LOOP THROUGH RB TABLE
                                            1696 *--ENDLOOP
00000D06 45E0 B2E4               000002E4   1697          BAL   R14,SCANTCB             GET NEXT TCB
00000D0A 4770 C022               00000C94   1698          BNZ   TREE100                 PROCESS NEXT TCB
                                            1699 *ENDLOOP
00000D0E 45E0 B1AE               000001AE   1700          BAL   R14,SPACE1              BLANK LINE
                                            1701          P$END
00000D12 58E0 D0E4               000000E4   1702+PEND0098 L     R14,P$END               RETURN ADDR                MACRO 01-P$END
00000D16 07FE                               1703+         BR    R14                                                MACRO 01-P$END
                                            1704+         DROP  R12                     SET BY P$BEGIN        <38J>MACRO 01-P$END
                                                                                                                           Page   27 
  ACTIVE USINGS: PSA,R0  CVTMAP,R3  TCB,R4  RBPREFIX,R5  SSVT,R6  RCVT,R7  LINE,R10  BASEADDR,R11  DYN,R13  
  Loc    Object Code      Addr1    Addr2    Stmt  Source Statement                                    DASM V1.75.00 2004/12/29 15:27 
                                            1706 *----------------------------------------------------------------------
                                            1707 *        DISPLAY JPAQ (CDE CHAIN)
                                            1708 *----------------------------------------------------------------------
                                            1709 JPAQ     P$BEGIN ,
00000152                000000E0 00000000   1710+$LTORG   LOCTR                         ADDRESSABLE CODE           MACRO 01-P$BEG
00000152 45F0 B35C               0000035C   1711+JPAQ     BAL   R15,=X'4AF0,F000,07FF'  ADD HWORD OFFSET, BR FAR   MACRO 01-P$BEG
00000156 0BCA                               1712+         DC    Y(PROC0105-*)           OFFSET TO FAR ROUTINE      MACRO 01-P$BEG
00000D18                000003F4 00000000   1713+$FARRTNE LOCTR                         FAR ROUTINES               MACRO 01-P$BEG
00000D18                                    1714+         DS    0D                                            <38J>MACRO 01-P$BEG
00000D18 D1D7C1D840404040                   1715+         DC    CL8'JPAQ'                                     <38J>MACRO 01-P$BEG
00000D20 05C0                               1716+PROC0105 BALR  R12,0                   LOCAL BASE                 MACRO 01-P$BEG
                        00000D22            1717+         USING *,R12                   DROPPED BY P$END           MACRO 01-P$BEG
00000D22 41F0 C050               00000D72   1718+         LA    R15,PEND0105            LOAD RETRY ADDRESS         MACRO 01-P$BEG
00000D26 90EF D0E4               000000E4   1719+         STM   R14,R15,P$END           RETURN/RETRY ADDRESSES     MACRO 01-P$BEG
00000D2A 5840 D0C8               000000C8   1720          L     R4,JSTCB                THE JOB STEP TCB
                                            1721          STRING 'JPAQ:',INTO=LINE
00000D2E 4DE0 B3E8               000003E8   1722+         BAS   R14,$STRING  R507       CALL @STRING SUB-ROUTINE         01-STRIN
00000D32 05FB                               1723+         DC    AL2((IHB0106P-*)/2)     OFFSET TO FIELD DESCRIPTORS      01-STRIN
00001928                00001132 00000000   1724+$LITERAL LOCTR                         NON-ADDRESSABLE CONSTANTS        01-STRIN
00001928 A0000064                           1725+IHB0106P DC    S(LINE,L'LINE)                                           01-STRIN
0000192C 042C0005C000                       1726+         DC    AL2($LIT1061-*,L'$LIT1061,49152)                         01-STRIN
00000D34                000003F4 00000000   1727+$FARRTNE LOCTR                                                          01-STRIN
00000D34 45E0 B1AA               000001AA   1728          BAL   R14,SPACE2              BLANK LINE
00000D38 5850 402C               0000004C   1729          L     R5,TCBJPQ               POINT TO FIRST CDE IN CHAIN
                        00000000            1730          USING CDENTRY,R5
                                            1731          STRING '   NAME     ENTPT     USE ',                          X
                                                                ' ATTRB SP ATTR ATTR2',                                 X
                                                                '  MAJ-CDE    LENGTH   LOAD-PNT',INTO=LINE
00000D3C 4DE0 B3E8               000003E8   1732+         BAS   R14,$STRING  R507       CALL @STRING SUB-ROUTINE         01-STRIN
00000D40 05F9                               1733+         DC    AL2((IHB0107P-*)/2)     OFFSET TO FIELD DESCRIPTORS      01-STRIN
00001932                00001132 00000000   1734+$LITERAL LOCTR                         NON-ADDRESSABLE CONSTANTS        01-STRIN
00001932 A0000064                           1735+IHB0107P DC    S(LINE,L'LINE)                                           01-STRIN
00001936 0427001A4000                       1736+         DC    AL2($LIT1062-*,L'$LIT1062,16384)                         01-STRIN
0000193C 043B00144000                       1737+         DC    AL2($LIT1063-*,L'$LIT1063,16384)                         01-STRIN
00001942 0449001EC000                       1738+         DC    AL2($LIT1064-*,L'$LIT1064,49152)                         01-STRIN
00000D42                000003F4 00000000   1739+$FARRTNE LOCTR                                                          01-STRIN
00000D42 45E0 B1AA               000001AA   1740          BAL   R14,SPACE2              BLANK LINE
                                            1741 *LOOP
00000D46 5860 5014               00000014   1742 JPAQ21   L     R6,CDXLMJP              POINT TO XL (OR MAJOR CDE)
00000D4A 9104 501C      0000001C 00000004   1743          TM    CDATTR,CDMIN            CHECK ATTRIBUTES
00000D4E 4710 C03A               00000D5C   1744          BO    JPAQ25                  JUMP IF THIS IS A MINOR CDE
                        00000000            1745          USING XTLST,R6
                                            1746          STRING 3X,CDNAME,1X,(CDENTPT,,X),2X,(CDUSE,,X),3X,            X
                                                                (CDATTRB,,X),2X,(CDATTR,,X),4X,           <38J>         X
                                                                (CDATTR2,,X),14X,(XTLMSBLN,,X),3X,(XTLMSBAD,,X),        X
                                                                INTO=LINE
00000D52 4DE0 B3E8               000003E8   1747+         BAS   R14,$STRING  R507       CALL @STRING SUB-ROUTINE         01-STRIN
00000D56 05F9                               1748+         DC    AL2((IHB0108P-*)/2)     OFFSET TO FIELD DESCRIPTORS      01-STRIN
00001948                00001132 00000000   1749+$LITERAL LOCTR                         NON-ADDRESSABLE CONSTANTS        01-STRIN
00001948 A0000064                           1750+IHB0108P DC    S(LINE,L'LINE)                                           01-STRIN
0000194C 000000034000                       1751+         DC    AL2(0,3,16384)          BLANKS                           01-STRIN
00001952 500800080000                       1752+         DC    S(CDNAME,L'CDNAME),AL1(0,0)                              01-STRIN
00001958 000000014000                       1753+         DC    AL2(0,1,16384)          BLANKS                           01-STRIN
0000195E 501000040800                       1754+         DC    S(CDENTPT,L'CDENTPT),AL1(8,0)                            01-STRIN
00001964 000000024000                       1755+         DC    AL2(0,2,16384)          BLANKS                           01-STRIN
0000196A 501800020800                       1756+         DC    S(CDUSE,L'CDUSE),AL1(8,0)                                01-STRIN
00001970 000000034000                       1757+         DC    AL2(0,3,16384)          BLANKS                           01-STRIN
00001976 501A00010800                       1758+         DC    S(CDATTRB,L'CDATTRB),AL1(8,0)                            01-STRIN
0000197C 000000024000                       1759+         DC    AL2(0,2,16384)          BLANKS                           01-STRIN
00001982 501C00010800                       1760+         DC    S(CDATTR,L'CDATTR),AL1(8,0)                              01-STRIN
00001988 000000044000                       1761+         DC    AL2(0,4,16384)          BLANKS                           01-STRIN
0000198E 501D00010800                       1762+         DC    S(CDATTR2,L'CDATTR2),AL1(8,0)                            01-STRIN
00001994 0000000E4000                       1763+         DC    AL2(0,14,16384)         BLANKS                           01-STRIN
0000199A 600900030800                       1764+         DC    S(XTLMSBLN,L'XTLMSBLN),AL1(8,0)                          01-STRIN
000019A0 000000034000                       1765+         DC    AL2(0,3,16384)          BLANKS                           01-STRIN
000019A6 600D00038800                       1766+         DC    S(XTLMSBAD,L'XTLMSBAD),AL1(136,0)                        01-STRIN
00000D58                000003F4 00000000   1767+$FARRTNE LOCTR                                                          01-STRIN
                                            1768 *8             (CDSP,,X)
00000D58 47F0 C040               00000D62   1769          B     JPAQ29
00000D5C                                    1770 JPAQ25   DS    0H
                                            1771          STRING 3X,CDNAME,1X,(CDENTPT,,X),9X,(CDATTRB,,X),6X,          X
                                                                (CDATTR,,X),4X,(CDATTR2,,X),3X,(CDNAME-CDENTRY(R6),8),  X
                                                                INTO=LINE
00000D5C 4DE0 B3E8               000003E8   1772+         BAS   R14,$STRING  R507       CALL @STRING SUB-ROUTINE         01-STRIN
00000D60 0626                               1773+         DC    AL2((IHB0109P-*)/2)     OFFSET TO FIELD DESCRIPTORS      01-STRIN
000019AC                00001132 00000000   1774+$LITERAL LOCTR                         NON-ADDRESSABLE CONSTANTS        01-STRIN
000019AC A0000064                           1775+IHB0109P DC    S(LINE,L'LINE)                                           01-STRIN
000019B0 000000034000                       1776+         DC    AL2(0,3,16384)          BLANKS                           01-STRIN
000019B6 500800080000                       1777+         DC    S(CDNAME,L'CDNAME),AL1(0,0)                              01-STRIN
000019BC 000000014000                       1778+         DC    AL2(0,1,16384)          BLANKS                           01-STRIN
000019C2 501000040800                       1779+         DC    S(CDENTPT,L'CDENTPT),AL1(8,0)                            01-STRIN
000019C8 000000094000                       1780+         DC    AL2(0,9,16384)          BLANKS                           01-STRIN
000019CE 501A00010800                       1781+         DC    S(CDATTRB,L'CDATTRB),AL1(8,0)                            01-STRIN
000019D4 000000064000                       1782+         DC    AL2(0,6,16384)          BLANKS                           01-STRIN
000019DA 501C00010800                       1783+         DC    S(CDATTR,L'CDATTR),AL1(8,0)                              01-STRIN
000019E0 000000044000                       1784+         DC    AL2(0,4,16384)          BLANKS                           01-STRIN
000019E6 501D00010800                       1785+         DC    S(CDATTR2,L'CDATTR2),AL1(8,0)                            01-STRIN
000019EC 000000034000                       1786+         DC    AL2(0,3,16384)          BLANKS                           01-STRIN
000019F2 600800088000                       1787+         DC    S(CDNAME-CDENTRY(R6),8),AL1(128,0)                       01-STRIN
00000D62                000003F4 00000000   1788+$FARRTNE LOCTR                                                          01-STRIN
00000D62 41A0 A064               00000064   1789 JPAQ29   LA    R10,NEXTLINE            NEXT LINE
00000D66 BF5F 5000               00000000   1790          ICM   R5,B'1111',CDCHAIN      CHECK FOR END OF CHAIN
00000D6A 4770 C024               00000D46   1791          BNZ   JPAQ21                  LOOP THROUGH RB TABLE
                                            1792 *ENDLOOP
                                            1793          DROP  R5,R6                   CDE, XTLST
00000D6E 45E0 B1AE               000001AE   1794          BAL   R14,SPACE1              BLANK LINE
                                            1795          P$END
00000D72 58E0 D0E4               000000E4   1796+PEND0105 L     R14,P$END               RETURN ADDR                MACRO 01-P$END
00000D76 07FE                               1797+         BR    R14                                                MACRO 01-P$END
                                            1798+         DROP  R12                     SET BY P$BEGIN        <38J>MACRO 01-P$END
                                            1799          DROP  R3                      CVT
                                                                                                                           Page   28 
  ACTIVE USINGS: PSA,R0  TCB,R4  RCVT,R7  LINE,R10  BASEADDR,R11  DYN,R13  
  Loc    Object Code      Addr1    Addr2    Stmt  Source Statement                                    DASM V1.75.00 2004/12/29 15:27 
                                            1801 *----------------------------------------------------------------------
                                            1802 *        DISPLAY LOAD-LISTS
                                            1803 *----------------------------------------------------------------------
                                            1804 LOADLIST P$BEGIN
00000158                000000E0 00000000   1805+$LTORG   LOCTR                         ADDRESSABLE CODE           MACRO 01-P$BEG
00000158 45F0 B35C               0000035C   1806+LOADLIST BAL   R15,=X'4AF0,F000,07FF'  ADD HWORD OFFSET, BR FAR   MACRO 01-P$BEG
0000015C 0C24                               1807+         DC    Y(PROC0111-*)           OFFSET TO FAR ROUTINE      MACRO 01-P$BEG
00000D78                000003F4 00000000   1808+$FARRTNE LOCTR                         FAR ROUTINES               MACRO 01-P$BEG
00000D78                                    1809+         DS    0D                                            <38J>MACRO 01-P$BEG
00000D78 D3D6C1C4D3C9E2E3                   1810+         DC    CL8'LOADLIST'                                 <38J>MACRO 01-P$BEG
00000D80 05C0                               1811+PROC0111 BALR  R12,0                   LOCAL BASE                 MACRO 01-P$BEG
                        00000D82            1812+         USING *,R12                   DROPPED BY P$END           MACRO 01-P$BEG
00000D82 41F0 C06C               00000DEE   1813+         LA    R15,PEND0111            LOAD RETRY ADDRESS         MACRO 01-P$BEG
00000D86 90EF D0E4               000000E4   1814+         STM   R14,R15,P$END           RETURN/RETRY ADDRESSES     MACRO 01-P$BEG
00000D8A 5840 D0C8               000000C8   1815          L     R4,JSTCB                THE JOB STEP TCB
                                            1816          STRING 'LOAD-LIST:',INTO=LINE
00000D8E 4DE0 B3E8               000003E8   1817+         BAS   R14,$STRING  R507       CALL @STRING SUB-ROUTINE         01-STRIN
00000D92 0633                               1818+         DC    AL2((IHB0112P-*)/2)     OFFSET TO FIELD DESCRIPTORS      01-STRIN
000019F8                00001132 00000000   1819+$LITERAL LOCTR                         NON-ADDRESSABLE CONSTANTS        01-STRIN
000019F8 A0000064                           1820+IHB0112P DC    S(LINE,L'LINE)                                           01-STRIN
000019FC 03AD000AC000                       1821+         DC    AL2($LIT1065-*,L'$LIT1065,49152)                         01-STRIN
00000D94                000003F4 00000000   1822+$FARRTNE LOCTR                                                          01-STRIN
00000D94 41A0 A064               00000064   1823          LA    R10,NEXTLINE
00000D98 1F33                               1824          SLR   R3,R3                   INDENTATION INDEX
                                            1825 *LOOP
00000D9A BF9F 4024               00000044   1826 LOADL11  ICM   R9,B'1111',TCBLLS       POINT TO LAST LLE IN CHAIN
00000D9E 4780 C060               00000DE2   1827          BZ    LOADL80                 SKIP THIS TCB IF NO LLE CHAIN
                        00000000            1828          USING LLE,R9
                                            1829 *
00000DA2 45E0 B1AE               000001AE   1830          BAL   R14,SPACE1              BLANK LINE
00000DA6 BE47 D098               00000098   1831          STCM  R4,B'0111',DWD          STORE TCB ADDR
00000DAA 5850 4000               00000020   1832          L     R5,TCBRBP               TOP RB
                        00000040            1833          USING RBBASIC,R5
00000DAE 9104 500C      0000004C 00000004   1834          TM    RBCDFLGS,RBCDSYNC       CHECK FLAGS
00000DB2 47E0 C038               00000DBA   1835          BNO   *+8                     JUMP IF IT IS NOT A SYNCH PRB
00000DB6 BF57 501D               0000005D   1836          ICM   R5,B'0111',RBLINK+1     POINT TO PREVIOUS RB IF SYNCH RB
00000DBA 5850 500C               0000004C   1837          L     R5,RBCDE                POINT TO CDE/LPDE
                        00000000            1838          USING CDENTRY,R5
                                            1839          STRING '  TCB ',(DWD,3,X),'  PGM ',CDNAME,INTO=LINE
00000DBE 4DE0 B3E8               000003E8   1840+         BAS   R14,$STRING  R507       CALL @STRING SUB-ROUTINE         01-STRIN
00000DC2 0620                               1841+         DC    AL2((IHB0113P-*)/2)     OFFSET TO FIELD DESCRIPTORS      01-STRIN
00001A02                00001132 00000000   1842+$LITERAL LOCTR                         NON-ADDRESSABLE CONSTANTS        01-STRIN
00001A02 A0000064                           1843+IHB0113P DC    S(LINE,L'LINE)                                           01-STRIN
00001A06 03AD00064000                       1844+         DC    AL2($LIT1066-*,L'$LIT1066,16384)                         01-STRIN
00001A0C D09800030800                       1845+         DC    S(DWD,3),AL1(8,0)                                        01-STRIN
00001A12 03A700064000                       1846+         DC    AL2($LIT1067-*,L'$LIT1067,16384)                         01-STRIN
00001A18 500800088000                       1847+         DC    S(CDNAME,L'CDNAME),AL1(128,0)                            01-STRIN
00000DC4                000003F4 00000000   1848+$FARRTNE LOCTR                                                          01-STRIN
00000DC4 41A0 A064               00000064   1849          LA    R10,NEXTLINE
                                            1850 *--LOOP
00000DC8 BE97 D098               00000098   1851 LOADL70  STCM  R9,B'0111',DWD          STORE LLE ADDR
00000DCC 5850 9004               00000004   1852          L     R5,LLECDPT              CDE PTR
                                            1853          STRING '    LLE ',(DWD,3,X),2X,CDNAME,2X,(CDENTPT,,X),2X,    XX
                                                                (LLECOUNT,,X),1X,(LLESYSCT,,X),INTO=LINE
00000DD0 4DE0 B3E8               000003E8   1854+         BAS   R14,$STRING  R507       CALL @STRING SUB-ROUTINE         01-STRIN
00000DD4 0625                               1855+         DC    AL2((IHB0114P-*)/2)     OFFSET TO FIELD DESCRIPTORS      01-STRIN
00001A1E                00001132 00000000   1856+$LITERAL LOCTR                         NON-ADDRESSABLE CONSTANTS        01-STRIN
00001A1E A0000064                           1857+IHB0114P DC    S(LINE,L'LINE)                                           01-STRIN
00001A22 039D00084000                       1858+         DC    AL2($LIT1068-*,L'$LIT1068,16384)                         01-STRIN
00001A28 D09800030800                       1859+         DC    S(DWD,3),AL1(8,0)                                        01-STRIN
00001A2E 000000024000                       1860+         DC    AL2(0,2,16384)          BLANKS                           01-STRIN
00001A34 500800080000                       1861+         DC    S(CDNAME,L'CDNAME),AL1(0,0)                              01-STRIN
00001A3A 000000024000                       1862+         DC    AL2(0,2,16384)          BLANKS                           01-STRIN
00001A40 501000040800                       1863+         DC    S(CDENTPT,L'CDENTPT),AL1(8,0)                            01-STRIN
00001A46 000000024000                       1864+         DC    AL2(0,2,16384)          BLANKS                           01-STRIN
00001A4C 900800020800                       1865+         DC    S(LLECOUNT,L'LLECOUNT),AL1(8,0)                          01-STRIN
00001A52 000000014000                       1866+         DC    AL2(0,1,16384)          BLANKS                           01-STRIN
00001A58 900A00028800                       1867+         DC    S(LLESYSCT,L'LLESYSCT),AL1(136,0)                        01-STRIN
00000DD6                000003F4 00000000   1868+$FARRTNE LOCTR                                                          01-STRIN
00000DD6 41A0 A064               00000064   1869          LA    R10,NEXTLINE
00000DDA BF9F 9000               00000000   1870          ICM   R9,B'1111',LLECHN       CHECK FOR END OF CHAIN
00000DDE 4770 C046               00000DC8   1871          BNZ   LOADL70                 LOOP THROUGH LOAD LIST
                                            1872 *--ENDLOOP
00000DE2 45E0 B2E4               000002E4   1873 LOADL80  BAL   R14,SCANTCB             NEXT TCB IN TREE
00000DE6 4770 C018               00000D9A   1874          BNZ   LOADL11
                                            1875 *ENDLOOP
00000DEA 45E0 B1AE               000001AE   1876          BAL   R14,SPACE1                                         <38J>
                                            1877          P$END
00000DEE 58E0 D0E4               000000E4   1878+PEND0111 L     R14,P$END               RETURN ADDR                MACRO 01-P$END
00000DF2 07FE                               1879+         BR    R14                                                MACRO 01-P$END
                                            1880+         DROP  R12                     SET BY P$BEGIN        <38J>MACRO 01-P$END
                                                                                                                           Page   29 
  ACTIVE USINGS: PSA,R0  TCB,R4  CDENTRY,R5  RCVT,R7  LLE,R9  LINE,R10  BASEADDR,R11  DYN,R13  
  Loc    Object Code      Addr1    Addr2    Stmt  Source Statement                                    DASM V1.75.00 2004/12/29 15:27 
                                            1882 *----------------------------------------------------------------------
                                            1883 *        CLOSE SYSPRINT                                           <38J>
                                            1884 *----------------------------------------------------------------------
                                            1885 CLOSE    P$BEGIN
0000015E                000000E0 00000000   1886+$LTORG   LOCTR                         ADDRESSABLE CODE           MACRO 01-P$BEG
0000015E 45F0 B35C               0000035C   1887+CLOSE    BAL   R15,=X'4AF0,F000,07FF'  ADD HWORD OFFSET, BR FAR   MACRO 01-P$BEG
00000162 0C9E                               1888+         DC    Y(PROC0116-*)           OFFSET TO FAR ROUTINE      MACRO 01-P$BEG
00000DF4                000003F4 00000000   1889+$FARRTNE LOCTR                         FAR ROUTINES               MACRO 01-P$BEG
00000DF8                                    1890+         DS    0D                                            <38J>MACRO 01-P$BEG
00000DF8 C3D3D6E2C5404040                   1891+         DC    CL8'CLOSE'                                    <38J>MACRO 01-P$BEG
00000E00 05C0                               1892+PROC0116 BALR  R12,0                   LOCAL BASE                 MACRO 01-P$BEG
                        00000E02            1893+         USING *,R12                   DROPPED BY P$END           MACRO 01-P$BEG
00000E02 41F0 C036               00000E38   1894+         LA    R15,PEND0116            LOAD RETRY ADDRESS         MACRO 01-P$BEG
00000E06 90EF D0E4               000000E4   1895+         STM   R14,R15,P$END           RETURN/RETRY ADDRESSES     MACRO 01-P$BEG
                                            1896          STRING 'DONE',INTO=LINE
00000E0A 4DE0 B3E8               000003E8   1897+         BAS   R14,$STRING  R507       CALL @STRING SUB-ROUTINE         01-STRIN
00000E0E 0628                               1898+         DC    AL2((IHB0117P-*)/2)     OFFSET TO FIELD DESCRIPTORS      01-STRIN
00001A5E                00001132 00000000   1899+$LITERAL LOCTR                         NON-ADDRESSABLE CONSTANTS        01-STRIN
00001A5E A0000064                           1900+IHB0117P DC    S(LINE,L'LINE)                                           01-STRIN
00001A62 03650004C000                       1901+         DC    AL2($LIT1069-*,L'$LIT1069,49152)                         01-STRIN
00000E10                000003F4 00000000   1902+$FARRTNE LOCTR                                                          01-STRIN
00000E10 45E0 B1AA               000001AA   1903          BAL   R14,SPACE2
00000E14 9110 D308      00000308 00000010   1904          TM    DY8DCB+(DCBOFLGS-IHADCB),DCBOFOPN OPENED?
00000E18 47E0 C036               00000E38   1905          BNO   CLOSE99
00000E1C D203 D33C B2A4 0000033C 000002A4   1906          MVC   DY8CLOSE(L$CLOSE),MODLCLOS        COPY CLOSE
                                            1907          CLOSE DY8DCB,MF=(E,DY8CLOSE)            CLOSE SYSPRINT
00000E22 4110 D33C               0000033C   1908+         LA    1,DY8CLOSE                        LOAD PARAMETER REG 1   02-IHBIN
00000E26 43E1 0000               00000000   1909+.QUITNOW IC    14,0(1,0)                         SAVE OPTION BYTE       01-CLOSE
00000E2A 4100 D2D8               000002D8   1910+         LA    0,DY8DCB                          PICK UP DCB ADDRESS    01-CLOSE
00000E2E 5001 0000               00000000   1911+         ST    0,0(1,0)                          STORE INTO LIST        01-CLOSE
00000E32 42E1 0000               00000000   1912+         STC   14,0(1,0)                         RESTORE OPTION BYTE    01-CLOSE
00000E36 0A14                    00000014   1913+.ISSST   SVC   20                                ISSUE CLOSE SVC        01-CLOSE
                                            1914 CLOSE99  P$END
                        00000E38            1915+CLOSE99  EQU   *                                                  MACRO 01-P$END
00000E38 58E0 D0E4               000000E4   1916+PEND0116 L     R14,P$END               RETURN ADDR                MACRO 01-P$END
00000E3C 07FE                               1917+         BR    R14                                                MACRO 01-P$END
                                            1918+         DROP  R12                     SET BY P$BEGIN        <38J>MACRO 01-P$END
                                                                                                                           Page   30 
  ACTIVE USINGS: PSA,R0  TCB,R4  CDENTRY,R5  RCVT,R7  LLE,R9  LINE,R10  BASEADDR,R11  DYN,R13  
  Loc    Object Code      Addr1    Addr2    Stmt  Source Statement                                    DASM V1.75.00 2004/12/29 15:27 
                                            1920 *----------------------------------------------------------------------
                                            1921 *        INVOKE ISPF/PDF "BRIF" SERVICE
                                            1922 *----------------------------------------------------------------------
                                            1923 BRIF     P$BEGIN
00000164                000000E0 00000000   1924+$LTORG   LOCTR                         ADDRESSABLE CODE           MACRO 01-P$BEG
00000164 45F0 B35C               0000035C   1925+BRIF     BAL   R15,=X'4AF0,F000,07FF'  ADD HWORD OFFSET, BR FAR   MACRO 01-P$BEG
00000168 0CE0                               1926+         DC    Y(PROC0121-*)           OFFSET TO FAR ROUTINE      MACRO 01-P$BEG
00000E3E                000003F4 00000000   1927+$FARRTNE LOCTR                         FAR ROUTINES               MACRO 01-P$BEG
00000E40                                    1928+         DS    0D                                            <38J>MACRO 01-P$BEG
00000E40 C2D9C9C640404040                   1929+         DC    CL8'BRIF'                                     <38J>MACRO 01-P$BEG
00000E48 05C0                               1930+PROC0121 BALR  R12,0                   LOCAL BASE                 MACRO 01-P$BEG
                        00000E4A            1931+         USING *,R12                   DROPPED BY P$END           MACRO 01-P$BEG
00000E4A 41F0 C0A6               00000EF0   1932+         LA    R15,PEND0121            LOAD RETRY ADDRESS         MACRO 01-P$BEG
00000E4E 90EF D0E4               000000E4   1933+         STM   R14,R15,P$END           RETURN/RETRY ADDRESSES     MACRO 01-P$BEG
                                            1934 *8       DELETE EP=IEFEB4UV            NO LONGER NEEDED
                                            1935 *
                                            1936 *        ATTACH THE LOCATE/OBTAIN SUB-TASK
                                            1937 *
00000E52 5810 B32C               0000032C   1938          L     R1,=A(SUBTASK)
                                            1939          IDENTIFY EP=SUB_TASK,ENTRY=(1)
00000E56 4500 C018               00000E62   1940+         BAL   0,*+12                            LOAD EP SYMBOL ADDR    01-IDENT
00000E5A E2E4C26DE3C1E2D2                   1941+         DC    CL8'SUB_TASK'                     EP SYMBOL              01-IDENT
00000E62 0A29                    00000029   1942+.SVC     SVC   41                                ISSUE IDENTIFY SVC     01-IDENT
00000E64 4110 D000               00000000   1943          LA    R1,DYN                  PARM FOR THE SUBTASK
                                            1944          ATTACH  EP=SUB_TASK,ECB=ECB1,SF=(E,ATTACHL)
                                            1945+* /* MACDATE Y-1 72271                                               */
                                            1946+* /*
00000E68 41F0 D1C0               000001C0   1947+         LA    15,ATTACHL                        LOAD LIST ADDR INTO 15 01-ATTAC
00000E6C 41EF 001C               0000001C   1948+         LA    14,28(15,0)                       PICK UP EP ADDRESS     01-ATTAC
00000E70 50EF 0000               00000000   1949+         ST    14,0(15,0)                        INSERT EP ADDR IN LIST 01-ATTAC
00000E74 D207 F01C C034 0000001C 00000E7E   1950+         MVC   28(8,15),*+10                     MOVE EP SYMB INTO LIST 01-ATTAC
00000E7A 47F0 C03C               00000E86   1951+         B     *+12                              BRANCH AROUND EP SYMB. 01-ATTAC
00000E7E E2E4C26DE3C1E2D2                   1952+         DC    CL8'SUB_TASK'                     EP SYMBOL              01-ATTAC
00000E86 41E0 D1FC               000001FC   1953+         LA    14,ECB1                           PICK UP ECB ADDRESS    01-ATTAC
00000E8A BEE7 F009               00000009   1954+         STCM  14,7,9(15)                        INSERT ECB INTO LIST   01-ATTAC
00000E8E 9608 F008      00000008 00000008   1955+         OI    8(15),8            SET FLAG BYTE                  Y02752 01-ATTAC
00000E92 9620 F014      00000014 00000020   1956+         OI    20(15),32          OS/VS2 LIST, TQE,FPREGSA       Y02752 01-ATTAC
00000E96 923C F037      00000037 0000003C   1957+         MVI   55(15),60          SET LENGTH OF THIS PARM LIST   Y02752 01-ATTAC
00000E9A 0A2A                    0000002A   1958+.SVC     SVC   42                                ISSUE ATTACH SVC       01-ATTAC
00000E9C 5010 D200               00000200   1959          ST    R1,ECB1+4               KEEP TCB ADDRESS
                                            1960 *
00000EA0 4100 D4B0               000004B0   1961 BRIF200  LA    R0,LINES                FIRST LINE
00000EA4 181A                               1962          LR    R1,R10                  LAST LINE
00000EA6 1B10                               1963          SR    R1,R0                   SIZE
00000EA8 1B00                               1964          SR    R0,R0
00000EAA 5D00 B330               00000330   1965          D     R0,=A(L'LINES)          NUMBER OF LINES
00000EAE 5010 D0EC               000000EC   1966          ST    R1,NUMLINES             FOR BRIF
                                            1967 *
00000EB2 50D0 D000               00000000   1968          ST    R13,DYN                 DIALOG DATA PTR: A(DYN)
00000EB6 41E0 B3AD               000003AD   1969          LA    R14,=C'BRIF '           FUNCTION NAME
00000EBA 41F0 B16A               0000016A   1970          LA    R15,TITLE               DSNAME (TITLE)
00000EBE 4100 B350               00000350   1971          LA    R0,=C'F '               RECFM
00000EC2 4110 B330               00000330   1972          LA    R1,=A(L'LINES)          LENGTH
00000EC6 4120 B334               00000334   1973          LA    R2,=A(RDRTNE)           READ ROUTINE
00000ECA 1F33                               1974          SLR   R3,R3                   COMMAND ROUTINE
00000ECC 4140 D000               00000000   1975          LA    R4,DYN                  PARM FOR READ ROUTINE
00000ED0 90E4 D1C0               000001C0   1976          STM   R14,R4,ATTACHL
00000ED4 9680 D1D8      000001D8 00000080   1977          OI    ATTACHL+24,X'80'        END-OF-LIST FLAG
                                            1978 *
00000ED8 4110 D1C0               000001C0   1979          LA    R1,ATTACHL              PARM LIST ADDRESS
00000EDC 58F0 D16C               0000016C   1980          L     R15,ISPLINK             LOAD INTERFACE ADDRESS
00000EE0 05EF                               1981          BALR  R14,R15             <== INVOKE "BRIF" SERVICE
                                            1982 *
00000EE2 95FF D200      00000200 000000FF   1983          CLI   ECB1+4,X'FF'            DETACHED ALREADY?
00000EE6 4780 C0A6               00000EF0   1984          BE    BRIF99                  YES, JUMP
                                            1985          DETACH ECB1+4                 DETACH SUBTASK
                                            1986+* /* MACDATE Y-1 72271                                               */
                                            1987+* /*
00000EEA 4110 D200               00000200   1988+         LA    1,ECB1+4                          LOAD PARAMETER REG 1   02-IHBIN
00000EEE 0A3E                    0000003E   1989+.G1     SVC   62             ISSUE DETACH SVC                           01-DETAC
                                            1990 BRIF99   P$END
                        00000EF0            1991+BRIF99   EQU   *                                                  MACRO 01-P$END
00000EF0 58E0 D0E4               000000E4   1992+PEND0121 L     R14,P$END               RETURN ADDR                MACRO 01-P$END
00000EF4 07FE                               1993+         BR    R14                                                MACRO 01-P$END
                                            1994+         DROP  R12                     SET BY P$BEGIN        <38J>MACRO 01-P$END
                                                                                                                           Page   31 
  ACTIVE USINGS: PSA,R0  TCB,R4  CDENTRY,R5  RCVT,R7  LLE,R9  LINE,R10  BASEADDR,R11  DYN,R13  
  Loc    Object Code      Addr1    Addr2    Stmt  Source Statement                                    DASM V1.75.00 2004/12/29 15:27 
                                            1996 *----------------------------------------------------------------------
                                            1997 *----------------------------------------------------------------------
0000016A                000000E0 00000000   1998 $LTORG   LOCTR ,                       SUBRTNS CALLED BY P$BEGIN RTNS
                                            1999 *----------------------------------------------------------------------
                                            2000 *----------------------------------------------------------------------
                                            2001 TITLE    DC    C'SHOWMVS',X'00',C'PROGRAM',X'00',C'&VERMOD '
0000016A E2C8D6E6D4E5E200                       +TITLE    DC    C'SHOWMVS',X'00',C'PROGRAM',X'00',C'V38J.0001 '
00000172 D7D9D6C7D9C1D400                       +
0000017A E5F3F8D14BF0F0F0                       +
00000182 F140                                   +


                                            2003 *----------------------------------------------------------------------
                                            2004 *        SCAN LPA QUEUES TO LOCATE EPNAME FOR ADDR IN (R1)
                                            2005 *----------------------------------------------------------------------
00000184 D209 D1B2 D0FC 000001B2 000000FC   2006 CSVQUERY MVC   EP2,BLANKS              CLEAR OUTPUT AREA
                                            2007          AGO   .XCSVQ             <38J>
                                            2008 .XCSVQ   ANOP                  <38J>
0000018A 07FE                               2009          BR    R14
                                                                                                                           Page   32 
  ACTIVE USINGS: PSA,R0  TCB,R4  CDENTRY,R5  RCVT,R7  LLE,R9  LINE,R10  BASEADDR,R11  DYN,R13  
  Loc    Object Code      Addr1    Addr2    Stmt  Source Statement                                    DASM V1.75.00 2004/12/29 15:27 
                                            2011 *----------------------------------------------------------------------
                                            2012 *        CONVERT UCBTYP TO UNITNAME
                                            2013 *----------------------------------------------------------------------
0000018C D503 D17C D178 0000017C 00000178   2014 GETUNIT  CLC   UNITNAME+12(4),UNITNAME+8   SAME DEVICE TYPE?
00000192 078E                               2015          BER   R14                     YES, UNITNAME IS OK ALREADY
00000194 D203 D17C D178 0000017C 00000178   2016          MVC   UNITNAME+12(4),UNITNAME+8   SAVE DEVICE TYPE
0000019A 50E0 D000               00000000   2017          ST    R14,DYN                 SAVE R14
                                            2018          AGO   .XGUNT                  <38J>
                                            2019 .XGUNT   ANOP                          <38J>
0000019E D207 D170 D0FC 00000170 000000FC   2020 GETUNIT6 MVC   UNITNAME,BLANKS         CONVERSION DID NOT WORK
000001A4 58E0 D000               00000000   2021 GETUNIT9 L     R14,DYN                 RESTORE R14
000001A8 07FE                               2022          BR    R14
                                                                                                                           Page   33 
  ACTIVE USINGS: PSA,R0  TCB,R4  CDENTRY,R5  RCVT,R7  LLE,R9  LINE,R10  BASEADDR,R11  DYN,R13  
  Loc    Object Code      Addr1    Addr2    Stmt  Source Statement                                    DASM V1.75.00 2004/12/29 15:27 
                                            2024 *----------------------------------------------------------------------
                                            2025 *        PRINT A BLANK LINE
                                            2026 *----------------------------------------------------------------------
000001AA 41A0 A064               00000064   2027 SPACE2   LA    R10,NEXTLINE
000001AE D263 A000 D0FC 00000000 000000FC   2028 SPACE1   MVC   LINE,BLANKS
000001B4 41A0 A064               00000064   2029          LA    R10,NEXTLINE
                                            2030 *----------------------------------------------------------------------
                                            2031 *  SHOWOUT - OUTPUT LINES THAT "STRING" HAS PRODUCED SO FAR       <38J>
                                            2032 *            USE QSAM "PUT" RATHER THAN ISPF "BRIF"
                                            2033 *----------------------------------------------------------------------
000001B8                                    2034 SHOWOUT  DS    0H
                                            2035          PUSH  USING
000001B8 900F D298               00000298   2036          STM   R0,R15,DY8OUT           FREE UP SOME REGS
000001BC 05C0                               2037          BALR  R12,0
                        000001BE            2038          USING *,R12
000001BE 188D                               2039          LR    R8,R13                  SAVE DYN PTR
                        00000000            2040          USING DYN,R8
000001C0 4190 D2D8               000002D8   2041          LA    R9,DY8DCB               @ DCB
                        00000000            2042          USING IHADCB,R9
                                            2043          DROP  R13                     DON'T CONFUSE ASSEMBLER
000001C4 41D0 8348               00000348   2044          LA    R13,DY8SA               GIVE PUT A TEMP SAVEAREA
                                            2045 *
000001C8 9110 9030      00000030 00000010   2046          TM    DCBOFLGS,DCBOFOPN       DCB ALREADY OPENED?
000001CC 4710 C060               0000021E   2047          BO    OUTOPEN
                                            2048 *
000001D0 D25F 82D8 C082 000002D8 00000240   2049          MVC   DY8DCB(L$DCB),DCBPRINT            COPY DCB
000001D6 D203 8338 C0E2 00000338 000002A0   2050          MVC   DY8OPEN(L$OPEN),MODLOPEN          COPY OPEN
                                            2051          OPEN  ((R9),(OUTPUT)),MF=(E,DY8OPEN)    OPEN SYSPRINT OUTPUT
000001DC 4110 8338               00000338   2052+         LA    1,DY8OPEN                         LOAD PARAMETER REG 1   02-IHBIN
000001E0 94F0 1000      00000000 000000F0   2053+.OPTD    NI    0(1),X'F0'                        CLEAR OPTION 1 BITS    01-OPEN
000001E4 960F 1000      00000000 0000000F   2054+         OI    0(1),15                           INSERT OPTION BITS     01-OPEN
000001E8 43E1 0000               00000000   2055+.QUITNOW IC    14,0(1,0)                         SAVE OPTION BYTE       01-OPEN
000001EC 5091 0000               00000000   2056+         ST    R9,0(1,0)                         STORE INTO LIST        01-OPEN
000001F0 42E1 0000               00000000   2057+.SHORTD  STC   14,0(1,0)                         RESTORE OPTION BYTE    01-OPEN
000001F4 0A13                    00000013   2058+         SVC   19                                ISSUE OPEN SVC         01-OPEN
000001F6 9110 9030      00000030 00000010   2059          TM    DCBOFLGS,DCBOFOPN                 DID IT OPEN OK?
000001FA 4710 C050               0000020E   2060          BO    OPENOK
                                            2061 U100     ABEND 100,DUMP                          SYSPRINT OPEN FAILED
000001FE                                    2062+U100     DS    0H                                                       01-ABEND
000001FE 4110 0064               00000064   2063+         LA    1,100                             LOAD PARAMETER REG 1   02-IHBIN
00000202 4100 0080               00000080   2064+         LA    0,128(0,0)         PICK UP DUMP/STEP/DUMPOPTS     YM1995 01-ABEND
00000206 8900 0018               00000018   2065+         SLL   0,24(0)            SHIFT TO HIGH ORDER                   01-ABEND
0000020A 1610                               2066+         OR    1,0                OR IN WITH COMPCODE                   01-ABEND
0000020C 0A0D                    0000000D   2067+.SVC     SVC   13                 LINK TO ABEND ROUTINE                 01-ABEND
                                            2068 *
0000020E                                    2069 OPENOK   DS    0H
0000020E 4100 84B0               000004B0   2070          LA    R0,LINES
00000212 5000 8340               00000340   2071          ST    R0,DY8PTRS              @ 1ST REC
00000216 4100 0064               00000064   2072          LA    R0,L$LINE
0000021A 5000 8344               00000344   2073          ST    R0,DY8PTRS+4            L' REC
                                            2074 *
0000021E                                    2075 OUTOPEN  DS    0H
0000021E 9856 8340               00000340   2076          LM    R5,R6,DY8PTRS           R5-R7: @REC, L'REC, @CURRENT
00000222 4170 A000               00000000   2077          LA    R7,LINE                 MOST RECENT LINE
00000226 5070 8340               00000340   2078          ST    R7,DY8PTRS              FOR NEXT TIME
0000022A 0670                               2079          BCTR  R7,0                    DON'T WRITE CURRENT LINE
                                            2080 *
0000022C                                    2081 OUTPUT   DS    0H
                                            2082          PUT   (R9),(R5)               WRITE SYSPRINT LINE
0000022C 1819                               2083+         LR    1,R9                              LOAD PARAMETER REG 1   02-IHBIN
0000022E 1805                               2084+.REGB    LR    0,R5                              LOAD PARAMETER REG 0   02-IHBIN
00000230 58F0 1030               00000030   2085+         L     15,48(0,1)               LOAD PUT ROUTINE ADDR           01-PUT
00000234 05EF                               2086+         BALR  14,15                    LINK TO PUT ROUTINE             01-PUT
00000236 8756 C06E               0000022C   2087          BXLE  R5,R6,OUTPUT            UNTIL CAUGHT UP WITH STRING
                                            2088 *
0000023A 980F 8298               00000298   2089          LM    R0,R15,DY8OUT           PUT REGS BACK AS NORMAL
                                            2090          POP   USING
0000023E 07FE                               2091          BR    R14
                                            2092 *
                                            2093 DCBPRINT DCB   DDNAME=SYSPRINT,MACRF=PM,DSORG=PS,                      +
                                                                RECFM=FB,LRECL=L$LINE,BLKSIZE=3200


                                            2095+*                       DATA CONTROL BLOCK
                                            2096+*
00000240                                    2097+DCBPRINT DC    0F'0'                   ORIGIN ON WORD BOUNDARY          01-DCB

                                            2099+*                       DIRECT ACCESS DEVICE INTERFACE

00000240 0000000000000000                   2101+         DC    BL16'0'                  FDAD,DVTBL                      01-DCB
00000248 0000000000000000                       +
00000250 00000000                           2102+         DC    A(0)                     KEYLE,DEVT,TRBAL                01-DCB

                                            2104+*                       COMMON ACCESS METHOD INTERFACE

00000254 00                                 2106+         DC    AL1(0)                  BUFNO                            01-DCB
00000255 000001                             2107+         DC    AL3(1)                  BUFCB                            01-DCB
00000258 0000                               2108+         DC    AL2(0)             BUFL                                  01-DCB
0000025A 4000                               2109+.GEN2AB2 DC    BL2'0100000000000000'                                   -01-DCB
                                                +                                                 DSORG                  .GEN2AB2
0000025C 00000001                           2110+.TCAML5  DC    A(1)                     IOBAD                           01-DCB

                                            2112+*                       FOUNDATION EXTENSION

00000260 00                                 2114+.GEN3CY  DC    BL1'00000000'                  BFTEK,BFLN,HIARCHY        01-DCB
00000261 000001                             2115+.GEN3C1  DC    AL3(1)                  EODAD                            01-DCB
00000264 90                                 2116+         DC    BL1'10010000'                                           -01-DCB
                                                +                                       RECFM
00000265 000000                             2117+         DC    AL3(0)                  EXLST                            01-DCB

                                            2119+*                       FOUNDATION BLOCK

00000268 E2E8E2D7D9C9D5E3                   2121+         DC    CL8'SYSPRINT'           DDNAME                           01-DCB
00000270 02                                 2122+         DC    BL1'00000010'           OFLGS                            01-DCB
00000271 00                                 2123+         DC    BL1'00000000'                          IFLG              01-DCB
00000272 0050                               2124+         DC    BL2'0000000001010000'                                   -01-DCB
                                                +                                                                       -
                                                +                                        MACR

                                            2126+*                       BSAM-BPAM-QSAM INTERFACE

00000274 00                                 2128+         DC    BL1'00000000'                                           -01-DCB
                                                +                                                                   RER -
                                                +               1
00000275 000001                             2129+         DC    AL3(1)                  CHECK, GERR, PERR                01-DCB
00000278 00000001                           2130+         DC    A(1)                    SYNAD                            01-DCB
0000027C 0000                               2131+         DC    H'0'                    CIND1, CIND2                     01-DCB
0000027E 0C80                               2132+         DC    AL2(3200)               BLKSIZE                          01-DCB
00000280 00000000                           2133+         DC    F'0'                    WCPO, WCPL, OFFSR, OFFSW         01-DCB
00000284 00000001                           2134+         DC    A(1)                    IOBA                             01-DCB
00000288 00                                 2135+         DC    AL1(0)                  NCP                              01-DCB
00000289 000001                             2136+         DC    AL3(1)                  EOBR, EOBAD                      01-DCB

                                            2138+*                            QSAM INTERFACE

0000028C 00000001                           2140+         DC    A(1)                     RECAD                           01-DCB
00000290 0000                               2141+         DC    H'0'                    QSWS                             01-DCB
00000292 0064                               2142+         DC    AL2(L$LINE)    LRECL                                     01-DCB
00000294 00                                 2143+.GEN6L   DC    BL1'00000000'           EROPT                            01-DCB
00000295 000001                             2144+         DC    AL3(1)                  CNTRL                            01-DCB
00000298 00000000                           2145+         DC    F'0'                    PRECL                            01-DCB
0000029C 00000001                           2146+         DC    A(1)                    EOB                              01-DCB
                        00000060            2147 L$DCB    EQU   *-DCBPRINT
                                            2148 *
                                            2149 MODLOPEN OPEN  (0,(OUTPUT)),MF=L
000002A0                                    2150+MODLOPEN DC    0F'0'                             ALIGN LIST TO FULLWORD 01-OPEN
000002A0 8F                                 2151+         DC    AL1(143)                          OPTION BYTE            01-OPEN
000002A1 000000                             2152+         DC    AL3(0)                            DCB ADDRESS            01-OPEN
                        00000004            2153 L$OPEN   EQU   *-MODLOPEN
                                            2154 *
                                            2155 MODLCLOS CLOSE (,),MF=L
000002A4                                    2156+MODLCLOS DC    0F'0'             ALIGN LIST TO FULLWORD                 01-CLOSE
000002A4 80                                 2157+         DC    AL1(128)                          OPTION BYTE            01-CLOSE
000002A5 000000                             2158+         DC    AL3(0)                            DCB ADDRESS            01-CLOSE
                        00000004            2159 L$CLOSE  EQU   *-MODLCLOS
                                                                                                                           Page   34 
  ACTIVE USINGS: PSA,R0  TCB,R4  CDENTRY,R5  RCVT,R7  LLE,R9  LINE,R10  BASEADDR,R11  DYN,R13  
  Loc    Object Code      Addr1    Addr2    Stmt  Source Statement                                    DASM V1.75.00 2004/12/29 15:27 
                                            2161 *----------------------------------------------------------------------
                                            2162 *        BUILD A TRANSLATE TABLE FOR NON-PRINTABLE CHARACTERS
                                            2163 *----------------------------------------------------------------------
000002A8 9240 D39C      0000039C 00000040   2164 NONPRINT MVI   WK256,C' '              PRINTABLE CHARACTERS
000002AC D2FE D39D D39C 0000039D 0000039C   2165          MVC   WK256+1(255),WK256
000002B2 D206 D3E6 B3B2 000003E6 000003B2   2166          MVC   WK256+X'4A'(7),=X'4A4B4C4D4E4F50'
000002B8 D207 D3F6 B310 000003F6 00000310   2167          MVC   WK256+X'5A'(8),=X'5A5B5C5D5E5F6061'
000002BE D205 D406 B3B9 00000406 000003B9   2168          MVC   WK256+X'6A'(6),=X'6A6B6C6D6E6F'
000002C4 D205 D416 B3BF 00000416 000003BF   2169          MVC   WK256+X'7A'(6),=X'7A7B7C7D7E7F'
000002CA D209 D45D B3C5 0000045D 000003C5   2170          MVC   WK256+C'A'(10),=C'ABCDEFGHI'
000002D0 D209 D46D B3CE 0000046D 000003CE   2171          MVC   WK256+C'J'(10),=C'JKLMNOPQR'
000002D6 D208 D47E B318 0000047E 00000318   2172          MVC   WK256+C'S'(9),=C'STUVWXYZ'
000002DC D209 D48C B352 0000048C 00000352   2173          MVC   WK256+C'0'(10),=C'0123456789'
000002E2 07FE                               2174          BR    R14



                                            2176 *----------------------------------------------------------------------
                                            2177 *        TCB TREE SCAN SOUTINE
                                            2178 *----------------------------------------------------------------------
000002E4 1814                               2179 SCANTCB  LR    R1,R4                   SAVE TCB ADDRESS
000002E6 5840 4088               00000088   2180          L     R4,TCBLTC-TCB(,R4)      DAUGHTER
000002EA 4130 3001               00000001   2181          LA    R3,1(,R3)               INDENTATION INDEX
                                            2182 *LOOP
000002EE 1244                               2183 SCANTCB2 LTR   R4,R4                   CHECK FOR END OF CHAIN
000002F0 077E                               2184          BNZR  R14                     PASS VALID TCB ADDRESS
000002F2 5840 1080               00000080   2185          L     R4,TCBNTC-TCB(,R1)      SISTER
000002F6 5810 1084               00000084   2186          L     R1,TCBOTC-TCB(,R1)      MOTHER
000002FA 4630 B2EE               000002EE   2187          BCT   R3,SCANTCB2             INDENTATION INDEX
                                            2188 *ENDLOOP
000002FE 1B44                               2189          SR    R4,R4                   SET CC=0
00000300 07FE                               2190          BR    R14                     GOBACK
                                            2191          DROP
                                                                                                                           Page   35 
  ACTIVE USINGS: 
  Loc    Object Code      Addr1    Addr2    Stmt  Source Statement                                    DASM V1.75.00 2004/12/29 15:27 
                                            2193 *----------------------------------------------------------------------
                                            2194 *----------------------------------------------------------------------
00000EF6                000003F4 00000000   2195 $FARRTNE LOCTR                         FAR ROUTINES
                                            2196 *----------------------------------------------------------------------
                                            2197 *----------------------------------------------------------------------
                                            2198 *        BRIF READ ROUTINE
                                            2199 *----------------------------------------------------------------------
                                            2200 RDRTNE   SAVE  (14,12),,*
00000EF6 47F0 F00C               0000000C   2201+RDRTNE   B     12(0,15)                          BRANCH AROUND ID       01-SAVE
00000EFA 06                                 2202+         DC    AL1(6)                                                   01-SAVE
00000EFB D9C4D9E3D5C5                       2203+         DC    CL6'RDRTNE'                       IDENTIFIER             01-SAVE
00000F01 00
00000F02 90EC D00C               0000000C   2204+         STM   14,12,12(13)                      SAVE REGISTERS         01-SAVE
00000F06 05C0                               2205          BALR  R12,0
                        00000F08            2206          USING *,R12
00000F08 5820 1000               00000000   2207          L     R2,00(,R1)              RECORD DATA READ
                                            2208 *@@      L     R3,04(,R1)              LENGTH
00000F0C 5840 1008               00000008   2209          L     R4,08(,R1)              RELATIVE RECORD NUMBER
00000F10 5850 100C               0000000C   2210          L     R5,12(,R1)              PTR TO DIALOG DATA AREA
00000F14 5850 5000               00000000   2211          L     R5,0(,R5)               POINT TO DYN
                        00000000            2212          USING DYN,R5
00000F18 58B0 50D0               000000D0   2213          L     R11,BASEREG             BASE REGISTER
                        00000000            2214          USING BASEADDR,R11
00000F1C 9140 51FC      000001FC 00000040   2215          TM    ECB1,X'40'              SUBTASK ENDED ALREADY?
00000F20 4780 C038               00000F40   2216          BZ    RDRTNE3                 NOT YET, JUMP
00000F24 95FF 5200      00000200 000000FF   2217          CLI   ECB1+4,X'FF'            DETACHED ALREADY?
00000F28 4780 C038               00000F40   2218          BE    RDRTNE3                 YES, JUMP
00000F2C D503 50CC 021C 000000CC 0000021C   2219          CLC   MYTCB,PSATOLD-PSA       AM I UNDER THE RIGHT TCB?
00000F32 4770 C038               00000F40   2220          BNE   RDRTNE3                 NO, JUMP
                                            2221          DETACH ECB1+4                 DETACH SUBTASK
                                            2222+* /* MACDATE Y-1 72271                                               */
                                            2223+* /*
00000F36 4110 5200               00000200   2224+         LA    1,ECB1+4                          LOAD PARAMETER REG 1   02-IHBIN
00000F3A 0A3E                    0000003E   2225+.G1     SVC   62             ISSUE DETACH SVC                           01-DETAC
00000F3C 92FF 5200      00000200 000000FF   2226          MVI   ECB1+4,X'FF'            MARK IT DETACHED
                                            2227 *
00000F40 5810 4000               00000000   2228 RDRTNE3  L     R1,0(,R4)               LINE NUMBER REQUESTED BY BRIF
00000F44 5910 50EC               000000EC   2229          C     R1,NUMLINES             CHECK FOR END OF DATA
00000F48 4720 C05C               00000F64   2230          BH    RDRTNE8                 JUMP IF TOO BIG
00000F4C 0610                               2231          BCTR  R1,0                    DOWN BY 1
00000F4E 5C00 B338               00000338   2232          M     R0,=A(L'LINE)           OFFSET TO LAST LINE
00000F52 41A1 54B0               000004B0   2233          LA    R10,LINES(R1)           CHANGE OFFSET TO ADDRESS
00000F56 50A0 2000               00000000   2234          ST    R10,0(,R2)              PASS DATA ADDRESS
                                            2235          RETURN (14,12),RC=0           GOBACK TO EDIT
00000F5A 98EC D00C               0000000C   2236+         LM    14,12,12(13)                      RESTORE THE REGISTERS  01-RETUR
00000F5E 41F0 0000               00000000   2237+         LA    15,0(0,0)                         LOAD RETURN CODE       01-RETUR
00000F62 07FE                               2238+.CONTE   BR    14                                RETURN                 01-RETUR
                                            2239 *
                                            2240 *        END OF DATA - RETURN MAX LINE#
                                            2241 *
00000F64 5810 50EC               000000EC   2242 RDRTNE8  L     R1,NUMLINES             NUMBER OF LINES
00000F68 5010 4000               00000000   2243          ST    R1,0(,R4)               PASS IT TO BRIF
00000F6C 0610                               2244          BCTR  R1,0                    DOWN BY 1
00000F6E 5C00 B338               00000338   2245          M     R0,=A(L'LINE)           OFFSET TO LAST LINE
00000F72 41A1 54B0               000004B0   2246          LA    R10,LINES(R1)           CHANGE OFFSET TO ADDRESS
00000F76 50A0 2000               00000000   2247          ST    R10,0(,R2)              PASS DATA ADDRESS
                                            2248          RETURN (14,12),RC=8
00000F7A 98EC D00C               0000000C   2249+         LM    14,12,12(13)                      RESTORE THE REGISTERS  01-RETUR
00000F7E 41F0 0008               00000008   2250+         LA    15,8(0,0)                         LOAD RETURN CODE       01-RETUR
00000F82 07FE                               2251+.CONTE   BR    14                                RETURN                 01-RETUR
                                            2252          DROP
                                                                                                                           Page   36 
  ACTIVE USINGS: 
  Loc    Object Code      Addr1    Addr2    Stmt  Source Statement                                    DASM V1.75.00 2004/12/29 15:27 
                                            2254 *----------------------------------------------------------------------
                                            2255 *
                                            2256 *        SUB-TASK USED FOR ASYNCHRONOUS LOCATE/OBTAIN
                                            2257 *
                                            2258 *        THIS SUB-TASK ALLOWS IMPATIENT USERS (LIKE ME) TO SEE THE
                                            2259 *        FIRST SCREEN WITHOUT ANY DELAY WHILE VOLUME AND VTOC
                                            2260 *        INFORMATION (WHICH REQUIRE I/O) IS OBTAINED FOR THE LINK-LIST,
                                            2261 *        LPA-LIST AND APF-LIST DISPLAYS.
                                            2262 *
                                            2263 *        WHEN THE USER SCROLLS TO THESE SCREENS (WHICH TAKES A FEW
                                            2264 *        SECONDS), VOLUME AND VTOC INFORMATION WILL HAVE BEEN OBTAINED
                                            2265 *        IN THE BACKGROUND, WITHOUT THE USER HAVING TO WAIT.
                                            2266 *
                                            2267 *        IF A SPEEDY USER CHAINS A "FIND" COMMAND TO THE INVOCATION
                                            2268 *        OF THIS PROGRAM (BY ISSUING "TSO SHOWMVS;F LPA-LIST" FOR
                                            2269 *        EXAMPLE), THEN HE/SHE WILL PROBABLY GET A BUNCH OF QUESTION
                                            2270 *        MARKS INSTEAD OF VOLUME AND VTOC INFORMATION (SURPRISE,
                                            2271 *        SURPRISE !!).  AFTER A FEW SECONDS OF HESITATION, THIS USER
                                            2272 *        IS LIKELY TO HIT "ENTER" OR SCROLL (UP OR DOWN) TO SEE IF
                                            2273 *        OTHER BIZARRE THINGS HAPPEN, WHICH LEAVES ENOUGH TIME TO THE
                                            2274 *        SUBTASK TO FINISH OBTAINING THE INFORMATION AND REPLACE THE
                                            2275 *        QUESTION MARKS WITH PERTINENT DATA.
                                            2276 *
                                            2277 *----------------------------------------------------------------------
00000F84 05C0                               2278 SUBTASK  BALR  R12,0
                        00000F86            2279          USING *,R12
00000F86 1891                               2280          LR    R9,R1                   A(DYN)
                        00000000            2281          USING DYN,R9
00000F88 58B0 90D0               000000D0   2282          L     R11,BASEREG             BASE REGISTER
                        00000000            2283          USING BASEADDR,R11
00000F8C 41A0 94B0               000004B0   2284          LA    R10,LINES               FIRST LINE
                        00000000            2285          USING LINE,R10
                                            2286 *
                                            2287 *              VOLSER
                                            2288 *LOOP
00000F90 956F A031      00000031 0000006F   2289 SUBT11   CLI   VOLSER,C'?'             VOLSER FOUND ALREADY?
00000F94 4770 C03C               00000FC2   2290          BNE   SUBT21                  YES, JUMP
00000F98 D205 A031 B3D7 00000031 000003D7   2291          MVC   VOLSER,=C'??????'       NOT FOUND
00000F9E 58E0 B33C               0000033C   2292          L     R14,=X'44,00,00,00'     CAMLST FLAGS
00000FA2 41F0 A002               00000002   2293          LA    R15,DSNAME              ENTRY NAME
00000FA6 1F00                               2294          SLR   R0,R0                   NO CVOL PTR
00000FA8 4110 939C               0000039C   2295          LA    R1,WK256                WORK AREA
00000FAC 90E1 90A0               000000A0   2296          STM   R14,R1,TENWORDS         BUILD CAMLIST
                                            2297          LOCATE TENWORDS
00000FB0 4110 90A0               000000A0   2298+         LA    1,TENWORDS                        LOAD PARAMETER REG 1   02-IHBIN
00000FB4 0A1A                    0000001A   2299+         SVC   26                                LINK TO SERVICE ROUT.  01-LOCAT
00000FB6 12FF                               2300          LTR   R15,R15
00000FB8 4770 C03C               00000FC2   2301          BNZ   SUBT21                  NOT FOUND (OR OTHER ERROR)
00000FBC D205 A031 93A2 00000031 000003A2   2302          MVC   VOLSER,WK256+6          MOVE VOLSER
                                            2303 *YYMMDD
00000FC2 956F A03A      0000003A 0000006F   2304 SUBT21   CLI   YYMMDD,C'?'             DATE FOUND ALREADY?
00000FC6 4770 C094               0000101A   2305          BNE   SUBT31                  YES, JUMP
00000FCA D205 A03A 90FC 0000003A 000000FC   2306          MVC   YYMMDD,BLANKS           BLANK OUT DATE FIELD
00000FD0 58E0 B340               00000340   2307          L     R14,=X'C1,00,00,00'     CAMLST FLAGS
00000FD4 41F0 A002               00000002   2308          LA    R15,DSNAME              DATA SET NAME OF CCHHR
00000FD8 4100 A031               00000031   2309          LA    R0,VOLSER               VOLUME SERIAL
00000FDC 4110 9230               00000230   2310          LA    R1,DS1FMTID             WORK AREA
00000FE0 90E1 90A0               000000A0   2311          STM   R14,R1,TENWORDS         BUILD CAMLIST
                                            2312          OBTAIN TENWORDS               READ F1-DSCB
00000FE4 4110 90A0               000000A0   2313+         LA    1,TENWORDS                        LOAD PARAMETER REG 1   02-IHBIN
00000FE8 0A1B                    0000001B   2314+         SVC   27                       ISSUE OBTAIN SVC                01-OBTAI
00000FEA 12FF                               2315          LTR   R15,R15
00000FEC 4770 C094               0000101A   2316          BNZ   SUBT31                  NOT FOUND (OR OTHER ERROR)
00000FF0 1F00                               2317          SLR   R0,R0
00000FF2 BF01 9239               00000239   2318          ICM   R0,B'0001',DS1CREDT+0   CREATION YEAR
00000FF6 4E00 9098               00000098   2319          CVD   R0,DWD
00000FFA BF13 909E               0000009E   2320          ICM   R1,B'0011',DWD+6        ....0YYC
00000FFE 8910 000C               0000000C   2321          SLL   R1,012                  .0YYC000
00001002 BF03 923A               0000023A   2322          ICM   R0,B'0011',DS1CREDT+1   CREATION DAY
00001006 4E00 9098               00000098   2323          CVD   R0,DWD
0000100A BF13 909E               0000009E   2324          ICM   R1,B'0011',DWD+6        .0YYDDDC
0000100E 58F0 B344               00000344   2325          L     R15,=A(@JDATE)          DATE CONVERT ROUTINE
00001012 05EF                               2326          BALR  R14,R15                 CONVERT JULIAN TO YYMMDD
00001014 D205 A03A 1000 0000003A 00000000   2327          MVC   YYMMDD(6),0(R1)         YYMMDD
                                            2328 *UNCAT=UNCAT
0000101A 956F A043      00000043 0000006F   2329 SUBT31   CLI   CATUNCAT,C'?'           CATALOG STATUS KNOWN ALREADY?
0000101E 4770 C0D0               00001056   2330          BNE   SUBT41                  YES, JUMP
00001022 D204 A043 B3DD 00000043 000003DD   2331          MVC   CATUNCAT,=C'UNCAT'      MOVE STATUS
00001028 58E0 B33C               0000033C   2332          L     R14,=X'44,00,00,00'     CAMLST FLAGS
0000102C 41F0 A002               00000002   2333          LA    R15,DSNAME              ENTRY NAME
00001030 1F00                               2334          SLR   R0,R0                   NO CVOL PTR
00001032 4110 939C               0000039C   2335          LA    R1,WK256                WORK AREA
00001036 90E1 90A0               000000A0   2336          STM   R14,R1,TENWORDS         BUILD CAMLIST
                                            2337          LOCATE TENWORDS
0000103A 4110 90A0               000000A0   2338+         LA    1,TENWORDS                        LOAD PARAMETER REG 1   02-IHBIN
0000103E 0A1A                    0000001A   2339+         SVC   26                                LINK TO SERVICE ROUT.  01-LOCAT
00001040 12FF                               2340          LTR   R15,R15
00001042 4770 C0D0               00001056   2341          BNZ   SUBT41                  NOT FOUND (OR OTHER ERROR)
00001046 D505 A031 93A2 00000031 000003A2   2342          CLC   VOLSER,WK256+6          SAME VOLSER?
0000104C 4770 C0D0               00001056   2343          BNE   SUBT41                  NO, JUMP
00001050 D204 A043 90FC 00000043 000000FC   2344          MVC   CATUNCAT,BLANKS         CATALOGED=YES
                                            2345 *UNCAT=APF
00001056 9560 A043      00000043 00000060   2346 SUBT41   CLI   CATUNCAT,C'-'           APF-LIST STATUS KNOWN ALREADY?
0000105A 4770 C106               0000108C   2347          BNE   SUBT51                  YES, JUMP
0000105E D204 A043 B3E2 00000043 000003E2   2348          MVC   CATUNCAT,=C'APF  '      MOVE STATUS
00001064 98F1 90F0               000000F0   2349          LM    R15,R1,APFTABLE         APF TABLE
00001068 12FF                               2350          LTR   R15,R15                 TEST
0000106A 4780 C106               0000108C   2351          BZ    SUBT51                  TEST
                                            2352 *--LOOP
0000106E D52B A002 F002 00000002 00000002   2353 SUBT44   CLC   DSNAME,DSNAME-LINE(R15) MY DSNAME?
00001074 4770 C0FC               00001082   2354          BNE   SUBT45                  NO, JUMP
00001078 D505 A031 F031 00000031 00000031   2355          CLC   VOLSER,VOLSER-LINE(R15) MY VOLSER?
0000107E 4780 C106               0000108C   2356          BE    SUBT51                  YES, QUIT
00001082 87F0 C0E8               0000106E   2357 SUBT45   BXLE  R15,R0,SUBT44           NEXT ENTRY
                                            2358 *--ENDLOOP
00001086 D204 A043 90FC 00000043 000000FC   2359          MVC   CATUNCAT,BLANKS         APF=NO
0000108C 41A0 A064               00000064   2360 SUBT51   LA    R10,NEXTLINE            NEXT LINE
00001090 9500 A000      00000000 00000000   2361          CLI   LINE,00                 LAST LINE?
00001094 4770 C00A               00000F90   2362          BNE   SUBT11                  NO, LOOP MORE
                                            2363 *ENDLOOP
00001098 0A03                    00000003   2364          SVC   3                       GOOD BYE
                                            2365          DROP
                                                                                                                           Page   37 
  ACTIVE USINGS: 
  Loc    Object Code      Addr1    Addr2    Stmt  Source Statement                                    DASM V1.75.00 2004/12/29 15:27 
                                            2367 *----------------------------------------------------------------------
                                            2368 *        RECOVERY ROUTINE
                                            2369 *----------------------------------------------------------------------
0000109A 41F0 000C               0000000C   2370 RECOVERY LA    R15,0012                R15=12
0000109E 190F                               2371          CR    R0,R15                  SDWA ALLOCATED?
000010A0 05F0                               2372          BALR  R15,0                   LOCAL BASE
000010A2 4770 F008               00000008   2373          BNE   RCVY$200-*(,R15)        YES, JUMP
000010A6 1BFF                               2374          SR    R15,R15                 SET RC=0 (IF R0=12)
000010A8 07FE                               2375          BR    R14                     RETURN TO EXIT PROLOG
000010AA 05F0                               2376 RCVY$200 BALR  R15,0
                                            2377          SAVE  (14,12),,'RECOVERY ROUTINE'
000010AC 47F0 F016               00000016   2378+         B     22(0,15)                          BRANCH AROUND ID       01-SAVE
000010B0 10                                 2379+         DC    AL1(16)                           LENGTH OF IDENTIFIER   01-SAVE
000010B1 D9C5C3D6E5C5D9E8                   2380+         DC    CL8'RECOVERY'                     IDENTIFIER             01-SAVE
000010B9 40D9D6E4E3C9D5C5                   2381+         DC    CL8' ROUTINE'                     IDENTIFIER             01-SAVE
000010C1 00
000010C2 90EC D00C               0000000C   2382+         STM   14,12,12(13)                      SAVE REGISTERS         01-SAVE
000010C6 05C0                               2383          BALR  R12,0
                        000010C8            2384          USING *,R12
000010C8 1881                               2385          LR    R8,R1
                        00000000            2386          USING SDWA,R8
000010CA 18ED                               2387          LR    R14,R13
000010CC 58D0 8000               00000000   2388          L     R13,SDWAPARM            =A(DYN)
000010D0 41D0 D04C               0000004C   2389          LA    R13,DYN_RCVY-DYN(,R13)  =A(DYN_RCVY)
000010D4 50E0 D004               00000004   2390          ST    R14,4(,R13)
000010D8 50D0 E008               00000008   2391          ST    R13,8(,R14)
                        0000004C            2392          USING DYN_RCVY,R13
000010DC BF4F D09C               000000E8   2393          ICM   R4,B'1111',RETRY        LOAD/TEST RETRY ADDRESS
000010E0 47D0 C05A               00001122   2394          BNP   RCVY$999                NO RETRY, CONTINUE WITH ABEND
000010E4 92FF D09C      000000E8 000000FF   2395          MVI   RETRY,X'FF'             INVALIDATE RETRY ADDRESS
000010E8 D23F 8088 8018 00000088 00000018   2396          MVC   SDWASRSV,SDWAGRSV       MOVE REGISTERS
000010EE D203 8094 0010 00000094 00000010   2397          MVC   SDWASR03,CVTPTR         R3=CVTADDR
000010F4 D203 8098 021C 00000098 0000021C   2398          MVC   SDWASR04,PSATOLD-PSA    R4=TCBADDR
000010FA D203 80B4 D084 000000B4 000000D0   2399          MVC   SDWASR11,BASEREG        R11 (BASE REG)
00001100 D203 80BC 8000 000000BC 00000000   2400          MVC   SDWASR13,SDWAPARM       R13
00001106 58D0 D004               00000004   2401          L     R13,4(,R13)             R/TM SAVE AREA
                                            2402          SETRP WKAREA=(R8),RETADDR=(R4),RC=4,  <== RETRY               X
                                                                FRESDWA=YES,RETREGS=YES,REGS=(14,12)
0000110A 1818                               2403+         LR    1,R8         .          ACCESS POINTER TO SDWA           01-SETRP
0000110C 9204 10FC      000000FC 00000004   2404+         MVI   SDWARCDE-SDWA(1),4      . INITIALIZE RC FIELD            01-SETRP
00001110 5040 10F0               000000F0   2405+         ST    R4,SDWARTYA-SDWA(,1)          STORE RETRY ADDR IN SDWA   01-SETRP
00001114 9604 10FD      000000FD 00000004   2406+         OI    SDWAACF2-SDWA(1),SDWAFREE   TURN ON FREE SDWA            01-SETRP
00001118 9608 10FD      000000FD 00000008   2407+         OI    SDWAACF2-SDWA(1),SDWAUPRG   TURN ON RETREGS INDICATOR    01-SETRP
0000111C 98EC D00C               0000000C   2408+         LM    14,12,12(13)                      RESTORE THE REGISTERS  02-RETUR
00001120 07FE                               2409+.CONTE   BR    14                                RETURN                 02-RETUR
00001122 58D0 D004               00000004   2410 RCVY$999 L     R13,4(,R13)
                                            2411          SETRP WKAREA=(R8),REGS=(14,12),RC=00
00001126 1818                               2412+         LR    1,R8         .          ACCESS POINTER TO SDWA           01-SETRP
00001128 9200 10FC      000000FC 00000000   2413+         MVI   SDWARCDE-SDWA(1),00     .       PUT RC IN SDWA           01-SETRP
0000112C 98EC D00C               0000000C   2414+         LM    14,12,12(13)                      RESTORE THE REGISTERS  02-RETUR
00001130 07FE                               2415+.CONTE   BR    14                                RETURN                 02-RETUR
                                            2416          DROP  ,                                                  <38J>
                                                                                                                           Page   38 
  ACTIVE USINGS: 
  Loc    Object Code      Addr1    Addr2    Stmt  Source Statement                                    DASM V1.75.00 2004/12/29 15:27 
                                            2418 *----------------------------------------------------------------------
                                            2419 *----------------------------------------------------------------------
00000302                000000E0 00000000   2420 $LTORG   LOCTR ,                                                  <38J>
                                            2421 *----------------------------------------------------------------------
                                            2422 *----------------------------------------------------------------------
00000308                                    2423          LTORG ,                                                  <38J>
00000308 4040C3D6D4D4D6D5                   2424                =C'  COMMON'
00000310 5A5B5C5D5E5F6061                   2425                =X'5A5B5C5D5E5F6061'
00000318 E2E3E4E5E6E7E8E9                   2426                =C'STUVWXYZ'
00000320 0007A5D0                           2427                =A(DYNL)
00000324 0000109A                           2428                =A(RECOVERY)
00000328 00000064                           2429                =A(L$LINE)
0000032C 00000F84                           2430                =A(SUBTASK)
00000330 00000064                           2431                =A(L'LINES)
00000334 00000EF6                           2432                =A(RDRTNE)
00000338 00000064                           2433                =A(L'LINE)
0000033C 44000000                           2434                =X'44,00,00,00'
00000340 C1000000                           2435                =X'C1,00,00,00'
00000344 00002078                           2436                =A(@JDATE)
00000348 FFFF                               2437                =X'FFFF'
0000034A 0006                               2438                =H'6'
0000034C 0040                               2439                =Y(RBBASIC-RBPREFIX)
0000034E 0004                               2440                =H'4'
00000350 C640                               2441                =C'F '
00000352 F0F1F2F3F4F5F6F7                   2442                =C'0123456789'
0000035A F8F9
0000035C 4AF0F00007FF                       2443                =X'4AF0,F000,07FF'
00000362 D5D640                             2444                =C'NO '
00000365 E8C5E2                             2445                =C'YES'
00000368 4040D7D9C9E5C1E3                   2446                =C'  PRIVATE'
00000370 C5
00000371 4040D5E4C3D3C5E4                   2447                =C'  NUCLEUS'
00000379 E2
0000037A D7D9C9E5C1E3C5                     2448                =C'PRIVATE'
00000381 D7E4C2D3C9C340                     2449                =C'PUBLIC '
00000388 E2E3D6D9C1C7C5                     2450                =C'STORAGE'
0000038F 1C                                 2451                =P'1'
00000390 2C                                 2452                =P'2'
00000391 D3D5D2C1E4E3C87E                   2453                =C'LNKAUTH=LNKLST'
00000399 D3D5D2D3E2E3
0000039F D3D5D2C1E4E3C87E                   2454                =C'LNKAUTH=APFTAB'
000003A7 C1D7C6E3C1C2
000003AD C2D9C9C640                         2455                =C'BRIF '
000003B2 4A4B4C4D4E4F50                     2456                =X'4A4B4C4D4E4F50'
000003B9 6A6B6C6D6E6F                       2457                =X'6A6B6C6D6E6F'
000003BF 7A7B7C7D7E7F                       2458                =X'7A7B7C7D7E7F'
000003C5 C1C2C3C4C5C6C7C8                   2459                =C'ABCDEFGHI'
000003CD C9
000003CE D1D2D3D4D5D6D7D8                   2460                =C'JKLMNOPQR'
000003D6 D9
000003D7 6F6F6F6F6F6F                       2461                =C'??????'
000003DD E4D5C3C1E3                         2462                =C'UNCAT'
000003E2 C1D7C64040                         2463                =C'APF  '
                                                                                                                           Page   39 
  ACTIVE USINGS: 
  Loc    Object Code      Addr1    Addr2    Stmt  Source Statement                                    DASM V1.75.00 2004/12/29 15:27 
                                            2465 *----------------------------------------------------------------------
                                            2466 *----------------------------------------------------------------------
                                            2467          STRING GENERATE               GENERATE LITERALS  <38J>
                                            2468+*,STRING R507 - FEATURES GENERATED: 111101111010
00001A68                00001132 00000000   2469+$LITERAL LOCTR                                                          01-STRIN
00001A68 D6D5D3C9D5C540C3                   2470+$LIT1001 DC    C'ONLINE CPU(S)'                                         01-STRIN
00001A70 D7E44DE25D                             +
00001A75 4040C3D7E440                       2471+$LIT1002 DC    C'  CPU '                                                01-STRIN
00001A7B 4040E2C5D9C9C1D3                   2472+$LIT1003 DC    C'  SERIAL: '                                            01-STRIN
00001A83 7A40                                   +
00001A85 4040D4D6C4C5D37A                   2473+$LIT1004 DC    C'  MODEL: '                                             01-STRIN
00001A8D 40                                     +
00001A8E D9C5C1D340E2E3D6                   2474+$LIT1005 DC    C'REAL STORAGE'                                          01-STRIN
00001A96 D9C1C7C5                               +
00001A9A 4040D6D560D3C9D5                   2475+$LIT1006 DC    C'  ON-LINE: '                                           01-STRIN
00001AA2 C57A40                                 +
00001AA5 D2                                 2476+$LIT1007 DC    C'K'                                                     01-STRIN
00001AA6 404040C8C9C7C8C5                   2477+$LIT1008 DC    C'   HIGHEST ADDRESS: '                                  01-STRIN
00001AAE E2E340C1C4C4D9C5                       +
00001AB6 E2E27A40                               +
00001ABA C9D7D340C6D9D6D4                   2478+$LIT1009 DC    C'IPL FROM: '                                            01-STRIN
00001AC2 7A40                                   +
00001AC4 61                                 2479+$LIT1010 DC    C'/'                                                     01-STRIN
00001AC5 404040D5E4C340C9                   2480+$LIT1011 DC    C'   NUC ID: '                                           01-STRIN
00001ACD C47A40                                 +
00001AD0 404040C3D3D7C17A                   2481+$LIT1012 DC    C'   CLPA: '                                             01-STRIN
00001AD8 40                                     +
00001AD9 E5C9D9E3E4C1D340                   2482+$LIT1013 DC    C'VIRTUAL STORAGE MAP'                                   01-STRIN
00001AE1 E2E3D6D9C1C7C540                       +
00001AE9 D4C1D7                                 +
00001AEC 404060606060C1D9                   2483+$LIT1014 DC    C'  ----AREA----'                                        01-STRIN
00001AF4 C5C160606060                           +
00001AFA 4040606060606060                   2484+$LIT1015 DC    C'  ------START------     ------END-------     SIZE'     01-STRIN
00001B02 E2E3C1D9E3606060                       +
00001B0A 6060604040404040                       +
00001B12 606060606060C5D5                       +
00001B1A C460606060606060                       +
00001B22 4040404040E2C9E9                       +
00001B2A C5                                     +
00001B2B 6060606060606060                   2485+$LIT1016 DC    C'----------'                                            01-STRIN
00001B33 6060                                   +
00001B35 40404040404040E2                   2486+$LIT1017 DC    C'       SQA'                                            01-STRIN
00001B3D D8C1                                   +
00001B3F 404040404040D7D3                   2487+$LIT1018 DC    C'      PLPA'                                            01-STRIN
00001B47 D7C1                                   +
00001B49 40404040404040C3                   2488+$LIT1019 DC    C'       CSA'                                            01-STRIN
00001B51 E2C1                                   +
00001B53 E57EE540D9C5C7C9                   2489+$LIT1020 DC    C'V=V REGION'                                            01-STRIN
00001B5B D6D5                                   +
00001B5D E57ED940D9C5C7C9                   2490+$LIT1021 DC    C'V=R REGION'                                            01-STRIN
00001B65 D6D5                                   +
00001B67 E2E8E240D9C5C7C9                   2491+$LIT1022 DC    C'SYS REGION'                                            01-STRIN
00001B6F D6D5                                   +
00001B71 D4C1E2E3C5D940C3                   2492+$LIT1023 DC    C'MASTER CATALOG:'                                       01-STRIN
00001B79 C1E3C1D3D6C77A                         +
00001B80 4040C4E2D57E                       2493+$LIT1024 DC    C'  DSN='                                                01-STRIN
00001B86 40C3E4E47E                         2494+$LIT1025 DC    C' CUU='                                                 01-STRIN
00001B8B 40E5D6D3E2C5D97E                   2495+$LIT1026 DC    C' VOLSER='                                              01-STRIN
00001B93 D7C1C7C540C4C1E3                   2496+$LIT1027 DC    C'PAGE DATA SETS:'                                       01-STRIN
00001B9B C140E2C5E3E27A                         +
00001BA2 E2D4C640E2C9C47A                   2497+$LIT1028 DC    C'SMF SID: '                                             01-STRIN
00001BAA 40                                     +
00001BAB D7D9D6C4E4C3E3E2                   2498+$LIT1029 DC    C'PRODUCTS:'                                             01-STRIN
00001BB3 7A                                     +
00001BB4 4040C4C661C8E2D4                   2499+$LIT1030 DC    C'  DF/HSM LEVEL: '                                      01-STRIN
00001BBC 40D3C5E5C5D37A40                       +
00001BC4 4B                                 2500+$LIT1031 DC    C'.'                                                     01-STRIN
00001BC5 4040D9C1C3C640D3                   2501+$LIT1032 DC    C'  RACF LEVEL:   '                                      01-STRIN
00001BCD C5E5C5D37A404040                       +
00001BD5 4040E5E3C1D440C1                   2502+$LIT1033 DC    C'  VTAM ACTIVE'                                         01-STRIN
00001BDD C3E3C9E5C5                             +
00001BE2 4040E2D6D9E37DE2                   2503+$LIT1034 DC    C'  SORT''S TRUE NAME IS '                               01-STRIN
00001BEA 40E3D9E4C540D5C1                       +
00001BF2 D4C540C9E240                           +
00001BF8 4040404DC6C9D9E2                   2504+$LIT1035 DC    C'   (FIRST 256 BYTES FOLLOW)'                           01-STRIN
00001C00 E340F2F5F640C2E8                       +
00001C08 E3C5E240C6D6D3D3                       +
00001C10 D6E65D                                 +
00001C13 4040E2D6D9E340D5                   2505+$LIT1036 DC    C'  SORT NOT FOUND IN LINKLIST'                          01-STRIN
00001C1B D6E340C6D6E4D5C4                       +
00001C23 40C9D540D3C9D5D2                       +
00001C2B D3C9E2E3                               +
00001C2F D6D560D3C9D5C540                   2506+$LIT1037 DC    C'ON-LINE DEVICES:'                                      01-STRIN
00001C37 C4C5E5C9C3C5E27A                       +
00001C3F 4040C3E4E44040E4                   2507+$LIT1038 DC    C'  CUU  UCBTYP    UNITNAME  VOLSER  STATUS'             01-STRIN
00001C47 C3C2E3E8D7404040                       +
00001C4F 40E4D5C9E3D5C1D4                       +
00001C57 C54040E5D6D3E2C5                       +
00001C5F D94040E2E3C1E3E4                       +
00001C67 E2                                     +
00001C68 E2E4C260E2E8E2E3                   2508+$LIT1039 DC    C'SUB-SYSTEM VECTOR TABLE:'                              01-STRIN
00001C70 C5D440E5C5C3E3D6                       +
00001C78 D940E3C1C2D3C57A                       +
00001C80 C1C3E3C9E5C540D3                   2509+$LIT1040 DC    C'ACTIVE LPA QUEUE:'                                     01-STRIN
00001C88 D7C140D8E4C5E4C5                       +
00001C90 7A                                     +
00001C91 7CD3D7C4C5404040                   2510+$LIT1041 DC    C'@LPDE   '                                              01-STRIN
00001C99 D3D7C4C5C3C8D540                   2511+$LIT1042 DC    C'LPDECHN '                                              01-STRIN
00001CA1 D3D7C4C5D9C2D740                   2512+$LIT1043 DC    C'LPDERBP '                                              01-STRIN
00001CA9 D3D7C4C5D5C1D4C5                   2513+$LIT1044 DC    C'LPDENAME'                                              01-STRIN
00001CB1 D3D7C4C5D5E3D740                   2514+$LIT1045 DC    C'LPDENTP '                                              01-STRIN
00001CB9 D3D7C4C5E7D3D740                   2515+$LIT1046 DC    C'LPDEXLP '                                              01-STRIN
00001CC1 E4E2C540                           2516+$LIT1047 DC    C'USE '                                                  01-STRIN
00001CC5 C1E3                               2517+$LIT1048 DC    C'AT'                                                    01-STRIN
00001CC7 C1F2                               2518+$LIT1049 DC    C'A2'                                                    01-STRIN
00001CC9 D3D7C4C5E7E3D3D5                   2519+$LIT1050 DC    C'LPDEXTLN'                                              01-STRIN
00001CD1 D3D7C4C5E7E3C1C4                   2520+$LIT1051 DC    C'LPDEXTAD'                                              01-STRIN
00001CD9 D4C1D1D6D9D5C1D4                   2521+$LIT1052 DC    C'MAJORNAM'                                              01-STRIN
00001CE1 40D4C1D1D3D7C4C5                   2522+$LIT1053 DC    C' MAJLPDE'                                              01-STRIN
00001CE9 40D4C9D5D3D7C4C5                   2523+$LIT1054 DC    C' MINLPDE'                                              01-STRIN
00001CF1 E2E5C340E3C1C2D3                   2524+$LIT1055 DC    C'SVC TABLE:'                                            01-STRIN
00001CF9 C57A                                   +
00001CFB C1D7C660D3C9E2E3                   2525+$LIT1056 DC    C'APF-LIST: '                                            01-STRIN
00001D03 7A40                                   +
00001D05 40C5D5E3D9C9C5E2                   2526+$LIT1057 DC    C' ENTRIES.'                                             01-STRIN
00001D0D 4B                                     +
00001D0E E3C3C240E3D9C5C5                   2527+$LIT1058 DC    C'TCB TREE AND RB CHAINS:'                               01-STRIN
00001D16 40C1D5C440D9C240                       +
00001D1E C3C8C1C9D5E27A                         +
00001D25 E3C3C240C1C4C4D9                   2528+$LIT1059 DC    C'TCB ADDRESS'                                           01-STRIN
00001D2D C5E2E2                                 +
00001D30 D7D9D6C7D9C1D440                   2529+$LIT1060 DC    C'PROGRAM     IC    STAB  CDFLGS    DDNAME'              01-STRIN
00001D38 40404040C9C34040                       +
00001D40 4040E2E3C1C24040                       +
00001D48 C3C4C6D3C7E24040                       +
00001D50 4040C4C4D5C1D4C5                       +
00001D58 D1D7C1D87A                         2530+$LIT1061 DC    C'JPAQ:'                                                 01-STRIN
00001D5D 404040D5C1D4C540                   2531+$LIT1062 DC    C'   NAME     ENTPT     USE '                            01-STRIN
00001D65 40404040C5D5E3D7                       +
00001D6D E34040404040E4E2                       +
00001D75 C540                                   +
00001D77 40C1E3E3D9C240E2                   2532+$LIT1063 DC    C' ATTRB SP ATTR ATTR2'                                  01-STRIN
00001D7F D740C1E3E3D940C1                       +
00001D87 E3E3D9F2                               +
00001D8B 4040D4C1D160C3C4                   2533+$LIT1064 DC    C'  MAJ-CDE    LENGTH   LOAD-PNT'                        01-STRIN
00001D93 C540404040D3C5D5                       +
00001D9B C7E3C8404040D3D6                       +
00001DA3 C1C460D7D5E3                           +
00001DA9 D3D6C1C460D3C9E2                   2534+$LIT1065 DC    C'LOAD-LIST:'                                            01-STRIN
00001DB1 E37A                                   +
00001DB3 4040E3C3C240                       2535+$LIT1066 DC    C'  TCB '                                                01-STRIN
00001DB9 4040D7C7D440                       2536+$LIT1067 DC    C'  PGM '                                                01-STRIN
00001DBF 40404040D3D3C540                   2537+$LIT1068 DC    C'    LLE '                                              01-STRIN
00001DC7 C4D6D5C5                           2538+$LIT1069 DC    C'DONE'                                                  01-STRIN
                                                                                                                           Page   40 
  ACTIVE USINGS: 
  Loc    Object Code      Addr1    Addr2    Stmt  Source Statement                                    DASM V1.75.00 2004/12/29 15:27 
00001DD0                00001DD0 000002A8   2540+@STRING  CSECT                                                          01-STRIN
                                            2541+@STRING  RMODE ANY                                                      01-STRIN
                        00000000            2542+@00      EQU   0                       WORK REGISTER                    01-STRIN
                        00000001            2543+@01      EQU   1                       WORK REGISTER                    01-STRIN
                        00000002            2544+@02      EQU   2                       WORK REGISTER                    01-STRIN
                        00000003            2545+@03      EQU   3                       WORK REGISTER                    01-STRIN
                        00000004            2546+@04      EQU   4                       WORK REGISTER                    01-STRIN
                        00000005            2547+@05      EQU   5                       WORK REGISTER                    01-STRIN
                        00000006            2548+@06      EQU   6                       WORK REGISTER                    01-STRIN
                        0000000D            2549+@13      EQU   13                      CALLER'S SAVE AREA               01-STRIN
                        0000000E            2550+@14      EQU   14                      WORK REGISTER                    01-STRIN
                        0000000F            2551+@15      EQU   15                      BASE REG                         01-STRIN
00001DD0 47F0 F022               00000022   2552+         B     34(0,15)                          BRANCH AROUND ID       02-SAVE
00001DD4 1D                                 2553+         DC    AL1(29)                           LENGTH OF IDENTIFIER   02-SAVE
00001DD5 7CE2E3D9C9D5C761                   2554+         DC    CL8'@STRING/'                     IDENTIFIER             02-SAVE
00001DDD F3F7F040D9F5F0F7                   2555+         DC    CL8'370 R507'                     IDENTIFIER             02-SAVE
00001DE5 40F1F1F1F1F0F1F1                   2556+         DC    CL8' 1111011'                     IDENTIFIER             02-SAVE
00001DED F1F1F0F1F0                         2557+         DC    CL5'11010'                        IDENTIFIER             02-SAVE
00001DF2 90E6 D00C               0000000C   2558+         STM   14,6,12(13)                       SAVE REGISTERS         02-SAVE
                        00001DD0            2559+         USING @STRING,@15                                              01-STRIN
                        00000000            2560+         USING @STRSAVE,@13                                             01-STRIN
00001DF6 1F66                               2561+         SLR   @06,@06                 R6=0                             01-STRIN
00001DF8 BF63 E000               00000000   2562+         ICM   @06,B'0011',0(@14)      PICK UP PARM-LIST 1/2 OFFSET     01-STRIN
00001DFC 1E66                               2563+         ALR   @06,@06                 PICK UP PARM-LIST OFFSET         01-STRIN
00001DFE 1E6E                               2564+         ALR   @06,@14                 R6 NOW POINTS TO PARM LIST       01-STRIN
                        00000000            2565+         USING @STRPARM,@06                                             01-STRIN
00001E00 4120 6000               00000000   2566+         LA    @02,@STRSCON            RESOLVE FIRST SCON (ADDR)        01-STRIN
00001E04 45E0 F25A               0000202A   2567+         BAL   @14,@STRS2A             GET ADDRESS IN R2                01-STRIN
00001E08 4140 2000               00000000   2568+         LA    @04,0(,@02)             KEEP ADDRESS OF "INTO" FIELD     01-STRIN
00001E0C 58E0 D00C               0000000C   2569+         L     @14,12(,@13)            RESTORE ADDR OF STRING MACRO     01-STRIN
00001E10 9600 4000      00000000 00000000   2570+         OI    0(@04),0                GET CLEAN S0C4 IF ADDRESS IS BAD 01-STRIN
00001E14 4120 6002               00000002   2571+         LA    @02,@STRFLEN            RESOLVE SECOND S-CON (LEN)       01-STRIN
00001E18 45E0 F25A               0000202A   2572+         BAL   @14,@STRS2A             GET LENGTH IN R2                 01-STRIN
00001E1C 1852                               2573+         LR    @05,@02                 KEEP LENGTH OF "INTO" FIELD      01-STRIN
00001E1E 1954                               2574+         CR    @05,@04                 END ADDRESS?                     01-STRIN
00001E20 4740 F056               00001E26   2575+         BL    @STR282                 NO, JUMP                         01-STRIN
00001E24 1B54                               2576+         SR    @05,@04                 CALCULATE LENGTH                 01-STRIN
00001E26 5040 D008               00000008   2577+@STR282  ST    @04,8(,@13)             SAVE ADDRESS FOR LATER           01-STRIN
00001E2A 4160 6004               00000004   2578+         LA    @06,@STRFLAG            POINT TO 1ST FIELD DESC          01-STRIN
                        00001E2E            2579+@STR310  EQU   *                                                        01-STRIN
00001E2E 9140 6004      00000004 00000040   2580+         TM    @STRFLAG,@STRLIT        IS THIS A LITERAL?               01-STRIN
00001E32 4710 F19C               00001F6C   2581+         BO    @STR372                 YES, JUMP                        01-STRIN
00001E36 9101 6004      00000004 00000001   2582+         TM    @STRFLAG,@STRREG        REGISTER?                        01-STRIN
00001E3A 4710 F0DE               00001EAE   2583+         BO    @STR323                 YES, JUMP                        01-STRIN
00001E3E 4120 6002               00000002   2584+         LA    @02,@STRFLEN            RESOLVE SECOND S-CON (LEN)       01-STRIN
00001E42 45E0 F25A               0000202A   2585+         BAL   @14,@STRS2A             GET LENGTH IN R2                 01-STRIN
00001E46 1232                               2586+.FEAT9E1 LTR   @03,@02                 KEEP/TEST LENGTH                 01-STRIN
00001E48 4720 F084               00001E54   2587+         BP    @STR313                 LENGTH POSITIVE, JUMP            01-STRIN
00001E4C 9180 6005      00000005 00000080   2588+         TM    @STRLEN2,@STRLEFT       LEFT JUSTIFICATION?              01-STRIN
00001E50 47E0 F204               00001FD4   2589+         BNO   @STR398                 NO, ZERO LENGTH IS NOT OK        01-STRIN
                        00001E54            2590+@STR313  EQU   *                                                        01-STRIN
00001E54 4120 6000               00000000   2591+         LA    @02,@STRSCON            RESOLVE FIRST SCON (ADDR)        01-STRIN
00001E58 45E0 F25A               0000202A   2592+         BAL   @14,@STRS2A             GET ADDRESS IN R2                01-STRIN
00001E5C 58E0 D00C               0000000C   2593+         L     @14,12(,@13)            RESTORE ADDR OF STRING MACRO     01-STRIN
00001E60 9500 2000      00000000 00000000   2594+         CLI   0(@02),0                GET CLEAN S0C4 IF ADDRESS IS BAD 01-STRIN
00001E64 1932                               2595+         CR    @03,@02                 END ADDRESS?                     01-STRIN
00001E66 4740 F0A6               00001E76   2596+         BL    @STR314                 NO, JUMP                         01-STRIN
00001E6A 4100 0080               00000080   2597+         LA    @00,X'0080'             PSA ADDRESS                      01-STRIN
00001E6E 1520                               2598+         CLR   @02,@00                 PSA REFERENCE?                   01-STRIN
00001E70 4740 F0A6               00001E76   2599+         BL    @STR314                 YES, JUMP                        01-STRIN
00001E74 1B32                               2600+         SR    @03,@02                 CALCULATE LENGTH                 01-STRIN
                        00001E76            2601+@STR314  EQU   *                                                        01-STRIN
00001E76 9104 6004      00000004 00000004   2602+         TM    @STRFLAG,@STRBIN        BINARY FIELD?                    01-STRIN
00001E7A 4710 F112               00001EE2   2603+         BO    @STR328                 YES, JUMP                        01-STRIN
00001E7E 9102 6004      00000004 00000002   2604+         TM    @STRFLAG,@STRPACK       PACKED FIELD?                    01-STRIN
00001E82 4710 F126               00001EF6   2605+         BO    @STR351                 YES, JUMP                        01-STRIN
00001E86 9108 6004      00000004 00000008   2606+         TM    @STRFLAG,@STRHEX        EDIT IN HEX?                     01-STRIN
00001E8A 4710 F1BA               00001F8A   2607+         BO    @STR376                 YES, JUMP                        01-STRIN
00001E8E 9580 6005      00000005 00000080   2608+         CLI   @STRLEN2,@STRLEFT       CHECK JUSTIFICATION, OUTPUT LEN  01-STRIN
00001E92 4770 F1E6               00001FB6   2609+         BNE   @STR390                 NO STRING TRUNCATION, JUMP       01-STRIN
00001E96 4113 2000               00000000   2610+         LA    @01,0(@03,@02)          FIRST BYTE AFTER FIELD           01-STRIN
00001E9A 0610                               2611+@STR318  BCTR  @01,0                   DOWN 1 BYTE                 LOOP 01-STRIN
00001E9C 9540 1000      00000000 00000040   2612+         CLI   0(@01),C' '             IS IT A SPACE ?             LOOP 01-STRIN
00001EA0 4770 F1E6               00001FB6   2613+         BNE   @STR390                 LAST NON-BLANK BYTE         LOOP 01-STRIN
00001EA4 4630 F0CA               00001E9A   2614+         BCT   @03,@STR318             LOOP UNTIL 1ST NON-BLANK    LOOP 01-STRIN
00001EA8 47F0 F204               00001FD4   2615+         B     @STR398                 BLANK FIELD, DO NOT EDIT         01-STRIN
00001EAC 1800                               2616+@STR323L LR    @00,*-*                 COPY VALUE FOR EDIT              01-STRIN
00001EAE 4810 6000               00000000   2617+@STR323  LH    @01,@STRSCON            REG NUMBER IN BITS 28-31         01-STRIN
00001EB2 4410 F0DC               00001EAC   2618+         EX    @01,@STR323L            COPY R7-R13 INTO R0              01-STRIN
00001EB6 9507 6001      00000001 00000007   2619+         CLI   @STRSCON+1,@06+1        IS THIS R7-R13?                  01-STRIN
00001EBA 47B0 F0F6               00001EC6   2620+         BNL   @STR323T                YES, JUMP                        01-STRIN
00001EBE 8910 0002               00000002   2621+         SLL   @01,2                   R1= 000000BB BASE * 4            01-STRIN
00001EC2 5801 D014               00000014   2622+         L     @00,20(@01,@13)         PICK UP VALUE FOR R0-R6          01-STRIN
                        00001EC6            2623+@STR323T EQU   *                                                        01-STRIN
00001EC6 9108 6004      00000004 00000008   2624+         TM    @STRFLAG,@STRHEX        EDIT IN HEX?                     01-STRIN
00001ECA 47E0 F118               00001EE8   2625+         BNO   @STR330                 NO, EDIT FWD                     01-STRIN
00001ECE BE0F D03F               0000003F   2626+         STCM  @00,B'1111',@STRDWD-1   STORE IT FOR CVD/UNPK            01-STRIN
00001ED2 4130 0008               00000008   2627+         LA    @03,8                   OUTPUT LENGTH                    01-STRIN
00001ED6 47F0 F1D0               00001FA0   2628+         B     @STR376X                EDIT IN HEX                      01-STRIN
00001EDA 47F0 F118               00001EE8   2629+         B     @STR330                 EDIT R0                          01-STRIN
00001EDE BF00 2000               00000000   2630+@STR328M ICM   @00,*-*,0(@02)          **EXECUTED INSTRUCTION**         01-STRIN
00001EE2 1F00                               2631+@STR328  SLR   @00,@00                                                  01-STRIN
00001EE4 4430 F10E               00001EDE   2632+         EX    @03,@STR328M            LOAD THE BINARY VARIABLE         01-STRIN
00001EE8 4E00 D040               00000040   2633+@STR330  CVD   @00,@STRDWD             CONVERT VALUE TO DECIMAL         01-STRIN
00001EEC 47F0 F13E               00001F0E   2634+         B     @STR361                 EDIT DWD                         01-STRIN
00001EF0 F870 D040 2000 00000040 00000000   2635+@STRZAP  ZAP   @STRDWD,0(*-*,@02)      MOVE TO @STRDWD                  01-STRIN
00001EF6 4130 2000               00000000   2636+@STR351  LA    @03,0(,@02)             FIRST BYTE OF PACKED FIELD       01-STRIN
00001EFA 05E0                               2637+         BALR  @14,0                                                    01-STRIN
00001EFC 910C 3000      00000000 0000000C   2638+         TM    0(@03),X'0C'            IS THIS THE SIGN BYTE?           01-STRIN
00001F00 4130 3001               00000001   2639+         LA    @03,1(,@03)              (NEXT BYTE)                     01-STRIN
00001F04 07EE                               2640+         BNOR  @14                     NO, LOOP MORE                    01-STRIN
00001F06 1F32                               2641+         SLR   @03,@02                 GET LENGTH OF PACKED FIELD       01-STRIN
00001F08 0630                               2642+         BCTR  @03,0                                                    01-STRIN
00001F0A 4430 F120               00001EF0   2643+         EX    @03,@STRZAP             EXECUTE ZAP                      01-STRIN
00001F0E 4300 6005               00000005   2644+@STR361  IC    @00,@STRLEN2            OUTPUT LENGTH                    01-STRIN
00001F12 4130 003F               0000003F   2645+         LA    @03,X'003F'             MASK FOR "AND"                   01-STRIN
00001F16 1430                               2646+         NR    @03,@00                 OUTPUT LENGTH                    01-STRIN
00001F18 D20F D030 F24A 00000030 0000201A   2647+         MVC   @STRWK16(16),@STRMASK   EDIT MASK                        01-STRIN
00001F1E 9180 6005      00000005 00000080   2648+         TM    @STRLEN2,@STRLEFT       LEFT JUSTIFICATION?              01-STRIN
00001F22 47E0 F18C               00001F5C   2649+         BNO   @STR367                 NO, JUMP                         01-STRIN
00001F26 4110 D03F               0000003F   2650+         LA    @01,@STRWK16+15         PREVENT BAD R1                   01-STRIN
00001F2A DF0F D030 D040 00000030 00000040   2651+         EDMK  @STRWK16(16),@STRDWD    ZONED DECIMAL                    01-STRIN
00001F30 4120 1000               00000000   2652+         LA    @02,0(,@01)             FIRST STRING POSITION            01-STRIN
00001F34 1233                               2653+         LTR   @03,@03                 CHECK OUTPUT LENGTH              01-STRIN
00001F36 4770 F174               00001F44   2654+         BNZ   @STR363                 JUMP IF NOT ZERO                 01-STRIN
00001F3A 4130 D040               00000040   2655+         LA    @03,@STRWK16+16         FIRST POSITION AFTER STRING      01-STRIN
00001F3E 1B32                               2656+         SR    @03,@02                 COMPUTE STRING LENGTH            01-STRIN
00001F40 47F0 F1E6               00001FB6   2657+         B     @STR390                 MOVE FIELD TO OUTPUT LINE        01-STRIN
00001F44 1935                               2658+@STR363  CR    @03,@05                 COMPARE LENGTH TO REMAINING LEN  01-STRIN
00001F46 47D0 F17C               00001F4C   2659+         BNH   @STR364                 LARGE ENOUGH, JUMP               01-STRIN
00001F4A 1835                               2660+         LR    @03,@05                 TOO BIG, TRUNCATE TO REM. LEN.   01-STRIN
00001F4C 1B53                               2661+@STR364  SR    @05,@03                 COMPUTE REMAINING LENGTH         01-STRIN
00001F4E 1804                               2662+         LR    @00,@04                 POINTER IN OUTPUT LINE           01-STRIN
00001F50 1813                               2663+         LR    @01,@03                 LENGTH WITH PADDING              01-STRIN
00001F52 4130 D040               00000040   2664+         LA    @03,@STRWK16+16         FIRST POSITION AFTER STRING      01-STRIN
00001F56 1B32                               2665+         SR    @03,@02                 COMPUTE STRING LENGTH            01-STRIN
00001F58 47F0 F1FC               00001FCC   2666+         B     @STR392                 MOVE FIELD TO OUTPUT LINE        01-STRIN
                        00001F5C            2667+@STR367  EQU   *                                                        01-STRIN
00001F5C DE0F D030 D040 00000030 00000040   2668+         ED    @STRWK16(16),@STRDWD    ZONED DECIMAL                    01-STRIN
00001F62 4120 D040               00000040   2669+         LA    @02,@STRWK16+16         FIRST POSITION AFTER STRING      01-STRIN
00001F66 1B23                               2670+         SR    @02,@03                 FIRST STRING POSITION            01-STRIN
00001F68 47F0 F1E6               00001FB6   2671+         B     @STR390                 MOVE STRING TO OUTPUT LINE       01-STRIN
00001F6C 4120 0000               00000000   2672+@STR372  LA    @02,0                   R2=0,AR2=0                       01-STRIN
00001F70 BF23 6000               00000000   2673+         ICM   @02,B'0011',@STRSCON    LOAD LITERAL OFFSET              01-STRIN
00001F74 4780 F1AC               00001F7C   2674+         BZ    @STR372L                BLANKS, JUMP                     01-STRIN
00001F78 4122 6000               00000000   2675+         LA    @02,@STRSCON(@02)       CONVERT OFFSET TO FULL ADDRESS   01-STRIN
00001F7C 4830 6002               00000002   2676+@STR372L LH    @03,@STRFLEN            GET LITERAL LENGTH               01-STRIN
00001F80 47F0 F1E6               00001FB6   2677+         B     @STR390                 MOVE STRING TO OUTPUT LINE       01-STRIN
00001F84 D200 D03F 2000 0000003F 00000000   2678+@STR376M MVC   @STRDWD-1(*-*),0(@02)   PREVENT S0C4 IN UNPK             01-STRIN
00001F8A 4100 0008               00000008   2679+@STR376  LA    @00,8                   MAX LENGTH                       01-STRIN
00001F8E 1530                               2680+         CLR   @03,@00                 CHECK LENGTH                     01-STRIN
00001F90 47D0 F1C6               00001F96   2681+         BNH   @STR376B                JUMP IF LE 8                     01-STRIN
00001F94 1830                               2682+         LR    @03,@00                 TRUNCATE TO MAXIMUM LENGTH       01-STRIN
00001F96 1813                               2683+@STR376B LR    @01,@03                 INPUT LENGTH                     01-STRIN
00001F98 0610                               2684+         BCTR  @01,0                                                    01-STRIN
00001F9A 4410 F1B4               00001F84   2685+         EX    @01,@STR376M            MOVE DATA TO SAFE STORAGE        01-STRIN
00001F9E 1E33                               2686+         ALR   @03,@03                 OUTPUT LENGTH                    01-STRIN
00001FA0 4120 D030               00000030   2687+@STR376X LA    @02,@STRWK16            WORK AREA                        01-STRIN
00001FA4 F384 2000 D03F 00000000 0000003F   2688+         UNPK  0(9,@02),@STRDWD-1(5)   EXPAND SOURCE BYTES FOR "TR"     01-STRIN
00001FAA F384 2008 D043 00000008 00000043   2689+         UNPK  8(9,@02),@STRDWD+3(5)   EXPAND SOURCE BYTES FOR "TR"     01-STRIN
00001FB0 DC0F 2000 F14A 00000000 00001F1A   2690+         TR    0(16,@02),@STRHEXT-240  =C'0123456789ABCDEF'             01-STRIN
00001FB6 1935                               2691+@STR390  CR    @03,@05                 COMPARE LENGTH TO REMAINING LEN  01-STRIN
00001FB8 47D0 F1EE               00001FBE   2692+         BNH   @STR391                 LARGE ENOUGH, JUMP               01-STRIN
00001FBC 1835                               2693+         LR    @03,@05                 TOO BIG, TRUNCATE TO REM. LEN.   01-STRIN
00001FBE 1B53                               2694+@STR391  SR    @05,@03                 COMPUTE REMAINING LENGTH         01-STRIN
00001FC0 1804                               2695+         LR    @00,@04                 POINTER IN OUTPUT LINE           01-STRIN
00001FC2 1813                               2696+         LR    @01,@03                 PASS REMAINING LENGTH            01-STRIN
00001FC4 1222                               2697+         LTR   @02,@02                 BLANKS?                          01-STRIN
00001FC6 4770 F1FC               00001FCC   2698+         BNZ   @STR392                 NO, JUMP                         01-STRIN
00001FCA 1F33                               2699+         SLR   @03,@03                 YES, ZERO LENGTH                 01-STRIN
00001FCC BF38 F2A0               00002070   2700+@STR392  ICM   @03,B'1000',@STRBLANKS  PAD WITH BLANKS                  01-STRIN
00001FD0 0E02                               2701+         MVCL  @00,@02                 MOVE FIELD TO OUTPUT LINE        01-STRIN
00001FD2 1840                               2702+         LR    @04,@00                 NEW POINTER IN OUTPUT LINE       01-STRIN
00001FD4 9180 6004      00000004 00000080   2703+@STR398  TM    @STRFLAG,@STRLAST       TEST LAST-ENTRY INDICATOR        01-STRIN
00001FD8 4160 6006               00000006   2704+         LA    @06,@STRNEXT            BUMP UP TO NEXT ENTRY            01-STRIN
00001FDC 47E0 F05E               00001E2E   2705+         BNO   @STR310                 PROCESS NEXT ENTRY               01-STRIN
00001FE0 1F11                               2706+         SLR   @01,@01                 SET UP R1 FOR PADDING            01-STRIN
00001FE2 BF18 F2A0               00002070   2707+         ICM   @01,B'1000',@STRBLANKS  SET UP R1 FOR PADDING            01-STRIN
00001FE6 41E0 0002               00000002   2708+         LA    @14,2                   INCREMENT                        01-STRIN
00001FEA 5EE0 D00C               0000000C   2709+         AL    @14,12(,@13)            RETURN ADDRESS                   01-STRIN
00001FEE 1F11                               2710+         SLR   @01,@01                 SET UP R1 FOR PADDING            01-STRIN
00001FF0 BF18 F2A0               00002070   2711+         ICM   @01,B'1000',@STRBLANKS  SET UP R1 FOR PADDING            01-STRIN
00001FF4 18F4                               2712+         LR    @15,@04                 CURRENT POINTER IN OUTPUT FIELD  01-STRIN
00001FF6 5FF0 D008               00000008   2713+         SL    @15,8(,@13)             CALCULATE LENGTH USED            01-STRIN
00001FFA 0E40                               2714+         MVCL  @04,@00                 PAD WITH BLANKS                  01-STRIN
00001FFC 9806 D014               00000014   2715+         LM    @00,@06,20(@13)         RESTORE WORK REGISTERS           01-STRIN
00002000 907C D030               00000030   2716+         STM   @06+1,@13-1,48(@13)     MAKE SAVE AREA LOOK NORMAL       01-STRIN
00002004 9601 D00F      0000000F 00000001   2717+         OI    15(@13),1               SIMULATE "T" OPTION OF RETURN    01-STRIN
00002008 07FE                               2718+         BR    @14                     RETURN TO CALLER                 01-STRIN
0000200A F0F1F2F3F4F5F6F7                   2719+@STRHEXT DC    C'0123456789ABCDEF'     HEX-TO-EBCDIC CONVERSION         01-STRIN
00002012 F8F9C1C2C3C4C5C6                       +
0000201A 4020202020202020                   2720+@STRMASK DC    X'4020202020202020,2020202020202120'                     01-STRIN
00002022 2020202020202120                       +
0000202A 1F00                               2721+@STRS2A  SLR   @00,@00                                                  01-STRIN
0000202C BF03 2000               00000000   2722+         ICM   @00,B'0011',0(@02)      R0 = 0000BDDD                    01-STRIN
00002030 8C00 000C               0000000C   2723+         SRDL  @00,12                  R0 = 0000000B, R1= DDD.....      01-STRIN
00002034 8810 0014               00000014   2724+         SRL   @01,20                  R1 = 00000DDD (DISPLACEMENT)     01-STRIN
00002038 9570 2000      00000000 00000070   2725+         CLI   0(@02),(@06+1)*16       R7-R13?                          01-STRIN
0000203C 4740 F27E               0000204E   2726+         BL    @STRS2A5                NO, JUMP                         01-STRIN
00002040 1820                               2727+         LR    @02,@00                 R2= 0000000B (BASE REG NUMBER)   01-STRIN
00002042 4420 F27A               0000204A   2728+         EX    @02,@STRS2A4            ADD BASE REG VALUE TO DISPL      01-STRIN
00002046 47F0 F294               00002064   2729+         B     @STRS2A7                CLEAN UP ADDRESS                 01-STRIN
0000204A 4120 1000               00000000   2730+@STRS2A4 LA    @02,0(*-*,@01)          ADD BASE REG VALUE TO DISPL      01-STRIN
0000204E 1220                               2731+@STRS2A5 LTR   @02,@00                 IS R0 THE BASE REG?              01-STRIN
00002050 4770 F288               00002058   2732+         BNZ   @STRS2A6                NO, JUMP                         01-STRIN
00002054 1221                               2733+         LTR   @02,@01                 IS THIS A PSA ADDRESS?           01-STRIN
00002056 077E                               2734+         BNZR  @14                     YES, GOBACK                      01-STRIN
00002058 8920 0002               00000002   2735+@STRS2A6 SLL   @02,2                   R2= 000000BB BASE * 4            01-STRIN
0000205C 5822 D014               00000014   2736+         L     @02,20(@02,@13)         PICK UP BASE REG VALUE           01-STRIN
00002060 4122 1000               00000000   2737+         LA    @02,0(@02,@01)          ADD BASE REG VALUE TO DISPL      01-STRIN
00002064 9180 D00C      0000000C 00000080   2738+@STRS2A7 TM    12(@13),X'80'           CALLER'S IN AMODE31?             01-STRIN
00002068 071E                               2739+         BOR   @14                     YES, GOBACK                      01-STRIN
0000206A BF28 0010               00000010   2740+         ICM   @02,B'1000',16          NO, ZERO HI-ORDER BYTE           01-STRIN
0000206E 07FE                               2741+         BR    @14                                                      01-STRIN
00002070 4040404040404040                   2742+@STRBLANKS DC  CL((((*+2+7-@STRING)/8)*8)-(*-@STRING))' '               01-STRIN
                        000002A8            2743+@STRING_SIZE EQU *-@STRING             SIZE OF GENERATED CSECT          01-STRIN
                                                                                                                           Page   41 
  ACTIVE USINGS: @STRPARM,R6  @STRSAVE,R13  @STRING,R15  
  Loc    Object Code      Addr1    Addr2    Stmt  Source Statement                                    DASM V1.75.00 2004/12/29 15:27 
00000000                00000000 00000048   2745+@STRSAVE DSECT                         24-BYTE WORK AREA                01-STRIN
00000000                                    2746+         DS    A(0,@STRSAVE,@STRSAVE,14,15,0,1,2,3,4,5,6)               01-STRIN
00000004                                    2747+@STRWK16 DS    F'7,8,9,10'             WORK AREA                        01-STRIN
00000008                                    2748+@STRDWD  DS    D'1112'                 WORK AREA                        01-STRIN
00000000                00000000 00000006   2749+@STRPARM DSECT                                                          01-STRIN
00000000                                    2750+@STRSCON DS    S                   +0  FIELD ADDRESS                    01-STRIN
00000002                                    2751+@STRFLEN DS    S                   +2  FIELD LENGTH                     01-STRIN
00000004                                    2752+@STRFLAG DS    B                   +4  FORMAT, FLAGS                    01-STRIN
                        00000080            2753+@STRLAST EQU   X'80'                     LAST ENTRY                     01-STRIN
                        00000040            2754+@STRLIT  EQU   X'40'                     LITERAL, @STRSCON IS AN OFFSET 01-STRIN
                        00000020            2755+@STRJDT  EQU   X'20'                     JULIAN DATE                    01-STRIN
                        00000008            2756+@STRHEX  EQU   X'08'                     HEXADECIMAL                    01-STRIN
                        00000004            2757+@STRBIN  EQU   X'04'                     BINARY                         01-STRIN
                        00000002            2758+@STRPACK EQU   X'02'                     PACKED                         01-STRIN
                        00000001            2759+@STRREG  EQU   X'01'                     REGISTER                       01-STRIN
00000005                                    2760+@STRLEN2 DS    B                   +5  FORMAT, OUTPUT LENGTH            01-STRIN
                        00000080            2761+@STRLEFT EQU   X'80'                     LEFT JUSTIFICATION             01-STRIN
                        00000040            2762+@STRZERO EQU   X'40'                     LEADING ZEROES                 01-STRIN
                        00000006            2763+@STRNEXT EQU   *                   +6                                   01-STRIN



000003E7                000000E0 00000000   2765+$LTORG   LOCTR                                                          01-STRIN
000003E7 00             000003E8            2766+         CNOP  0,4                                                      01-STRIN
000003E8 05F0                               2767+$STRING  BALR  @15,0                   LOCAL BASE                       01-STRIN
000003EA 58FF 0006               00000006   2768+         L     @15,6(@15,0)            ROUTINE ADDRESS           00     01-STRIN
000003EE 07FF                               2769+         BR    @15                     GO TO @STRING             04     01-STRIN
000003F0 00000000                           2770+         DC    V(@STRING)              ROUTINE ADDRESS           06     01-STRIN
                                            2771 *----------------------------------------------------------------------
                                            2772 *----------------------------------------------------------------------
                                                                                                                           Page   42 
  ACTIVE USINGS: @STRPARM,R6  @STRSAVE,R13  @STRING,R15  
  Loc    Object Code      Addr1    Addr2    Stmt  Source Statement                                    DASM V1.75.00 2004/12/29 15:27 
                                            2774 *----------------------------------------------------------------------
                                            2775 *----------------------------------------------------------------------
                                            2776 *        DYNAMIC STORAGE AREA
                                            2777 *----------------------------------------------------------------------
                                            2778 *----------------------------------------------------------------------
00000000                00000000 0007A5D0   2779 DYN      DSECT                         DYNAMIC STORAGE AREA
00000000                                    2780          DS    18F                     SAVE AREA FOR MAINLINE
00000048                                    2781 PARMADDR DS    A                       ADDR OF CALLER'S PARM OR CBUF
0000004C                                    2782 DYN_RCVY DS    18F                     SAVE AREA FOR RECOVERY ROUTINE
00000098                                    2783 DWD      DS    D                       WORK AREA
000000A0                                    2784 TENWORDS DS    10F                     WORK AREA
000000C8                                    2785 JSTCB    DS    A(TCB)                  ADDRESS OF THE JOB-STEP TCB
000000CC                                    2786 MYTCB    DS    A(TCB)                  ADDRESS OF MY TCB
000000D0                                    2787 BASEREG  DS    A(R11)                  BASE REGISTERS FOR RECOVERY
                                            2788 ESTAEL   ESTAE MF=L
                                            2789+*    MACDATE Y-1 75302
000000D4                                    2790+         DS    0F                                                       01-ESTAE
000000D4 16                                 2791+ESTAEL   DC    AL1(22)                 FLAGS FOR TCB,PURGE,ASYNCH       01-ESTAE
000000D5 000000                             2792+         DC    AL3(0)                  EXIT ADDR. NOT SPECIFIED         01-ESTAE
000000D8 00000000                           2793+         DC    A(0)                    PARM. LIST ADDR. NOT SPECIFIED   01-ESTAE
000000DC 00000000                           2794+.LREGE   DC    A(0)                    TCB NOT SPECIFIED                01-ESTAE
000000E0 00                                 2795+.LREGF   DC    AL1(0)                  FLAGS                            01-ESTAE
000000E1 000000                             2796+         DC    AL3(0)                  RESERVED                         01-ESTAE
000000E4                                    2797 P$END    DS    2A                      RETURN/RETRY ADDRESS
                        000000E8            2798 RETRY    EQU   P$END+4,4,C'A'          RETRY ADDRESS
000000EC                                    2799 NUMLINES DS    F                       NUMBER OF LINES
000000F0                                    2800 APFTABLE DS    A(LINE,L'LINE,NEXTLINE) APF-LIST
000000F4                                    2801 BLANKS   DS    CL100                   A BUNCH OF BLANKS
00000158                                    2802 VOLMOUNT DS    C'STORAGE'              VOLUME MOUNT ATTRIBUTE
00000160                                    2803 IEFEB4UV DS    V(IEFEB4UV)             UNITNAME CONVERSION RTNE
00000164                                    2804 ISPLINK  DS    V(ISPLINK)              ISPF DIALOG INTERFACE
00000168                                    2805 UNITNAME DS    CL8,XL4,XL4             IEFEB4UV
00000178                                    2806 ZENVIR   DS    CL32                    ISPF ENVIRONMENT
00000198                                    2807 K1       DS    PL4                     COUNTER
0000019C                                    2808 K2       DS    PL4                     COUNTER
000001A0                                    2809 EP1      DS    CL10                    SVC TABLE
000001AA                                    2810 EP2      DS    CL10                    SVC TABLE
000001B4                                    2811 SVC88    DS    A                       UNUSED SVC NUMBER
                                            2812 ATTACHL  ATTACH SF=L
                                            2813+* /* MACDATE Y-1 72271                                               */
                                            2814+* /*
000001B8                                    2815+ATTACHL  DS    0F                                                       01-ATTAC
000001B8 00000000                           2816+.CONTLLA DC    A(0)                              DE OR EPLOC ADDRESS    01-ATTAC
000001BC 00                                 2817+         DC    AL1(0)                                                   01-ATTAC
000001BD 000000                             2818+.CONTLD  DC    AL3(0)                  DCB ADDRESS                 LCS1 01-ATTAC
000001C0 00                                 2819+         DC    AL1(0)                                             20021 01-ATTAC
000001C1 000000                             2820+.CONTLF  DC    AL3(0)                            ECB ADDRESS      20028 01-ATTAC
000001C4 00000000                           2821+.CONTLJ  DC    A(0)                              GSPL OR GSPV           01-ATTAC
000001C8 00000000                           2822+.CONTLM  DC    A(0)                              SHSPV OR SHSPL         01-ATTAC
000001CC 00                                 2823+         DC    AL1(0)                                            Y02752 01-ATTAC
000001CD 000000                             2824+.CONTLN  DC    AL3(0)                        EXIT ROUT. ADDRESS    RORI 01-ATTAC
000001D0 0000                               2825+.CONTLP  DC    AL2(0)                            DPMOD VALUE            01-ATTAC
000001D2 00                                 2826+.CONTLR  DC    AL1(0)                            LPMOD VALUE            01-ATTAC
000001D3 00                                 2827+.CONTLU  DC    AL1(0)                                                   01-ATTAC
000001D4 0000000000000000                   2828+.CONTLV  DC    2A(0)              EP NAME SPACE                  Y02752 01-ATTAC
000001DC 00                                 2829+.NOLSQA  DC    AL1(0)              NO LSQA                              01-ATTAC
000001DD 000000                             2830+         DC    AL3(0)    .                                              01-ATTAC
000001E0 00                                 2831+.NOTID   DC    AL1(0)              .NO TID                              01-ATTAC
000001E1 000000                             2832+         DC    AL3(0)             STAI/ESTAI PARM LIST           Y02752 01-ATTAC
000001E4 00000000                           2833+         DC    A(0)                .EXIT ADDRESS                        01-ATTAC
000001E8 00000000                           2834+         DC    A(0)                     .TASKLIB.                 20021 01-ATTAC
000001EC 00000000                           2835+         DC    A(0)               FLAGS AND PARM LIST LENGTH     Y02752 01-ATTAC
000001F0 00000000                           2836+         DC    A(0)               NO NSHSPV OR NSHSPL PARM       Y02752 01-ATTAC
000001F4                                    2837 ECB1     DS    F,A(TCB)                COMMUNICATION ECB
                                            2838          IECSDSL1 1                    F1-DSCB
                        00000204            2839+IECSDSL1 EQU   *                   FORMAT 1 DSCB                        01-IECSD
                        00000204            2840+IECSDSF1 EQU   IECSDSL1                                                 01-IECSD
000001FC                                    2841+DS1DSNAM DS    CL44                DATA SET NAME                        01-IECSD
00000228                                    2842+DS1FMTID DS    CL1                 FORMAT IDENTIFIER                    01-IECSD
00000229                                    2843+DS1DSSN  DS    CL6                 DATA SET SERIAL NUMBER               01-IECSD
0000022F                                    2844+DS1VOLSQ DS    XL2                 VOLUME SEQUENCE NUMBER               01-IECSD
00000231                                    2845+DS1CREDT DS    XL3                 CREATION DATE                        01-IECSD
00000234                                    2846+DS1EXPDT DS    XL3                 EXPIRATION DATE                      01-IECSD
00000237                                    2847+DS1NOEPV DS    XL1                 NUMBER OF EXTENTS ON VOLUME          01-IECSD
00000238                                    2848+DS1NOBDB DS    XL1                 NUMBER OF BYTES USED IN LAST         01-IECSD
                                            2849+*                                     DIRECTORY BLOCK
00000239                                    2850+         DS    XL1                 RESERVED                             01-IECSD
0000023A                                    2851+DS1SYSCD DS    CL13                SYSTEM CODE                          01-IECSD
00000247                                    2852+DS1REFD  DS    XL3                 DATE LAST REFERENCED           @02C  01-IECSD
0000024A                                    2853+         DS    XL4                 RESERVED                   @G60ASBJ  01-IECSD
0000024E                                    2854+DS1DSORG DS    XL2                 DATA SET ORGANIZATION                01-IECSD
                                            2855+*
                                            2856+*                    FIRST BYTE OF DS1DSORG
                        00000080            2857+DS1DSGIS EQU   X'80'               IS - INDEXED SEQUENTIAL         @01A 01-IECSD
                                            2858+*                                  ORGANIZATION
                        00000040            2859+DS1DSGPS EQU   X'40'               PS - PHYSICAL SEQUENTIAL        @01A 01-IECSD
                                            2860+*                                  ORGANIZATION
                        00000020            2861+DS1DSGDA EQU   X'20'               DA - DIRECT ORGANIZATION        @01A 01-IECSD
                        00000010            2862+DS1DSGCX EQU   X'10'               CX - BTAM OR QTAM LINE GROUP    @01A 01-IECSD
                                            2863+*        EQU   X'08'               RESERVED                        @01A
                                            2864+*        EQU   X'04'               RESERVED                        @01A
                        00000002            2865+DS1DSGPO EQU   X'02'               PO - PARTITIONED ORGANIZATION   @01A 01-IECSD
                        00000001            2866+DS1DSGU  EQU   X'01'               U - UNMOVABLE, THE DATA         @01A 01-IECSD
                                            2867+*                                  CONTAINS LOCATION DEPENDENT
                                            2868+*                                  INFORMATION
                                            2869+*
                                            2870+*                     SECOND BYTE OF DS1DSORG
                        00000080            2871+DS1DSGGS EQU   X'80'               GS - GRAPHICS ORGANIZATION      @01A 01-IECSD
                        00000040            2872+DS1DSGTX EQU   X'40'               TX - TCAM LINE GROUP            @01A 01-IECSD
                        00000020            2873+DS1DSGTQ EQU   X'20'               TQ - TCAM MESSAGE QUEUE         @01A 01-IECSD
                                            2874+*        EQU   X'10'               RESERVED                        @01A
                        00000008            2875+DS1ACBM  EQU   X'08'               ACCESS METHOD CONTROL BLOCK     @01A 01-IECSD
                        00000004            2876+DS1DSGTR EQU   X'04'               TR - TCAM 3705                  @01A 01-IECSD
                                            2877+*        EQU   X'02'               RESERVED                        @01A
                                            2878+*        EQU   X'01'               RESERVED                        @01A
00000250                                    2879+DS1RECFM DS    XL1                 RECORD FORMAT                        01-IECSD
00000251                                    2880+DS1OPTCD DS    XL1                 OPTION CODE                          01-IECSD
00000252                                    2881+DS1BLKL  DS    XL2                 BLOCK LENGTH                         01-IECSD
00000254                                    2882+DS1LRECL DS    XL2                 RECORD LENGTH                        01-IECSD
00000256                                    2883+DS1KEYL  DS    XL1                 KEY LENGTH                           01-IECSD
00000257                                    2884+DS1RKP   DS    XL2                 RELATIVE KEY POSITION                01-IECSD
00000259                                    2885+DS1DSIND DS    XL1                 DATA SET INDICATORS                  01-IECSD
                        00000080            2886+DS1IND80 EQU   X'80'               LAST VOLUME ON WHICH A     @G60ASBJ  01-IECSD
                                            2887+*                                  DATA SET RESIDES           @G60ASBJ
                        00000040            2888+DS1IND40 EQU   X'40'               DATA SET IS RACF DEFINED   @G60ASBJ  01-IECSD
                        00000020            2889+DS1IND20 EQU   X'20'               BLOCK LENGTH IS A MULTIPLE @G60ASBJ  01-IECSD
                                            2890+*                                  OF 8 BYTES                 @G60ASBJ
                        00000010            2891+DS1IND10 EQU   X'10'               PASSWORD IS REQUIRED TO    @G60ASBJ  01-IECSD
                                            2892+*                                  READ OR WRITE OR BOTH-SEE  @G60ASBJ
                                            2893+*                                  DS1IND04                   @G60ASBJ
                        00000008            2894+DS1IND08 EQU   X'08'               RESERVED                   @G60ASBJ  01-IECSD
                        00000004            2895+DS1IND04 EQU   X'04'               IF DS1IND10 IS 1 THEN IF   @G60ASBJ  01-IECSD
                                            2896+*                                  DS1IND04 IS . . .          @G60ASBJ
                                            2897+*                                  1-PASSWORD REQUIRED TO     @G60ASBJ
                                            2898+*                                  WRITE BUT NOT TO READ      @G60ASBJ
                                            2899+*                                  0-PASSWORD REQUIRED TO     @G60ASBJ
                                            2900+*                                  WRITE AND TO READ          @G60ASBJ
                        00000002            2901+DS1IND02 EQU   X'02'               DATASET OPENED FOR OTHER   @G60ASBJ  01-IECSD
                                            2902+*                                  THAN INPUT SINCE LAST      @G60ASBJ
                                            2903+*                                  BACKUP COPY MADE.          @G60ASBJ
                        00000002            2904+DS1DSCHA EQU   DS1IND02            SAME USE AS BIT DS1IND02   @G60ASBJ  01-IECSD
                        00000001            2905+DS1IND01 EQU   X'01'               SECURE CHECKPOINT DATA SET      @02C 01-IECSD
                        00000001            2906+DS1CHKPT EQU   DS1IND01            SAME AS DS1IND01                @02A 01-IECSD
0000025A                                    2907+DS1SCALO DS    XL4                 SECONDARY ALLOCATION                 01-IECSD
0000025E                                    2908+DS1LSTAR DS    XL3                 LAST USED TRACK AND BLOCK ON TRACK   01-IECSD
00000261                                    2909+DS1TRBAL DS    XL2                 BYTES REMAINING ON LAST TRACK USED   01-IECSD
00000263                                    2910+         DS    XL2                 RESERVED                             01-IECSD
00000265                                    2911+DS1EXT1  DS    XL10                FIRST EXTENT DESCRIPTION             01-IECSD
                                            2912+*        FIRST BYTE                EXTENT TYPE INDICATOR
                                            2913+*        SECOND BYTE               EXTENT SEQUENCE NUMBER
                                            2914+*        THIRD - SIXTH BYTES       LOWER LIMIT
                                            2915+*        SEVENTH - TENTH BYTES     UPPER LIMIT
0000026F                                    2916+DS1EXT2  DS    XL10                SECOND EXTENT DESCRIPTION            01-IECSD
00000279                                    2917+DS1EXT3  DS    XL10                THIRD EXTENT DESCRIPTION             01-IECSD
00000283                                    2918+DS1PTRDS DS    XL5                 POSSIBLE PTR TO A FORMAT 2 OR 3 DSCB 01-IECSD
                        00000290            2919+DS1END   EQU   *                                                        01-IECSD
00000288                                    2920          DS    XL5                     PADDING FOR OBTAIN
                                            2921          WK$OUT ,                      SHOWOUT WORKAREAS <38J>
00000290                                    2922+DY8OUT   DS    16F                     SAVEAREA: SHOWOUT                01-WK$OU


                                            2924+*                       DATA CONTROL BLOCK
                                            2925+*
000002D0                                    2926+DY8DCB   DC    0F'0'                   ORIGIN ON WORD BOUNDARY          02-DCB

                                            2928+*                       DIRECT ACCESS DEVICE INTERFACE

000002D0 0000000000000000                   2930+         DC    BL16'0'                  FDAD,DVTBL                      02-DCB
000002D8 0000000000000000                       +
000002E0 00000000                           2931+         DC    A(0)                     KEYLE,DEVT,TRBAL                02-DCB

                                            2933+*                       COMMON ACCESS METHOD INTERFACE

000002E4 00                                 2935+         DC    AL1(0)                  BUFNO                            02-DCB
000002E5 000001                             2936+         DC    AL3(1)                  BUFCB                            02-DCB
000002E8 0000                               2937+         DC    AL2(0)             BUFL                                  02-DCB
000002EA 4000                               2938+.GEN2AB2 DC    BL2'0100000000000000'                                   -02-DCB
                                                +                                                 DSORG                  .GEN2AB2
000002EC 00000001                           2939+.TCAML5  DC    A(1)                     IOBAD                           02-DCB

                                            2941+*                       FOUNDATION EXTENSION

000002F0 00                                 2943+.GEN3CY  DC    BL1'00000000'                  BFTEK,BFLN,HIARCHY        02-DCB
000002F1 000001                             2944+.GEN3C1  DC    AL3(1)                  EODAD                            02-DCB
000002F4 90                                 2945+         DC    BL1'10010000'                                           -02-DCB
                                                +                                       RECFM
000002F5 000000                             2946+         DC    AL3(0)                  EXLST                            02-DCB

                                            2948+*                       FOUNDATION BLOCK

000002F8 E2E8E2D7D9C9D5E3                   2950+         DC    CL8'SYSPRINT'           DDNAME                           02-DCB
00000300 02                                 2951+         DC    BL1'00000010'           OFLGS                            02-DCB
00000301 00                                 2952+         DC    BL1'00000000'                          IFLG              02-DCB
00000302 0050                               2953+         DC    BL2'0000000001010000'                                   -02-DCB
                                                +                                                                       -
                                                +                                        MACR

                                            2955+*                       BSAM-BPAM-QSAM INTERFACE

00000304 00                                 2957+         DC    BL1'00000000'                                           -02-DCB
                                                +                                                                   RER -
                                                +               1
00000305 000001                             2958+         DC    AL3(1)                  CHECK, GERR, PERR                02-DCB
00000308 00000001                           2959+         DC    A(1)                    SYNAD                            02-DCB
0000030C 0000                               2960+         DC    H'0'                    CIND1, CIND2                     02-DCB
0000030E 0C80                               2961+         DC    AL2(3200)               BLKSIZE                          02-DCB
00000310 00000000                           2962+         DC    F'0'                    WCPO, WCPL, OFFSR, OFFSW         02-DCB
00000314 00000001                           2963+         DC    A(1)                    IOBA                             02-DCB
00000318 00                                 2964+         DC    AL1(0)                  NCP                              02-DCB
00000319 000001                             2965+         DC    AL3(1)                  EOBR, EOBAD                      02-DCB

                                            2967+*                            QSAM INTERFACE

0000031C 00000001                           2969+         DC    A(1)                     RECAD                           02-DCB
00000320 0000                               2970+         DC    H'0'                    QSWS                             02-DCB
00000322 0064                               2971+         DC    AL2(100)       LRECL                                     02-DCB
00000324 00                                 2972+.GEN6L   DC    BL1'00000000'           EROPT                            02-DCB
00000325 000001                             2973+         DC    AL3(1)                  CNTRL                            02-DCB
00000328 00000000                           2974+         DC    F'0'                    PRECL                            02-DCB
0000032C 00000001                           2975+         DC    A(1)                    EOB                              02-DCB
00000330                                    2976+DY8OPEN  DC    0F'0'                             ALIGN LIST TO FULLWORD 02-OPEN
00000330 80                                 2977+         DC    AL1(128)                          OPTION BYTE            02-OPEN
00000331 000000                             2978+         DC    AL3(0)                            DCB ADDRESS            02-OPEN
00000334                                    2979+DY8CLOSE DC    0F'0'             ALIGN LIST TO FULLWORD                 02-CLOSE
00000334 80                                 2980+         DC    AL1(128)                          OPTION BYTE            02-CLOSE
00000335 000000                             2981+         DC    AL3(0)                            DCB ADDRESS            02-CLOSE
00000338                                    2982+DY8PTRS  DS    2F                      BXLE: @REC, L'REC                01-WK$OU
00000340                                    2983+DY8SA    DS    18F                     DATA MANAGEMENT SAVEAREA         01-WK$OU
00000388                                    2984+DY8WORD1 DS    F                       WORK                             01-WK$OU
0000038C                                    2985+DY8WORD2 DS    F                       WORK                             01-WK$OU
00000390                                    2986+DY8WORD3 DS    F                       WORK                             01-WK$OU
00000394                                    2987          DS    0F                                        <38J>
00000394                                    2988 WK256    DS    XL256,2D                265-BYTE WORK AREA
000004A8                                    2989 LINES    DS    5000CL100               LINES FOR BRIF
                        0007A5D0            2990 DYNL     EQU   *-DYN                   LENGTH OF DYNAMIC STORAGE AREA


                                            2992          PRINT NOGEN                   SAVE PAPER
                                            2993 PRINT    OPSYN ANOP                    SHUT'EM UP


                                            2995 *----------------------------------------------------------------------
                                            2996 *        WORK AREA FOR RDJFCB
                                            2997 *----------------------------------------------------------------------
                                            2998 IHADCB   DCBD  DSORG=XE,DEVD=DA        IHADCB
                                            3349 *8       IHAARL DSECT=NO               ALLOC RETRIEVAL LIST
                                            3350 *8ENLIST DS    A(IHADCB,ARL)           OPEN LIST, DCB EXIT LIST
00000034                                    3351 OPENLIST DS    A(IHADCB,0)             OPEN LIST, DCB EXIT LIST
                        0000003C            3352 DYN24L   EQU   *-IHADCB


                                            3354 *----------------------------------------------------------------------
00000000                00000000 000000C8   3355          DSECT
00000000                                    3356 LINE     DS    CL100                   CURRENT LINE
                        00000064            3357 L$LINE   EQU   *-LINE                                             <38J>
                        00000002            3358 DSNAME   EQU   LINE+2,44
                        00000031            3359 VOLSER   EQU   LINE+2+44+3,6
                        0000003A            3360 YYMMDD   EQU   LINE+2+44+3+6+3,6
                        00000043            3361 CATUNCAT EQU   LINE+2+44+3+6+3+6+3,5   UNCAT
00000064                                    3362 NEXTLINE DS    CL100                   NEXT LINE
                                                                                                                           Page   43 
  ACTIVE USINGS: @STRPARM,R6  @STRSAVE,R13  @STRING,R15  
  Loc    Object Code      Addr1    Addr2    Stmt  Source Statement                                    DASM V1.75.00 2004/12/29 15:27 
                                            3364 *----------------------------------------------------------------------
                                            3365 *----------------------------------------------------------------------
                                            3366 *        MVS CONTROL-BLOCKS
                                            3367 *----------------------------------------------------------------------
                                            3368 *----------------------------------------------------------------------
                                            3369 * LOW STORAGE, PHYSICAL CONFIGURATION
                                            3370 *----------------------------------------------------------------------
                                            3371          IHAPSA DSECT=YES              PREFIXED STORAGE AREA
                                            3839 *        IHAPCCAT DSECT=YES            PCCA VECTOR TABLE
                                            3840          IHAPCCA DSECT=YES             PHYSICAL CONFIG. COMM. AREA
                                            4172 *----------------------------------------------------------------------
                                            4173 *----------------------------------------------------------------------
                                            4174 * COMMUNICATION VECTORS
                                            4175 *----------------------------------------------------------------------
                                            4176 *----------------------------------------------------------------------
                                            4177          CVT   PREFIX=YES,DSECT=YES,LIST=NO
                                            5189          IHASCVT DSECT=YES,LIST=NO     SECONDARY CVT
                                            5291          IEFJESCT                      JES VECTOR TABLE
                                            5335          IEFJSCVT                      SUB-SYSTEM COMM. VECTOR TABLE
                                            5356          IEFJSSVT                      SUB-SYSTEM VECTOR TABLE
                                            5392 *----------------------------------------------------------------------
                                            5393 *----------------------------------------------------------------------
                                            5394 * REAL & VIRTUAL STORAGE MANAGEMENT
                                            5395 *----------------------------------------------------------------------
                                            5396 *----------------------------------------------------------------------
                                            5397          IHAGDA                        GLOBAL DATA AREA
                        00000040            5435 L$GDA    EQU    *-GDA
                                            5436          IHALDA                        LOCAL  DATA AREA
                                            5484          IHAPQE ,                      VSM PARTITION QUEUE ELEMENT<38J>
                                            5501          IHASPQE ,                     VSM SUBPOOL QUEUE ELEMENT  <38J>
                                            5520          IHADQE ,                      VSM DESCRIPTOR Q ELEMENT   <38J>
                                            5530 *----------------------------------------------------------------------
                                            5531 *        ILRASMVT DSECT=YES            AUXILIARY STRGE MGR VECTOR TABLE
00000000                00000000 0000000C   5532 ASMVT    DSECT                         ILRASMVT
00000000                                    5533 ASMFLAG1 DS    X                       FLAGS 1
00000001                                    5534 ASMFLAG2 DS    X,2X                    FLAGS 2
                        00000008            5535 ASMQUICK EQU   X'08'                   QUICK START IPL
00000004                                    5536 ASMSART  DS    V(SART)                 SWAP ACTIVITY REFERENCE TABLE
00000008                                    5537 ASMPART  DS    V(PART)                 PAGE ACTIVITY REFERENCE TABLE
                                            5538 *----------------------------------------------------------------------
00000000                00000000 00000000   5539 PART     DSECT                         ILRPART
                        00000004            5540 PARTSIZE EQU   PART+04,4,C'X'          NUMBER OF ENTRIES IN THE PART
                        00000018            5541 PARTDSNL EQU   PART+24,4,C'X'          ADDR OF DSN LIST
                                            5542 *----------------------------------------------------------------------
                                            5543 *----------------------------------------------------------------------
                                            5544 * TASK MANAGEMENT
                                            5545 *----------------------------------------------------------------------
                                            5546 *----------------------------------------------------------------------
                                            5547          IHAASCB                       ADDRESS SPACE CONTROL BLOCK
                                            5780          IKJTCB DSECT=YES,LIST=NO      TASK CONTROL BLOCK
                                            6608          IKJRB  DSECT=YES              REQUEST BLOCK              <38J>
                                            7105 *----------------------------------------------------------------------
                                            7106 *----------------------------------------------------------------------
                                            7107 * CONTENTS MANAGEMENT
                                            7108 *----------------------------------------------------------------------
                                            7109 *----------------------------------------------------------------------
                                            7110          IHALPDE ,                     LPA DIRECTORY ENTRY
                                            7148          IHACDE ,                      CONTENTS DIRECTORY ENTRY
                                            7203          IHALLE ,                      LOAD-LIST ELEMENT
                                            7220          IHAXTLST ,                    EXTENT LIST
                                            7237 *----------------------------------------------------------------------
                                            7238 *----------------------------------------------------------------------
                                            7239 * IOS & DATA MANAGEMENT
                                            7240 *----------------------------------------------------------------------
                                            7241 *----------------------------------------------------------------------
                                            7242          IEZDEB  LIST=NO               DATA EXTENT BLOCK
00000000                00000000 00000070   7928 TIOT     DSECT
00000000                                    7929          IEFTIOT1                      TASK INPUT-OUTPUT TABLE
                                            8074          IEFUCBOB LIST=NO,PREFIX=NO    UNIT CONTROL BLOCK
00000000                00000000 000000B0   9170 JFCB     DSECT
                                            9171          IEFJFCBN LIST=NO              JOB FILE CONTROL BLOCK
                                            9782 *----------------------------------------------------------------------
                                            9783 *----------------------------------------------------------------------
                                            9784 * SMF, SRM
                                            9785 *----------------------------------------------------------------------
                                            9786 *----------------------------------------------------------------------
                                            9787          IEESMCA                       SMF ANCHOR
                                           10042          IEFTCT ,                      SMF TIMING CONTROL TABLE
                                           10306          IRAOUCB                       SRM PARMS
                                           10464 *----------------------------------------------------------------------
                                           10465 *----------------------------------------------------------------------
                                           10466 * PROGRAM PRODUCTS
                                           10467 *----------------------------------------------------------------------
                                           10468 *----------------------------------------------------------------------
                                           10469 *@@@     ICHPRCVT                      RACF
00000000                00000000 000000AD  10470 RCVT     DSECT                         ICHPRCVT  <==CVTRAC
00000000                00000000 000000AC  10471          ORG   *+X'00AC'
000000AC                                   10472 RCVTVERS DS    XL1                     VERSION INDICATOR
                        000000F0           10473 RCVTVRN  EQU   X'F0'                   VERSION NUMBER IN HIGH NIBBLE
                        0000000F           10474 RCVTRELS EQU   X'0F'                   RELEASE NUMBER IN LOW NIBBLE
                                           10475 *----------------------------------------------------------------------
                                           10476 *@@@     ARCQCT                        HSM
                                           10477 *----------------------------------------------------------------------
00000000                00000000 00000034  10478 MQCT     DSECT                         ARCACT    <==CVTHSM
00000000                00000000 0000002C  10479          ORG   *+X'002C'
0000002C                                   10480 MQCTID   DS    C'QCT*'                 BLOCK ID
00000030                                   10481 MQCTVER  DS    CL2                     VERSION
00000032                                   10482 MQCTREL  DS    CL1                     RELEASE
00000033                                   10483 MQCTMOD  DS    CL1                     MODIFICATION
                                           10484 *----------------------------------------------------------------------
                                           10485 *----------------------------------------------------------------------
                                           10486 * RECOVERY/TERMINATION
                                           10487 *----------------------------------------------------------------------
                                           10488 *----------------------------------------------------------------------
                                           10489          IHASDWA DSECT=YES             SDWA DSECT                 <38J>
                                           11040 *----------------------------------------------------------------------
                                           11041 *----------------------------------------------------------------------
                                           11042 * MISCELLANEOUS
                                           11043 *----------------------------------------------------------------------
                                           11044 *----------------------------------------------------------------------
                                           11045          IEZBITS                       BIT0-BIT7
                                           11046          YREGS                         REGISTER EQUATES
                                           11065 *----------------------------------------------------------------------
                                           11066 *----------------------------------------------------------------------
                                           11067 * ORPHANS (WE DON'T HAVE THESE IN MVS38J)
                                           11068 *----------------------------------------------------------------------
                                           11069 *----------------------------------------------------------------------
                                           11070 *8       IHARD  ,                      <NOT IN MVS38J>            <38J>
                                           11071 *8       IARRCE                        RSM CTL & ENUM AREA
                                           11072 *8       IHADFA  DSECT=YES             DFP AREA
                                           11073 *8       IKJTSVT                       TSO VECTOR TABLE
                                           11074 *----------------------------------------------------------------------
00000000                00000000 00000035  11075 LLT      DSECT                         LINKLIST TABLE
00000000                                   11076 LLTLLT   DS    C'LLT '                 BLOCK ACRONYM
00000004                                   11077 LLTNO    DS    F                       NUMBER OF ENTRIES
00000008                                   11078 LLTENTRY DS    0CL45                   DSNAME ENTRY
00000008                                   11079 LLTDSNL  DS    FL1                     DSNAME LENGTH AFTER TRUNCATION
00000009                                   11080 LLTDSNAM DS    CL44                    DATA SET NAME
                        00000035           11081 LLTNEXT  EQU   *                       NEXT ENTRY
                                           11082          DROP  ,
                                                                                                                           Page   44 
  ACTIVE USINGS: 
  Loc    Object Code      Addr1    Addr2    Stmt  Source Statement                                    DASM V1.75.00 2004/12/29 15:27 
                                           11084 ***********************************************************************
                                           11085 *
                                           11086 *        JULIAN-TO-YYMMDD CONVERSION ROUTINE
                                           11087 *
                                           11088 *          RECEIVES 00YYDDDF IN R1
                                           11089 *
                                           11090 *          RETURNS ADDRESS OF "YYMMDD" IN R1
                                           11091 *
                                           11092 ***********************************************************************
00002078                00002078 00000090  11093 @JDATE   CSECT
                                           11094 *8DATE   RMODE ANY
                                           11095          SAVE  (14,2),,@JDATE
00002088 0520                              11100          BALR  R2,0
                        0000208A           11101          USING *,R2
                        00000000           11102          USING @JDATES,R13
0000208A D217 D020 2066 00000020 000020F0  11103          MVC   @JDATET1,@JDATET0       MONTH TABLE
00002090 9101 D019      00000019 00000001  11104          TM    @JDATED+1,X'01'         ODD YEARS
00002094 4710 201A               000020A4  11105          BO    @JDATEN                   AREN'T LEAP YEARS
00002098 9112 D019      00000019 00000012  11106          TM    @JDATED+1,X'12'         ZEROES IN 1980, ALL ONES IN 1992
0000209C 4740 201A               000020A4  11107          BM    @JDATEN                 MIXED IN 1982/1990
000020A0 929F D023      00000023 0000009F  11108 @JDATEL  MVI   @JDATET1+3,X'9F'        29TH OF FEBRUARY (LEAP YEAR)
000020A4 F830 D010 D027 00000010 00000027  11109 @JDATEN  ZAP   @JDATEM,@JDATET1+7(1)   0 OF 30
000020AA 41F0 D01E               0000001E  11110          LA    R15,@JDATET1-2          TABLE OF MONTHS (NUMBER OF DAYS)
000020AE FA30 D010 D021 00000010 00000021  11111 @JDATEP  AP    @JDATEM,@JDATET1+1(1)   ADD 1 OF 31
000020B4 41F0 F002               00000002  11112          LA    R15,2(,R15)             NEXT NUMBER OF DAYS
000020B8 FB11 D01A F000 0000001A 00000000  11113          SP    @JDATED+2(2),0(2,R15)   DDD
000020BE 4720 2024               000020AE  11114          BP    @JDATEP
000020C2 FA11 D01A F000 0000001A 00000000  11115          AP    @JDATED+2(2),0(2,R15)   DDD
000020C8 4110 D038               00000038  11116          LA    R1,@JDATEY
000020CC F321 1000 D019 00000000 00000019  11117          UNPK  0(3,R1),@JDATED+1(2)    YY
000020D2 F313 1002 D010 00000002 00000010  11118          UNPK  2(2,R1),@JDATEM         YYMM
000020D8 96F0 1003      00000003 000000F0  11119          OI    3(R1),X'F0'             SUPPRESS SIGN
000020DC F311 1004 D01A 00000004 0000001A  11120          UNPK  4(2,R1),@JDATED+2(2)    YYMMDD
000020E2 96F0 1005      00000005 000000F0  11121          OI    5(R1),X'F0'             SUPPRESS SIGN
000020E6 5010 D018               00000018  11122          ST    R1,@JDATED              PASS ADDRESS OF YYMMDD HH:MM
                                           11123          RETURN (14,2)
000020F0 031C028C031C030C                  11126 @JDATET0 DC    P'31,28,31,30,31,30,31,31,30,31,30,31'
000020F8 031C030C031C031C
00002100 030C031C030C031C



00000000                00000000 0000003F  11128 @JDATES  DSECT
00000000                                   11129          DS    A(0,0,0,14,15,0,1,2)
                        00000010           11130 @JDATEM  EQU   @JDATES+16,4,C'P'       R15 SLOT
                        00000018           11131 @JDATED  EQU   @JDATES+24,4,C'P'       R1 SLOT: 00YYDDDF
00000004                                   11132 @JDATET1 DS    CL24               +32  TABLE OF MONTHS
0000001C                                   11133 @JDATEY  DS    C'YYMMDD',C' '     +56  YYMMDD.
                                           11134          END
                                                 Relocation Dictionary                                                     Page   45 
   Pos.Id   Rel.Id   Flags    Address                                                                 DASM V1.75.00 2004/12/29 15:27 
  00000001 00000001    0C    00000324
  00000001 00000001    0C    0000032C
  00000001 00000001    0C    00000334
  00000001 00000003    0C    00000344
  00000001 00000002    1C    000003F0
                                          Macro and Copy Code Source Summary                                               Page   46 
Source                                                    Members                                     DASM V1.75.00 2004/12/29 15:27 

/herc1/source/mvs38j/lib/amaclib                          ABEND    ATTACH   CLOSE    DCB      DCBD     DELETE   DETACH
                                                          ESTAE    FREEMAIN GETMAIN  IDENTIFY IEFJESCT IEFJSCVT IEFJSSVT
                                                          IEZBITS  IHACDE   IHALLE   IHALPDE  IHASDWA  IHB01    IHBINNRA
                                                          LOAD     LOCATE   OBTAIN   OPEN     PUT      RETURN   SAVE
                                                          SETRP

/herc1/source/mvs38j/lib/amodgen                          CVT      IECSDSL1 IEESMCA  IEFJFCBN IEFTCT   IEFTIOT1 IEFUCBOB
                                                          IEZDEB   IHAASCB  IHAGDA   IHALDA   IHAPSA   IHARB    IHASCVT
                                                          IHASPQE  IHAXTLST IKJRB    IKJTCB   IRAOUCB

arch/s370/tempmac                                         $MEMORY  IHADQE   IHAPCCA  IHAPQE   P$BEGIN  P$END    STRING
                                                          WK$OUT   YREGS
                                   Diagnostic Cross Reference and Assembler Summary                                        Page   47 
                                                                                                      DASM V1.75.00 2004/12/29 15:27 

Statements Flagged
    157(P1,127), 2468(L0:arch/s370/tempmac/string.mac,355)

     2 Statements Flagged in this Assembly         0 was Highest Severity Code
DASM Dignus Systems/ASM, VERSION 1.75.00
SYSTEM: Linux 2.4.20-4GB-athlon i68JOBNAME: (NOJOB)     STEPNAME: (NOSTEP)   PROCSTEP: (NOPROC)
Datasets Used for this Assembly
 Con  DDname   Dataset Name
  L1  showmvs  /herc2/mvs/ip/xinu/src/arch/s370/tempasm/showmvs.asm
  L2  save     /herc1/source/mvs38j/lib/amaclib/save.mac
  L3  getmain  /herc1/source/mvs38j/lib/amaclib/getmain.mac
  L4  estae    /herc1/source/mvs38j/lib/amaclib/estae.mac
  L5  freemain /herc1/source/mvs38j/lib/amaclib/freemain.mac
  L6  return   /herc1/source/mvs38j/lib/amaclib/return.mac
  L7  p$begin  arch/s370/tempmac/p$begin.mac
  L8  p$end    arch/s370/tempmac/p$end.mac
  L9  string   arch/s370/tempmac/string.mac
  L10 $memory  arch/s370/tempmac/$memory.mac
  L11 load     /herc1/source/mvs38j/lib/amaclib/load.mac
  L12 delete   /herc1/source/mvs38j/lib/amaclib/delete.mac
  L13 ihbinnra /herc1/source/mvs38j/lib/amaclib/ihbinnra.mac
  L14 close    /herc1/source/mvs38j/lib/amaclib/close.mac
  L15 identify /herc1/source/mvs38j/lib/amaclib/identify.mac
  L16 attach   /herc1/source/mvs38j/lib/amaclib/attach.mac
  L17 detach   /herc1/source/mvs38j/lib/amaclib/detach.mac
  L18 open     /herc1/source/mvs38j/lib/amaclib/open.mac
  L19 abend    /herc1/source/mvs38j/lib/amaclib/abend.mac
  L20 put      /herc1/source/mvs38j/lib/amaclib/put.mac
  L21 dcb      /herc1/source/mvs38j/lib/amaclib/dcb.mac
  L22 ihb01    /herc1/source/mvs38j/lib/amaclib/ihb01.mac
  L23 locate   /herc1/source/mvs38j/lib/amaclib/locate.mac
  L24 obtain   /herc1/source/mvs38j/lib/amaclib/obtain.mac
  L25 setrp    /herc1/source/mvs38j/lib/amaclib/setrp.mac
  L26 iecsdsl1 /herc1/source/mvs38j/lib/amodgen/iecsdsl1.mac
  L27 wk$out   arch/s370/tempmac/wk$out.mac
  L28 dcbd     /herc1/source/mvs38j/lib/amaclib/dcbd.mac
  L29 ihapsa   /herc1/source/mvs38j/lib/amodgen/ihapsa.mac
  L30 ihapcca  arch/s370/tempmac/ihapcca.mac
  L31 cvt      /herc1/source/mvs38j/lib/amodgen/cvt.mac
  L32 ihascvt  /herc1/source/mvs38j/lib/amodgen/ihascvt.mac
  L33 iefjesct /herc1/source/mvs38j/lib/amaclib/iefjesct.mac
  L34 iefjscvt /herc1/source/mvs38j/lib/amaclib/iefjscvt.mac
  L35 iefjssvt /herc1/source/mvs38j/lib/amaclib/iefjssvt.mac
  L36 ihagda   /herc1/source/mvs38j/lib/amodgen/ihagda.mac
  L37 ihalda   /herc1/source/mvs38j/lib/amodgen/ihalda.mac
  L38 ihapqe   arch/s370/tempmac/ihapqe.mac
  L39 ihaspqe  /herc1/source/mvs38j/lib/amodgen/ihaspqe.mac
  L40 ihadqe   arch/s370/tempmac/ihadqe.mac
  L41 ihaascb  /herc1/source/mvs38j/lib/amodgen/ihaascb.mac
  L42 ikjtcb   /herc1/source/mvs38j/lib/amodgen/ikjtcb.mac
  L43 ikjrb    /herc1/source/mvs38j/lib/amodgen/ikjrb.mac
  L44 iharb    /herc1/source/mvs38j/lib/amodgen/iharb.mac
  L45 iezbits  /herc1/source/mvs38j/lib/amaclib/iezbits.mac
  L46 ihalpde  /herc1/source/mvs38j/lib/amaclib/ihalpde.mac
  L47 ihacde   /herc1/source/mvs38j/lib/amaclib/ihacde.mac
  L48 ihalle   /herc1/source/mvs38j/lib/amaclib/ihalle.mac
  L49 ihaxtlst /herc1/source/mvs38j/lib/amodgen/ihaxtlst.mac
  L50 iezdeb   /herc1/source/mvs38j/lib/amodgen/iezdeb.mac
  L51 ieftiot1 /herc1/source/mvs38j/lib/amodgen/ieftiot1.mac
  L52 iefucbob /herc1/source/mvs38j/lib/amodgen/iefucbob.mac
  L53 iefjfcbn /herc1/source/mvs38j/lib/amodgen/iefjfcbn.mac
  L54 ieesmca  /herc1/source/mvs38j/lib/amodgen/ieesmca.mac
  L55 ieftct   /herc1/source/mvs38j/lib/amodgen/ieftct.mac
  L56 iraoucb  /herc1/source/mvs38j/lib/amodgen/iraoucb.mac
  L57 ihasdwa  /herc1/source/mvs38j/lib/amaclib/ihasdwa.mac
  L58 yregs    arch/s370/tempmac/yregs.mac

Assembly Start Time: 15.27.24 Stop Time: 15.27.25 Processor Time: 00.00.00.8300
Return Code 000
