                        HH        HH  EEEEEEEEEEEE  RRRRRRRRRRR    CCCCCCCCCC     00000000         11        CCCCCCCCCC
                       HH        HH  EEEEEEEEEEEE  RRRRRRRRRRRR  CCCCCCCCCCCC   0000000000       111       CCCCCCCCCCCC
                      HH        HH  EE            RR        RR  CC        CC  00      0000     1111       CC        CC
                     HH        HH  EE            RR        RR  CC            00     00 00       11       CC
                    HH        HH  EE            RR        RR  CC            00    00  00       11       CC
                   HHHHHHHHHHHH  EEEEEEEE      RRRRRRRRRRRR  CC            00   00   00       11       CC
                  HHHHHHHHHHHH  EEEEEEEE      RRRRRRRRRRR   CC            00  00    00       11       CC
                 HH        HH  EE            RR    RR      CC            00 00     00       11       CC
                HH        HH  EE            RR     RR     CC            0000      00       11       CC
               HH        HH  EE            RR      RR    CC        CC  000       00       11       CC        CC
              HH        HH  EEEEEEEEEEEE  RR       RR   CCCCCCCCCCCC   0000000000    1111111111   CCCCCCCCCCCC
             HH        HH  EEEEEEEEEEEE  RR        RR   CCCCCCCCCC     00000000     1111111111    CCCCCCCCCC



                    JJJJJJJJJJ   6666666666    6666666666        11        6666666666                  AAAAAAAAAA
                    JJJJJJJJJJ  666666666666  666666666666      111       666666666666                AAAAAAAAAAAA
                        JJ      66        66  66        66     1111       66        66                AA        AA
                        JJ      66            66                 11       66                          AA        AA
                        JJ      66            66                 11       66                          AA        AA
                        JJ      66666666666   66666666666        11       66666666666                 AAAAAAAAAAAA
                        JJ      666666666666  666666666666       11       666666666666                AAAAAAAAAAAA
                        JJ      66        66  66        66       11       66        66                AA        AA
                  JJ    JJ      66        66  66        66       11       66        66                AA        AA
                  JJ    JJ      66        66  66        66       11       66        66                AA        AA
                  JJJJJJJJ      666666666666  666666666666   1111111111   666666666666                AA        AA
                   JJJJJJ        6666666666    6666666666    1111111111    6666666666                 AA        AA


****A  START  JOB 6616  HERC01C   ME                    ROOM        4.17.35 AM 10 JAN 11  PRINTER1  SYS BSP1  JOB 6616  START  A****
****A  START  JOB 6616  HERC01C   ME                    ROOM        4.17.35 AM 10 JAN 11  PRINTER1  SYS BSP1  JOB 6616  START  A****
****A  START  JOB 6616  HERC01C   ME                    ROOM        4.17.35 AM 10 JAN 11  PRINTER1  SYS BSP1  JOB 6616  START  A****
****A  START  JOB 6616  HERC01C   ME                    ROOM        4.17.35 AM 10 JAN 11  PRINTER1  SYS BSP1  JOB 6616  START  A****

                                                J E S 2   J O B   L O G


04.17.34 JOB 6616  IEF677I WARNING MESSAGE(S) FOR JOB HERC01C  ISSUED
04.17.34 JOB 6616  $HASP373 HERC01C  STARTED - INIT  4 - CLASS S - SYS BSP1
04.17.34 JOB 6616  IEF403I HERC01C - STARTED - TIME=04.17.34
04.17.34 JOB 6616  IEFACTRT - Stepname  Procstep  Program   Retcode
04.17.34 JOB 6616  HERC01C    STEP01    ASM       IFOX00    RC= 0000
04.17.34 JOB 6616  HERC01C    STEP01    LKED      IEWL      RC= 0000
04.17.34 JOB 6616  HERC01C    STEP02    COB       IKFCBL00  RC= 0000
04.17.35 JOB 6616  HERC01C    STEP02    LKED      IEWL      RC= 0000
04.17.35 JOB 6616  HERC01C    STEP03    PL1L      IEMAA     RC= 0004
04.17.35 JOB 6616  HERC01C    STEP03    LKED      IEWL      RC= 0000
04.17.35 JOB 6616  IEF404I HERC01C - ENDED - TIME=04.17.35
04.17.35 JOB 6616  $HASP395 HERC01C  ENDED


------ JES2 JOB STATISTICS ------


 10 JAN 11 JOB EXECUTION DATE


        62 CARDS READ


     1,284 SYSOUT PRINT RECORDS


         0 SYSOUT PUNCH RECORDS


      0.02 MINUTES EXECUTION TIME

    1     //HERC01C JOB (Z904,0012),'ME',MSGLEVEL=(1,1),NOTIFY=HERC01,CLASS=S,    JOB 6616
          //            MSGCLASS=A                                                00020000
          **********************************************************************  00030000
          ***                                                                     00040000
          ***  THIS JOB INSTALLS THE TTY3270 DEMO PROGRAMS FROM THE CLE DISTRO.   00050000
          ***                                                                     00060000
          ***  THE SOFTWARE RESIDES IN 6 DATASETS.  BY DEFAULT, THE DATASETS      00070000
          ***  ARE PREFIXED WITH 'HERC01.MAP3270' ON VOLSER PUB002.               00080000
          ***                                                                     00090000
          ***    .PANEL CONTAINS THE SOURCE CODE FOR THE PANEL. EDITED MANUALLY   00100000
          ***           AND USED AS INPUT TO THE PANEL COMPILER - MAP3270.        00110000
          ***    .MAP   CONTAINS THE BAL CODE GENERATED BY MAP3270 FOR            00120000
          ***           THE PANEL DEFINITION                                      00130000
          ***    .ASM   CONTAINS BAL DATA DEFINITIONS FOR PANELS FROM MAP3270.    00140000
          ***    .COB   CONTAINS COBOL DATA DEFINITIONS FOR PANELS FROM MAP3270.  00150000
          ***    .PLI   CONTAINS PL/I DATA DEFINITIONS FOR PANELS FROM MAP3270.   00160000
          ***    .MACLIB CONTAINS MACROS USED FOR MAP3270.                        00170000
          ***    .LOADLIB CONTAINS THE EXECUTABLE CODE.                           00180000
          ***                                                                     00190000
          **********************************************************************  00200000
          **********************************************************************  00210000
          ***                                                                     00220000
          ***  ASSEMBLE THE TTY DEMO PROGRAM                                      00230000
          ***                                                                     00240000
          **********************************************************************  00250000
    2     //STEP01 EXEC ASMFCL,PARM.ASM='OBJ,NODECK',PARM.LKED='XREF,LET,LIST'    00260000
    3     XXASMFCL   PROC MAC='SYS1.MACLIB',MAC1='SYS1.MACLIB'                    00050000
    4     XXASM      EXEC PGM=IFOX00,PARM=OBJ,REGION=128K                         00100000
    5     //ASM.SYSLIB DD DSN=HERC01.MAP3270.MACLIB,DISP=SHR,DCB=BLKSIZE=19040    00270000
          X/SYSLIB   DD   DSN=&MAC,DISP=SHR                                       00150000
    6     //           DD DSN=HERC01.MAP3270.ASM,DISP=SHR                         00280000
          X/         DD   DSN=&MAC1,DISP=SHR                                      00200000
    7     //           DD DSN=SYS1.MACLIB,DISP=SHR                                00290000
    8     //           DD DSN=SYS2.MACLIB,DISP=SHR                                00300000
    9     XXSYSUT1   DD   DSN=&&SYSUT1,UNIT=SYSSQ,SPACE=(1700,(600,100)),         00250000
          XX             SEP=(SYSLIB)                                             00300000
   10     XXSYSUT2   DD   DSN=&&SYSUT2,UNIT=SYSSQ,SPACE=(1700,(300,50)),          00350000
          XX             SEP=(SYSLIB,SYSUT1)                                      00400000
   11     XXSYSUT3   DD   DSN=&&SYSUT3,UNIT=SYSSQ,SPACE=(1700,(300,50))           00450000
   12     XXSYSPRINT DD   SYSOUT=A,DCB=BLKSIZE=1089                               00500000
   13     XXSYSPUNCH DD   SYSOUT=B                                                00550000
   14     XXSYSGO    DD   DSN=&&OBJSET,UNIT=SYSSQ,SPACE=(80,(200,50)),            00600000
          XX             DISP=(MOD,PASS)                                          00650000
   15     //ASM.SYSIN DD DSN=HERC01.CLE.DISTRO.SOURCE(TTYASM),DISP=SHR            00310000
   16     XXLKED     EXEC PGM=IEWL,PARM=(XREF,LET,LIST,NCAL),REGION=128K,         00700000
          XX             COND=(8,LT,ASM)                                          00750000
   17     XXSYSLIN   DD   DSN=&&OBJSET,DISP=(OLD,DELETE)                          00800000
   18     XX         DD   DDNAME=SYSIN                                            00850000
   19     //LKED.SYSLMOD DD DSN=HERC01.MAP3270.LOADLIB(TTYASM),DISP=SHR           00320000
          ***                                                                     00330000
          **********************************************************************  00340000
          ***                                                                     00350000
          ***  COMPILE THE COBOL TTY DEMO PROGRAM                                 00360000
          ***                                                                     00370000
          **********************************************************************  00380000
          X/SYSLMOD  DD   DSN=&&GOSET(GO),UNIT=SYSDA,SPACE=(1024,(50,20,1)),      00900000
          XX             DISP=(MOD,PASS)                                          00950000
   20     XXSYSUT1   DD   DSN=&&SYSUT1,UNIT=(SYSDA,SEP=(SYSLIN,SYSLMOD)),         01000000
          XX             SPACE=(1024,(50,20))                                     01050000
   21     XXSYSPRINT DD   SYSOUT=A                                                01100000
   22     //STEP02 EXEC COBUCL,                                                   00390000
          //  PARM.COB=('NODECK,LOAD,SUPMAP,SIZE=2048K,BUF=1024K',                00400000
          //            'LIB,NOPMAP,NODMAP,NOXREF,CLIST'),                        00410000
          //  PARM.LKED='LIST,XREF,LET'                                           00420000
   23     XXCOB  EXEC  PGM=IKFCBL00,REGION=4096K,                                 00010000
          XX           PARM='LOAD,SUPMAP,SIZE=2048K,BUF=1024K'                    00020000
   24     XXSYSPRINT  DD SYSOUT=A                                                 00030000
   25     XXSYSUT1 DD UNIT=SYSDA,SPACE=(460,(700,100))                            00040000
   26     XXSYSUT2 DD UNIT=SYSDA,SPACE=(460,(700,100))                            00050000
   27     XXSYSUT3 DD UNIT=SYSDA,SPACE=(460,(700,100))                            00060000
   28     XXSYSUT4 DD UNIT=SYSDA,SPACE=(460,(700,100))                            00070000
   29     XXSYSLIN DD DSNAME=&LOADSET,DISP=(MOD,PASS),UNIT=SYSDA,                 00080000
          XX             SPACE=(80,(500,100))                                     00090000
   30     //COB.SYSLIB DD DSN=HERC01.MAP3270.COB,DISP=SHR                         00430000
   31     //COB.SYSIN DD DSN=HERC01.CLE.DISTRO.SOURCE(TTYCOB),DISP=SHR            00440000
   32     //COB.SYSPUNCH DD DUMMY                                                 00450000
   33     XXLKED EXEC PGM=IEWL,PARM='LIST,XREF,LET',COND=(5,LT,COB),REGION=96K    00100000
   34     XXSYSLIN  DD DSNAME=&LOADSET,DISP=(OLD,DELETE)                          00110000
   35     XX  DD  DDNAME=SYSIN                                                    00120000
   36     //LKED.SYSLIB  DD                                                       00460000
          X/SYSLIB DD   DSNAME=SYS1.COBLIB,DISP=SHR                               00130000
   37     //             DD DSN=HERC01.CLE.DISTRO.LOADLIB,DISP=SHR                00470000
   38     XXSYSUT1 DD UNIT=(SYSDA,SEP=(SYSLIN,SYSLMOD)),SPACE=(1024,(50,20))      00140000
   39     XXSYSPRINT DD SYSOUT=A                                                  00150000
   40     //LKED.SYSLMOD DD DSN=HERC01.MAP3270.LOADLIB(TTYCOB),DISP=SHR           00480000
          ***                                                                     00490000
          **********************************************************************  00500000
          ***                                                                     00510000
          ***  COMPILE THE PL/1 TTY DEMO PROGRAM                                  00520000
          ***                                                                     00530000
          **********************************************************************  00540000
          X/SYSLMOD DD DUMMY                                                      00160000
   41     //STEP03 EXEC PL1LFCL,REGION.PL1L=128K,                                 00550000
          //  PARM.PL1L='NODECK,LOAD,MACRO'                                       00560000
   42     XXPL1L   EXEC  PGM=IEMAA,PARM='LOAD,NODECK',REGION=52K                  05000001
   43     XXSYSPRINT DD  SYSOUT=A                                                 10000001
   44     XXSYSLIN   DD  DSNAME=&&LOADSET,DISP=(MOD,PASS),UNIT=SYSSQ,            *15000001
          XX             SPACE=(80,(250,100))                                     20000001
   45     XXSYSUT3  DD  DSNAME=&&SYSUT3,UNIT=SYSDA,SPACE=(80,(250,250)),         *23000019
          XX             DCB=BLKSIZE=80                                           26000019
   46     XXSYSUT1   DD  DSNAME=&&SYSUT1,UNIT=SYSDA,SPACE=(1024,(60,60),,CONTIG),*30000001
          XX             SEP=(SYSUT3,SYSLIN),DCB=BLKSIZE=1024                     35000019
   47     //PL1L.SYSLIB DD DSN=HERC01.MAP3270.PLI,DISP=SHR                        00570000
   48     //PL1L.SYSIN DD DSN=HERC01.CLE.DISTRO.SOURCE(TTYPLI),DISP=SHR           00580000
   49     XXLKED   EXEC  PGM=IEWL,PARM='XREF,LIST',COND=(9,LT,PL1L),             *40000001
          XX             REGION=96K                                               45000001
   50     //LKED.SYSLIB  DD                                                       00590000
          X/SYSLIB   DD  DSNAME=SYS1.PL1LIB,DISP=SHR                              50000001
   51     //             DD DSN=HERC01.CLE.DISTRO.LOADLIB,DISP=SHR                00600000
   52     //LKED.SYSLMOD DD DSN=HERC01.MAP3270.LOADLIB(TTYPLI),DISP=SHR           00610000
          ***                                                                     00620000
          X/SYSLMOD  DD  DSNAME=&&GOSET(GO),DISP=(MOD,PASS),                     *55000001
          XX             UNIT=SYSDA,SPACE=(1024,(50,20,1),RLSE)                   60000001
   53     XXSYSUT1   DD  DSNAME=&&SYSUT1,UNIT=SYSDA,SPACE=(1024,(200,20)),       *65000001
          XX             SEP=(SYSLMOD,SYSLIB),DCB=BLKSIZE=1024                    70000019
   54     XXSYSPRINT DD  SYSOUT=A                                                 75000001
   55     XXSYSLIN   DD  DSNAME=&&LOADSET,DISP=(OLD,DELETE)                       80000001
   56     XX         DD  DDNAME=SYSIN                                             85000001

 STMT NO. MESSAGE
-
    5     IEF653I SUBSTITUTION JCL - DSN=SYS1.MACLIB,DISP=SHR
    6     IEF653I SUBSTITUTION JCL - DSN=SYS1.MACLIB,DISP=SHR
   22     IEF686I DDNAME REFERRED TO ON DDNAME KEYWORD IN PRIOR STEP WAS NOT RESOLVED
   41     IEF686I DDNAME REFERRED TO ON DDNAME KEYWORD IN PRIOR STEP WAS NOT RESOLVED
   56     IEF686I DDNAME REFERRED TO ON DDNAME KEYWORD IN PRIOR STEP WAS NOT RESOLVED
IEF236I ALLOC. FOR HERC01C ASM STEP01
IEF237I 280  ALLOCATED TO SYSLIB
IEF237I 280  ALLOCATED TO
IEF237I 148  ALLOCATED TO
IEF237I 148  ALLOCATED TO
IEF237I 240  ALLOCATED TO SYS00099
IEF237I 14A  ALLOCATED TO SYSUT1
IEF237I 190  ALLOCATED TO SYSUT2
IEF237I 149  ALLOCATED TO SYSUT3
IEF237I JES2 ALLOCATED TO SYSPRINT
IEF237I JES2 ALLOCATED TO SYSPUNCH
IEF237I 14C  ALLOCATED TO SYSGO
IEF237I 280  ALLOCATED TO SYSIN
IEF142I HERC01C ASM STEP01 - STEP WAS EXECUTED - COND CODE 0000
IEF285I   HERC01.MAP3270.MACLIB                        KEPT          *-------13
IEF285I   VOL SER NOS= PUB002.
IEF285I   HERC01.MAP3270.ASM                           KEPT          *--------0
IEF285I   VOL SER NOS= PUB002.
IEF285I   SYS1.MACLIB                                  KEPT          *--------8
IEF285I   VOL SER NOS= MVSRES.
IEF285I   SYS2.MACLIB                                  KEPT          *--------0
IEF285I   VOL SER NOS= MVSRES.
IEF285I   SYS1.UCAT.TSO                                KEPT          *--------0
IEF285I   VOL SER NOS= PUB000.
IEF285I   SYS11010.T041734.RA000.HERC01C.SYSUT1        DELETED       *-------57
IEF285I   VOL SER NOS= SMP002.
IEF285I   SYS11010.T041734.RA000.HERC01C.SYSUT2        DELETED       *-------18
IEF285I   VOL SER NOS= WORK03.
IEF285I   SYS11010.T041734.RA000.HERC01C.SYSUT3        DELETED       *--------8
IEF285I   VOL SER NOS= SMP001.
IEF285I   JES2.JOB06616.SO0101                         SYSOUT
IEF285I   JES2.JOB06616.SO0102                         SYSOUT
IEF285I   SYS11010.T041734.RA000.HERC01C.OBJSET        PASSED        *-------18
IEF285I   VOL SER NOS= SMP004.
IEF285I   HERC01.CLE.DISTRO.SOURCE                     KEPT          *--------3
IEF285I   VOL SER NOS= PUB002.
IEF373I STEP /ASM     / START 11010.0417
IEF374I STEP /ASM     / STOP  11010.0417 CPU    0MIN 00.18SEC SRB    0MIN 00.02SEC VIRT   128K SYS   204K
************************************************************************************************************************************
*     1. Jobstep of job: HERC01C     Stepname: ASM         Program name: IFOX00     Executed on 10.01.11 from 04.17.34 to 04.17.34 *
*         elapsed time  24:00:00,35                      CPU-Identifier:  BSP1           Page-in:      0                           *
*             CPU time  00:00:00,20               Virtual Storage used:    128K         Page-out:      0                           *
*           corr. CPU:  00:00:00,20   CPU time has been corrected by  1 / 1,0  multiplier                                          *
*                                                                                                                                  *
*     I/O Operation                                                                                                                *
*     Number of records read via DD * or DD DATA:      0                                                                           *
*     280......13 280.......0 148.......8 148.......0 240.......0 14A......57 190......18 149.......8 DMY.......0 DMY.......0      *
*     14C......18 280.......3                                                                                                      *
*                                                                                                                                  *
*                                          Charge for step (w/o SYSOUT):          0,33                                             *
************************************************************************************************************************************
IEF236I ALLOC. FOR HERC01C LKED STEP01
IEF237I 14C  ALLOCATED TO SYSLIN
IEF237I DMY  ALLOCATED TO
IEF237I 280  ALLOCATED TO SYSLMOD
IEF237I 240  ALLOCATED TO SYS00101
IEF237I 180  ALLOCATED TO SYSUT1
IEF237I JES2 ALLOCATED TO SYSPRINT
IEF142I HERC01C LKED STEP01 - STEP WAS EXECUTED - COND CODE 0000
IEF285I   SYS11010.T041734.RA000.HERC01C.OBJSET        DELETED       *-------19
IEF285I   VOL SER NOS= SMP004.
IEF285I   HERC01.MAP3270.LOADLIB                       KEPT          *-------11
IEF285I   VOL SER NOS= PUB002.
IEF285I   SYS1.UCAT.TSO                                KEPT          *--------0
IEF285I   VOL SER NOS= PUB000.
IEF285I   SYS11010.T041734.RA000.HERC01C.SYSUT1        DELETED       *--------0
IEF285I   VOL SER NOS= WORK02.
IEF285I   JES2.JOB06616.SO0103                         SYSOUT
IEF373I STEP /LKED    / START 11010.0417
IEF374I STEP /LKED    / STOP  11010.0417 CPU    0MIN 00.03SEC SRB    0MIN 00.01SEC VIRT   128K SYS   216K
************************************************************************************************************************************
*     2. Jobstep of job: HERC01C     Stepname: LKED        Program name: IEWL       Executed on 10.01.11 from 04.17.34 to 04.17.34 *
*         elapsed time  24:00:00,09                      CPU-Identifier:  BSP1           Page-in:      0                           *
*             CPU time  00:00:00,04               Virtual Storage used:    128K         Page-out:      0                           *
*           corr. CPU:  00:00:00,04   CPU time has been corrected by  1 / 1,0  multiplier                                          *
*                                                                                                                                  *
*     I/O Operation                                                                                                                *
*     Number of records read via DD * or DD DATA:      0                                                                           *
*     14C......19 DMY.......0 280......11 240.......0 180.......0 DMY.......0                                                      *
*                                                                                                                                  *
*                                          Charge for step (w/o SYSOUT):          0,06                                             *
************************************************************************************************************************************
IEF236I ALLOC. FOR HERC01C COB STEP02
IEF237I JES2 ALLOCATED TO SYSPRINT
IEF237I 180  ALLOCATED TO SYSUT1
IEF237I 14C  ALLOCATED TO SYSUT2
IEF237I 14A  ALLOCATED TO SYSUT3
IEF237I 170  ALLOCATED TO SYSUT4
IEF237I 190  ALLOCATED TO SYSLIN
IEF237I 280  ALLOCATED TO SYSLIB
IEF237I 240  ALLOCATED TO SYS00103
IEF237I 280  ALLOCATED TO SYSIN
IEF237I DMY  ALLOCATED TO SYSPUNCH
IEF142I HERC01C COB STEP02 - STEP WAS EXECUTED - COND CODE 0000
IEF285I   JES2.JOB06616.SO0104                         SYSOUT
IEF285I   SYS11010.T041734.RA000.HERC01C.R0000001      DELETED       *--------6
IEF285I   VOL SER NOS= WORK02.
IEF285I   SYS11010.T041734.RA000.HERC01C.R0000002      DELETED       *--------6
IEF285I   VOL SER NOS= SMP004.
IEF285I   SYS11010.T041734.RA000.HERC01C.R0000003      DELETED       *--------9
IEF285I   VOL SER NOS= SMP002.
IEF285I   SYS11010.T041734.RA000.HERC01C.R0000004      DELETED       *--------6
IEF285I   VOL SER NOS= WORK01.
IEF285I   SYS11010.T041734.RA000.HERC01C.LOADSET       PASSED        *-------41
IEF285I   VOL SER NOS= WORK03.
IEF285I   HERC01.MAP3270.COB                           KEPT          *--------6
IEF285I   VOL SER NOS= PUB002.
IEF285I   SYS1.UCAT.TSO                                KEPT          *--------0
IEF285I   VOL SER NOS= PUB000.
IEF285I   HERC01.CLE.DISTRO.SOURCE                     KEPT          *--------4
IEF285I   VOL SER NOS= PUB002.
IEF373I STEP /COB     / START 11010.0417
IEF374I STEP /COB     / STOP  11010.0417 CPU    0MIN 00.15SEC SRB    0MIN 00.06SEC VIRT  2076K SYS   228K
************************************************************************************************************************************
*     3. Jobstep of job: HERC01C     Stepname: COB         Program name: IKFCBL00   Executed on 10.01.11 from 04.17.34 to 04.17.34 *
*         elapsed time  24:00:00,35                      CPU-Identifier:  BSP1           Page-in:      0                           *
*             CPU time  00:00:00,21               Virtual Storage used:   2076K         Page-out:      0                           *
*           corr. CPU:  00:00:00,21   CPU time has been corrected by  1 / 1,0  multiplier                                          *
*                                                                                                                                  *
*     I/O Operation                                                                                                                *
*     Number of records read via DD * or DD DATA:      0                                                                           *
*     DMY.......0 180.......6 14C.......6 14A.......9 170.......6 190......41 280.......6 240.......0 280.......4 DMY.......0      *
*                                                                                                                                  *
*                                          Charge for step (w/o SYSOUT):          0,35                                             *
************************************************************************************************************************************
IEF236I ALLOC. FOR HERC01C LKED STEP02
IEF237I 190  ALLOCATED TO SYSLIN
IEF237I DMY  ALLOCATED TO
IEF237I 148  ALLOCATED TO SYSLIB
IEF237I 280  ALLOCATED TO
IEF237I 240  ALLOCATED TO SYS00105
IEF237I 149  ALLOCATED TO SYSUT1
IEF237I JES2 ALLOCATED TO SYSPRINT
IEF237I 280  ALLOCATED TO SYSLMOD
IEF142I HERC01C LKED STEP02 - STEP WAS EXECUTED - COND CODE 0000
IEF285I   SYS11010.T041734.RA000.HERC01C.LOADSET       DELETED       *-------42
IEF285I   VOL SER NOS= WORK03.
IEF285I   SYS1.COBLIB                                  KEPT          *--------8
IEF285I   VOL SER NOS= MVSRES.
IEF285I   HERC01.CLE.DISTRO.LOADLIB                    KEPT          *--------7
IEF285I   VOL SER NOS= PUB002.
IEF285I   SYS1.UCAT.TSO                                KEPT          *--------0
IEF285I   VOL SER NOS= PUB000.
IEF285I   SYS11010.T041734.RA000.HERC01C.R0000005      DELETED       *--------0
IEF285I   VOL SER NOS= SMP001.
IEF285I   JES2.JOB06616.SO0105                         SYSOUT
IEF285I   HERC01.MAP3270.LOADLIB                       KEPT          *-------10
IEF285I   VOL SER NOS= PUB002.
IEF373I STEP /LKED    / START 11010.0417
IEF374I STEP /LKED    / STOP  11010.0417 CPU    0MIN 00.05SEC SRB    0MIN 00.01SEC VIRT    96K SYS   216K
************************************************************************************************************************************
*     4. Jobstep of job: HERC01C     Stepname: LKED        Program name: IEWL       Executed on 10.01.11 from 04.17.34 to 04.17.35 *
*         elapsed time  24:00:00,12                      CPU-Identifier:  BSP1           Page-in:      0                           *
*             CPU time  00:00:00,06               Virtual Storage used:     96K         Page-out:      0                           *
*           corr. CPU:  00:00:00,06   CPU time has been corrected by  1 / 1,0  multiplier                                          *
*                                                                                                                                  *
*     I/O Operation                                                                                                                *
*     Number of records read via DD * or DD DATA:      0                                                                           *
*     190......42 DMY.......0 148.......8 280.......7 240.......0 149.......0 DMY.......0 280......10                              *
*                                                                                                                                  *
*                                          Charge for step (w/o SYSOUT):          0,10                                             *
************************************************************************************************************************************
IEF236I ALLOC. FOR HERC01C PL1L STEP03
IEF237I JES2 ALLOCATED TO SYSPRINT
IEF237I 180  ALLOCATED TO SYSLIN
IEF237I 190  ALLOCATED TO SYSUT3
IEF237I 149  ALLOCATED TO SYSUT1
IEF237I 280  ALLOCATED TO SYSLIB
IEF237I 240  ALLOCATED TO SYS00107
IEF237I 280  ALLOCATED TO SYSIN
IEF142I HERC01C PL1L STEP03 - STEP WAS EXECUTED - COND CODE 0004
IEF285I   JES2.JOB06616.SO0106                         SYSOUT
IEF285I   SYS11010.T041734.RA000.HERC01C.LOADSET       PASSED        *-------50
IEF285I   VOL SER NOS= WORK02.
IEF285I   SYS11010.T041734.RA000.HERC01C.SYSUT3        DELETED       *------123
IEF285I   VOL SER NOS= WORK03.
IEF285I   SYS11010.T041734.RA000.HERC01C.SYSUT1        DELETED       *--------0
IEF285I   VOL SER NOS= SMP001.
IEF285I   HERC01.MAP3270.PLI                           KEPT          *-------16
IEF285I   VOL SER NOS= PUB002.
IEF285I   SYS1.UCAT.TSO                                KEPT          *--------0
IEF285I   VOL SER NOS= PUB000.
IEF285I   HERC01.CLE.DISTRO.SOURCE                     KEPT          *--------3
IEF285I   VOL SER NOS= PUB002.
IEF373I STEP /PL1L    / START 11010.0417
IEF374I STEP /PL1L    / STOP  11010.0417 CPU    0MIN 00.31SEC SRB    0MIN 00.08SEC VIRT   140K SYS   216K
************************************************************************************************************************************
*     5. Jobstep of job: HERC01C     Stepname: PL1L        Program name: IEMAA      Executed on 10.01.11 from 04.17.35 to 04.17.35 *
*         elapsed time  24:00:00,51                      CPU-Identifier:  BSP1           Page-in:      0                           *
*             CPU time  00:00:00,39               Virtual Storage used:    140K         Page-out:      0                           *
*           corr. CPU:  00:00:00,39   CPU time has been corrected by  1 / 1,0  multiplier                                          *
*                                                                                                                                  *
*     I/O Operation                                                                                                                *
*     Number of records read via DD * or DD DATA:      0                                                                           *
*     DMY.......0 180......50 190.....123 149.......0 280......16 240.......0 280.......3                                          *
*                                                                                                                                  *
*                                          Charge for step (w/o SYSOUT):          0,65                                             *
************************************************************************************************************************************
IEF236I ALLOC. FOR HERC01C LKED STEP03
IEF237I 148  ALLOCATED TO SYSLIB
IEF237I 280  ALLOCATED TO
IEF237I 240  ALLOCATED TO SYS00109
IEF237I 280  ALLOCATED TO SYSLMOD
IEF237I 170  ALLOCATED TO SYSUT1
IEF237I JES2 ALLOCATED TO SYSPRINT
IEF237I 180  ALLOCATED TO SYSLIN
IEF237I DMY  ALLOCATED TO
IEF142I HERC01C LKED STEP03 - STEP WAS EXECUTED - COND CODE 0000
IEF285I   SYS1.PL1LIB                                  KEPT          *-------76
IEF285I   VOL SER NOS= MVSRES.
IEF285I   HERC01.CLE.DISTRO.LOADLIB                    KEPT          *--------7
IEF285I   VOL SER NOS= PUB002.
IEF285I   SYS1.UCAT.TSO                                KEPT          *--------0
IEF285I   VOL SER NOS= PUB000.
IEF285I   HERC01.MAP3270.LOADLIB                       KEPT          *-------43
IEF285I   VOL SER NOS= PUB002.
IEF285I   SYS11010.T041734.RA000.HERC01C.SYSUT1        DELETED       *--------0
IEF285I   VOL SER NOS= WORK01.
IEF285I   JES2.JOB06616.SO0107                         SYSOUT
IEF285I   SYS11010.T041734.RA000.HERC01C.LOADSET       DELETED       *-------51
IEF285I   VOL SER NOS= WORK02.
IEF373I STEP /LKED    / START 11010.0417
IEF374I STEP /LKED    / STOP  11010.0417 CPU    0MIN 00.09SEC SRB    0MIN 00.02SEC VIRT    96K SYS   224K
************************************************************************************************************************************
*     6. Jobstep of job: HERC01C     Stepname: LKED        Program name: IEWL       Executed on 10.01.11 from 04.17.35 to 04.17.35 *
*         elapsed time  24:00:00,19                      CPU-Identifier:  BSP1           Page-in:      0                           *
*             CPU time  00:00:00,11               Virtual Storage used:     96K         Page-out:      0                           *
*           corr. CPU:  00:00:00,11   CPU time has been corrected by  1 / 1,0  multiplier                                          *
*                                                                                                                                  *
*     I/O Operation                                                                                                                *
*     Number of records read via DD * or DD DATA:      0                                                                           *
*     148......76 280.......7 240.......0 280......43 170.......0 DMY.......0 180......51 DMY.......0                              *
*                                                                                                                                  *
*                                          Charge for step (w/o SYSOUT):          0,18                                             *
************************************************************************************************************************************
IEF375I  JOB /HERC01C / START 11010.0417
IEF376I  JOB /HERC01C / STOP  11010.0417 CPU    0MIN 00.81SEC SRB    0MIN 00.20SEC

                                               EXTERNAL SYMBOL DICTIONARY                                      PAGE    1


SYMBOL   TYPE  ID   ADDR  LENGTH LDID                                                            ASM 0201 04.17 01/10/11

TTYDEMO   SD  0001 000000 000304

         3270 TTY TEST DRIVER - VER 1.0.0                                                                      PAGE    2


  LOC  OBJECT CODE    ADDR1 ADDR2  STMT   SOURCE STATEMENT                                       ASM 0201 04.17 01/10/11

                                      2 TTYDEMO  ESTART TYPE=START,DESC='3270 TTY TEST DRIVER',VER='1.0.0',    *00000002
                                                       REGS=YES,BASE=R11                                        00000003
000000                                3+TTYDEMO  START                                                          00000019
                                      4+*                                                                       00000027
000000 47FF 0080      00080           5+ID10001    B     ID40001(15)           BRANCH AROUND IDENT CONSTANTS    00000039
000004 7B                             6+         DC    AL1(ID30001-ID20001)                                     00000041
000005 E3E3E8C4C5D4D640               7+ID20001    DC    CL8'TTYDEMO'                                           00000042
00000D F14BF04BF0                     8+         DC    C'1.0.0'                                                 00000043
000012 40F0F161F1F061F1               9+         DC    C' 01/10/11 04.17 - '                                    00000044
000024 F3F2F7F040E3E3E8              10+         DC    C'3270 TTY TEST DRIVER'                                  00000045
000038                               11+         DS    0F                                                       00000046
                            00038    12+IDS0001    EQU   *-ID10001                                              00000047
000038                               13+         DS    18F                                                      00000048
000080                               14+ID30001    DS    0H                                                     00000049
                            00000    15+R0       EQU   0                                                        00000007
                            00001    16+R1       EQU   1                                                        00000008
                            00002    17+R2       EQU   2                                                        00000009
                            00003    18+R3       EQU   3                                                        00000010
                            00004    19+R4       EQU   4                                                        00000011
                            00005    20+R5       EQU   5                                                        00000012
                            00006    21+R6       EQU   6                                                        00000013
                            00007    22+R7       EQU   7                                                        00000014
                            00008    23+R8       EQU   8                                                        00000015
                            00009    24+R9       EQU   9                                                        00000016
                            0000A    25+R10      EQU   10                                                       00000017
                            0000B    26+R11      EQU   11                                                       00000018
                            0000C    27+R12      EQU   12                                                       00000019
                            0000D    28+R13      EQU   13                                                       00000020
                            0000E    29+R14      EQU   14                                                       00000021
                            0000F    30+R15      EQU   15                                                       00000022
                            00080    31+ID40001    EQU   *-ID10001                                              00000054
                                     32+*                                                                       00000055
000080 90EC D00C      0000C          33+         STM   14,12,12(13)                                             00000056
                                     34+*                                                                       00000057
000084 185D                          35+         LR    5,13                COPY CALLER'S SAVEAREA ADDR          00000058
000086 41DF 0038      00038          36+         LA    13,IDS0001(15)      ESTABLISH MY SAVEAREA                00000059
00008A 5050 D004      00004          37+         ST    5,4(,13)            BACK CHAIN SAVE AREAS                00000060
00008E 50D0 5008      00008          38+         ST    13,8(,5)            FORWARD CHAIN SAVE AREAS             00000061
000092 05B0                          39+         BALR  R11,0               ESTABLISH BASE REG VALUE             00000063
                            00094    40+         USING *,R11                                                    00000064
                                     41 *                                                                       00000004
                                     42 *   THIS IS A DEMO FOR THE TTYRTN.  TTYRTN SUPPORTS 2 PARM FORMATS,     00000005
                                     43 *   BOTH OF WHICH CAN BE INTERCHANGED.                                  00000006
                                     44 *                                                                       00000007
                                     45 *                                                                       00000008
                                     46          LOAD  EPLOC=TTYNAME                                            00000009
000094                               47+         CNOP  0,4                                                      00400002
000094 4100 B0A0      00134          48+         LA    0,TTYNAME          LOAD PARAMETER INTO REG 0             00800002
000098 1B11                          49+         SR    1,1                SHOW NO DCB PRESENT                   01000002
00009A 0A08                          50+         SVC   8                                                        01200002
00009C 5000 B0A8      0013C          51          ST    R0,TTYRTN                                                00000010
                                     52 *                                                                       00000011
0000A0 D203 B0C4 B1BC 00158 00250    53          MVC   FUNC,=C'STRT'                                            00000012
0000A6 4110 B0AC      00140          54          LA    R1,R1PARM                                                00000013
0000AA 58F0 B0A8      0013C          55          L     R15,TTYRTN                                               00000014

         3270 TTY TEST DRIVER - VER 1.0.0                                                                      PAGE    3



  LOC  OBJECT CODE    ADDR1 ADDR2  STMT   SOURCE STATEMENT                                       ASM 0201 04.17 01/10/11

0000AE 05EF                          56          BALR  R14,R15                                                  00000015
                                     57 *                                                                       00000016
                                     58 ******** LA    R10,25     DEBUG CODE - BREAK OUT AFTER 25 ITTERATIONS   00000017
                            000B0    59 LOOPIO   EQU   *                                                        00000018
0000B0 D24E B0C8 B21E 0015C 002B2    60          MVC   LINEOUT,=CL79'>-------PUT'                               00000019
0000B6 D203 B0C4 B1C0 00158 00254    61          MVC   FUNC,=C'PUT '                                            00000020
0000BC 4110 B0C0      00154          62          LA    R1,R1PARM1                                               00000021
0000C0 58F0 B0A8      0013C          63          L     R15,TTYRTN                                               00000022
0000C4 05EF                          64          BALR  R14,R15                                                  00000023
0000C6 926E B0C8      0015C          65          MVI   LINEOUT,C'>'                                             00000024
0000CA D24D B0C9 B117 0015D 001AB    66          MVC   LINEOUT+1(78),LINEIN                                     00000025
0000D0 D24D B117 B1D0 001AB 00264    67          MVC   LINEIN,=CL78'>'                                          00000026
0000D6 D203 B0C4 B1C4 00158 00258    68          MVC   FUNC,=C'IO  '                                            00000027
0000DC 4110 B0AC      00140          69          LA    R1,R1PARM                                                00000028
0000E0 58F0 B0A8      0013C          70          L     R15,TTYRTN                                               00000029
0000E4 05EF                          71          BALR  R14,R15                                                  00000030
0000E6 95F3 B1B4      00248          72          CLI   TTYAID,C'3'                                              00000031
0000EA 4780 B082      00116          73          BE    EXIT                                                     00000032
0000EE 9240 B165      001F9          74          MVI   ERRMSG,C' '                                              00000033
0000F2 D24D B166 B165 001FA 001F9    75          MVC   ERRMSG+1(L'ERRMSG-1),ERRMSG                              00000034
0000F8 D502 B117 B26D 001AB 00301    76          CLC   LINEIN(3),=C'CLS'                                        00000035
0000FE 4770 B01C      000B0          77          BNE   LOOPIO                                                   00000036
000102 D203 B0C4 B1C8 00158 0025C    78          MVC   FUNC,=C'CLR '                                            00000037
000108 4110 B0C0      00154          79          LA    R1,R1PARM1                                               00000038
00010C 58F0 B0A8      0013C          80          L     R15,TTYRTN                                               00000039
000110 05EF                          81          BALR  R14,R15                                                  00000040
                                     82 ******** BCT   R10,LOOPIO        DEBUG CODE - SEE ABOVE                 00000041
000112 47F0 B01C      000B0          83          B     LOOPIO                                                   00000042
                                     84 *                                                                       00000043
                            00116    85 EXIT     EQU   *                                                        00000044
000116 D203 B0C4 B1CC 00158 00260    86          MVC   FUNC,=C'END '                                            00000045
00011C 4110 B0AC      00140          87          LA    R1,R1PARM                                                00000046
000120 58F0 B0A8      0013C          88          L     R15,TTYRTN                                               00000047
000124 05EF                          89          BALR  R14,R15                                                  00000048
                                     90          ERETURN RC=0                                                   00000049
000126 58D0 D004      00004          91+         L     13,4(0,13)          RESET TO CALLERS SAVE AREA           00000004
00012A 98EC D00C      0000C          92+         LM    14,12,12(13)                      RESTORE THE REGISTERS  00650000
00012E 41F0 0000      00000          93+         LA    15,0(0,0)                         LOAD RETURN CODE       01750000
000132 07FE                          94+         BR    14                                RETURN                 02000000
                                     95 *                                                                       00000050
000134 E3E3E8D9E3D54040              96 TTYNAME  DC    CL8'TTYRTN'                                              00000051
00013C                               97 TTYRTN   DS    A                                                        00000052
000140 00000158                      98 R1PARM   DC    A(FUNC)                                                  00000053
000144 0000015C                      99          DC    A(LINEOUT)                                               00000054
000148 000001AB                     100          DC    A(LINEIN)                                                00000055
00014C 000001F9                     101          DC    A(ERRMSG)                                                00000056
000150 80                           102          DC    AL1(X'80')                                               00000057
000151 000248                       103          DC    AL3(TTYAID)                                              00000058
000154 80                           104 R1PARM1  DC    AL1(X'80')                                               00000059
000155 000158                       105          DC    AL3(FUNC)                                                00000060
000158                              106 FUNC     DS    CL4                                                      00000061
00015C 4040404040404040             107 LINEOUT  DC    CL79' '                                                  00000062
0001AB 4040404040404040             108 LINEIN   DC    CL78' '                                                  00000063
0001F9 E3C8C9E240C9E240             109 ERRMSG   DC    CL79'THIS IS THE PROMPT LINE'                            00000064
000248                              110 TTYAID   DS    CL1                                                      00000065

         3270 TTY TEST DRIVER - VER 1.0.0                                                                      PAGE    4


  LOC  OBJECT CODE    ADDR1 ADDR2  STMT   SOURCE STATEMENT                                       ASM 0201 04.17 01/10/11

000250                              111          LTORG                                                          00000066
000250 E2E3D9E3                     112                =C'STRT'
000254 D7E4E340                     113                =C'PUT '
000258 C9D64040                     114                =C'IO  '
00025C C3D3D940                     115                =C'CLR '
000260 C5D5C440                     116                =C'END '
000264 6E40404040404040             117                =CL78'>'
0002B2 6E60606060606060             118                =CL79'>-------PUT'
000301 C3D3E2                       119                =C'CLS'
                                    120          DROP  R11                                                      00000067
000000                              121          END   TTYDEMO                                                  00000068

                                                  RELOCATION DICTIONARY                                        PAGE    5


POS.ID   REL.ID   FLAGS   ADDRESS                                                                ASM 0201 04.17 01/10/11

 0001     0001      0C     000140
 0001     0001      0C     000144
 0001     0001      0C     000148
 0001     0001      0C     00014C
 0001     0001      08     000151
 0001     0001      08     000155

                                                  CROSS-REFERENCE                                              PAGE    6


SYMBOL    LEN   VALUE   DEFN    REFERENCES                                                       ASM 0201 04.17 01/10/11

ERRMSG   00079 000001F9 00109  00074 00075 00075 00075 00101
EXIT     00001 00000116 00085  00073
FUNC     00004 00000158 00106  00053 00061 00068 00078 00086 00098 00105
IDS0001  00001 00000038 00012  00036
ID10001  00004 00000000 00005  00012 00031
ID20001  00008 00000005 00007  00006
ID30001  00002 00000080 00014  00006
ID40001  00001 00000080 00031  00005
LINEIN   00078 000001AB 00108  00066 00067 00076 00100
LINEOUT  00079 0000015C 00107  00060 00065 00066 00099
LOOPIO   00001 000000B0 00059  00077 00083
R0       00001 00000000 00015  00051
R1       00001 00000001 00016  00054 00062 00069 00079 00087
R1PARM   00004 00000140 00098  00054 00069 00087
R1PARM1  00001 00000154 00104  00062 00079
R11      00001 0000000B 00026  00039 00040 00120
R14      00001 0000000E 00029  00056 00064 00071 00081 00089
R15      00001 0000000F 00030  00055 00056 00063 00064 00070 00071 00080 00081 00088 00089
TTYAID   00001 00000248 00110  00072 00103
TTYDEMO  00001 00000000 00003  00121
TTYNAME  00008 00000134 00096  00048
TTYRTN   00004 0000013C 00097  00051 00055 00063 00070 00080 00088

                                                  LITERAL CROSS-REFERENCE                                      PAGE    7


SYMBOL    LEN   VALUE   DEFN    REFERENCES                                                       ASM 0201 04.17 01/10/11

=C'STRT' 00004 00000250 00112  00053
=C'PUT ' 00004 00000254 00113  00061
=C'IO  ' 00004 00000258 00114  00068
=C'CLR ' 00004 0000025C 00115  00078
=C'END ' 00004 00000260 00116  00086
=CL78'>' 00078 00000264 00117  00067
=CL79'>-------PUT'
         00079 000002B2 00118  00060
=C'CLS'  00003 00000301 00119  00076

                                                  ASSEMBLER DIAGNOSTICS AND STATISTICS                         PAGE    8


                                                                                                 ASM 0201 04.17 01/10/11

NO STATEMENTS FLAGGED IN THIS ASSEMBLY
HIGHEST SEVERITY WAS    0
OPTIONS FOR THIS ASSEMBLY
  ALIGN, ALOGIC, BUFSIZE(STD), NODECK, ESD, FLAG(0), LINECOUNT(55), LIST, NOMCALL, YFLAG, WORKSIZE(2097152)
  NOMLOGIC, NONUMBER, OBJECT, NORENT, RLD, NOSTMT, NOLIBMAC, NOTERMINAL, NOTEST, XREF(SHORT)
  SYSPARM()
WORK FILE BUFFER SIZE/NUMBER = 6654/ 1
TOTAL RECORDS READ FROM SYSTEM INPUT         68
TOTAL RECORDS READ FROM SYSTEM LIBRARY      840
TOTAL RECORDS PUNCHED                        18
TOTAL RECORDS PRINTED                       187


 F64-LEVEL LINKAGE EDITOR OPTIONS SPECIFIED XREF,LET,LIST
          DEFAULT OPTION(S) USED -  SIZE=(98304,55296)



                                                CROSS REFERENCE TABLE


  CONTROL SECTION                       ENTRY

    NAME    ORIGIN  LENGTH                NAME   LOCATION     NAME   LOCATION     NAME   LOCATION     NAME   LOCATION
  TTYDEMO       00     304




  LOCATION  REFERS TO SYMBOL  IN CONTROL SECTION             LOCATION  REFERS TO SYMBOL  IN CONTROL SECTION

 ENTRY ADDRESS       00

 TOTAL LENGTH       308
****TTYASM    DOES NOT EXIST BUT HAS BEEN ADDED TO DATA SET
AUTHORIZATION CODE IS         0.


  CB545 V2 LVL78 01MAY72                 IBM OS AMERICAN NATIONAL STANDARD COBOL                       DATE JAN 10,1911


   1


00001   000100 ID DIVISION.                                                     00000001
00002   000200 PROGRAM-ID.  TTYCOB.                                             00000002
00003   000300***************************************************************** 00000003
00004   000400*                                                               * 00000004
00005   000500* THIS CODE IS PLACED IN THE PUBLIC DOMAIN AND MAY BE FREELY    * 00000005
00006   000600* USED AND INCORPORATED INTO DERIVED WORKS AS LONG AS           * 00000006
00007   000700* ATTRIBUTION TO THE ORIGINAL AUTHORSHIP REMAINS IN ANY         * 00000007
00008   000800* DISTRIBUTED COPIES OF THE COBOL SOURCE.                       * 00000008
00009   000900*                                                               * 00000009
00010   001000*                                                               * 00000010
00011   001100* RELEASE DECEMBER, 2009  BY ED LISS                            * 00000011
00012   001200* HTTP://HERCULES.CLEMPORIUM.COM                                * 00000012
00013   001300*                                                               * 00000013
00014   001400***************************************************************** 00000014
00015   001500                                                                  00000015
00016   001600 ENVIRONMENT DIVISION.                                            00000016
00017   001700 INPUT-OUTPUT SECTION.                                            00000017
00018   001800 DATA DIVISION.                                                   00000018
00019   001900 FILE SECTION.                                                    00000019
00020   002000 WORKING-STORAGE SECTION.                                         00000020
00021   002100 01  FILLER PIC X(32)  VALUE '***** START DYNALOAD WKSTG *****'.  00000021
00022   002200 01  WS-MODULE-BLK-1.                                             00000022
00023   002300     05  WS-MODULE-NAME1     PIC X(8)   VALUE 'TTYRTN  '.         00000023
00024   002400     05  WS-MODULE-ADDR      PIC X(4)   VALUE LOW-VALUES.         00000024
00025   002500     05  WS-CALL-MODE1       PIC X      VALUE 'K'.                00000025
00026   002600     05  FILLER              PIC XXX    VALUE LOW-VALUES.         00000026
00027   002700 01  FILLER PIC X(32)  VALUE '***** START TTYRTN PARM    *****'.  00000027
00028   002800 01  TTY-PARM   COPY TTYPARM.                                     00000028
00029 C 000100***************************************************************** 00000001
00030 C 000200*                                                               * 00000002
00031 C 000300*   TTYPARM - PARM AREA FOR TTY3270.                            * 00000003
00032 C 000400*                                                               * 00000004
00033 C 000500***************************************************************** 00000005
00034 C 000600 01  TTY-PARM.                                                    00000006
00035 C 000700     05  TTY-FUNC-CD         PIC X(4).                            00000007
00036 C 000800         88  TTY-FUNC-STRT       VALUE 'STRT'.                    00000008
00037 C 000900         88  TTY-FUNC-END        VALUE 'END '.                    00000009
00038 C 001000         88  TTY-FUNC-CLR        VALUE 'CLR '.                    00000010
00039 C 001100         88  TTY-FUNC-PUT        VALUE 'PUT '.                    00000011
00040 C 001200         88  TTY-FUNC-IO         VALUE 'IO  '.                    00000012
00041 C 001300         88  TTY-FUNC-PUT-GET    VALUE 'PG  '.                    00000013
00042 C 001400     05  TTY-LINE-OUT        PIC X(79).                           00000014
00043 C 001500     05  TTY-LINE-IN         PIC X(78).                           00000015
00044 C 001600     05  TTY-ERR-MSG         PIC X(79).                           00000016
00045 C 001700     05  TTY-AID-CD          PIC X.                               00000017
00046   002900 01  WS-AID-CODE  COPY AIDCODES.                                  00000029
00047 C 000100***************************************************************   00000001
00048 C 000200*    AID CODES FOR MAP3270                                        00000002
00049 C 000300***************************************************************   00000003
00050 C 000400 01  WS-AID-CODE.                                                 00000004
00051 C 000500     05  AIDENTER PIC X  VALUE ','.                               00000005
00052 C 000600     05  AIDCLEAR PIC X  VALUE '-'.                               00000006
00053 C 000700     05  AIDTSTRQ PIC X  VALUE '0'.                               00000007
00054 C 000800     05  AIDPFK01 PIC X  VALUE '1'.                               00000008

   2


00055 C 000900     05  AIDPFK02 PIC X  VALUE '2'.                               00000009
00056 C 001000     05  AIDPFK03 PIC X  VALUE '3'.                               00000010
00057 C 001100     05  AIDPFK04 PIC X  VALUE '4'.                               00000011
00058 C 001200     05  AIDPFK05 PIC X  VALUE '5'.                               00000012
00059 C 001300     05  AIDPFK06 PIC X  VALUE '6'.                               00000013
00060 C 001400     05  AIDPFK07 PIC X  VALUE '7'.                               00000014
00061 C 001500     05  AIDPFK08 PIC X  VALUE '8'.                               00000015
00062 C 001600     05  AIDPFK09 PIC X  VALUE '9'.                               00000016
00063 C 001700     05  AIDPFK10 PIC X  VALUE ':'.                               00000017
00064 C 001800     05  AIDPFK11 PIC X  VALUE '#'.                               00000018
00065 C 001900     05  AIDPFK12 PIC X  VALUE '@'.                               00000019
00066 C 002000     05  AIDPFK13 PIC X  VALUE 'A'.                               00000020
00067 C 002100     05  AIDPFK14 PIC X  VALUE 'B'.                               00000021
00068 C 002200     05  AIDPFK15 PIC X  VALUE 'C'.                               00000022
00069 C 002300     05  AIDPFK16 PIC X  VALUE 'D'.                               00000023
00070 C 002400     05  AIDPFK17 PIC X  VALUE 'E'.                               00000024
00071 C 002500     05  AIDPFK18 PIC X  VALUE 'F'.                               00000025
00072 C 002600     05  AIDPFK19 PIC X  VALUE 'G'.                               00000026
00073 C 002700     05  AIDPFK20 PIC X  VALUE 'H'.                               00000027
00074 C 002800     05  AIDPFK21 PIC X  VALUE 'I'.                               00000028
00075 C 002900     05  AIDPFK22 PIC X  VALUE 'C'.                               00000029
00076 C 003000     05  AIDPFK23 PIC X  VALUE '.'.                               00000030
00077 C 003100     05  AIDPFK24 PIC X  VALUE '<'.                               00000031
00078 C 003200     05  AIDPA1   PIC X  VALUE '%'.                               00000032
00079 C 003300     05  AIDPA2   PIC X  VALUE '>'.                               00000033
00080 C 003400     05  AIDPA3   PIC X  VALUE ','.                               00000034
00081 C 003500**************************************************************    00000035

   3


00082   003100 PROCEDURE DIVISION.                                              00000031
00083   003200     MOVE 'STRT'  TO TTY-FUNC-CD.                                 00000032
00084   003300 TEST-AGAIN.                                                      00000033
00085   003400     PERFORM 9999-DYNA-CALL-1.                                    00000034
00086   003500*                                                                 00000035
00087   003600     MOVE 'PUT '               TO TTY-FUNC-CD.                    00000036
00088   003700     MOVE 'HELLO WORLD!'       TO TTY-LINE-OUT.                   00000037
00089   003800     MOVE SPACES               TO TTY-LINE-IN.                    00000038
00090   003900     MOVE SPACES               TO TTY-ERR-MSG.                    00000039
00091   004000     PERFORM 9999-DYNA-CALL-1.                                    00000040
00092   004100*                                                                 00000041
00093   004200     MOVE 'PUT '               TO TTY-FUNC-CD.                    00000042
00094   004300     MOVE 'TTY3270 COBOL HERE' TO TTY-LINE-OUT.                   00000043
00095   004400     MOVE SPACES               TO TTY-LINE-IN.                    00000044
00096   004500     MOVE SPACES               TO TTY-ERR-MSG.                    00000045
00097   004600     PERFORM 9999-DYNA-CALL-1.                                    00000046
00098   004700*                                                                 00000047
00099   004800     MOVE 'PUT '               TO TTY-FUNC-CD.                    00000048
00100   004900     MOVE 'TYPE SOME STUFF   ' TO TTY-LINE-OUT.                   00000049
00101   005000     MOVE SPACES               TO TTY-LINE-IN.                    00000050
00102   005100     MOVE SPACES               TO TTY-ERR-MSG.                    00000051
00103   005200     PERFORM 9999-DYNA-CALL-1.                                    00000052
00104   005300*                                                                 00000053
00105   005400     MOVE 'PRESS PFK3 TO EXIT' TO TTY-LINE-IN.                    00000054
00106   005500     MOVE SPACES               TO TTY-LINE-OUT.                   00000055
00107   005600     MOVE 'PRESS PFK3 TO EXIT' TO TTY-ERR-MSG.                    00000056
00108   005700     PERFORM 1000-ECHO-LINE UNTIL TTY-AID-CD = AIDPFK03.          00000057
00109   005800*                                                                 00000058
00110   005900     MOVE 'PG  '               TO TTY-FUNC-CD.                    00000059
00111   006000     MOVE 'YES'                TO TTY-LINE-IN.                    00000060
00112   006100     MOVE 'ARE YOU SURE?'      TO TTY-LINE-OUT.                   00000061
00113   006200     MOVE 'PRESS PFK3 TO EXIT' TO TTY-ERR-MSG.                    00000062
00114   006300     PERFORM 9999-DYNA-CALL-1.                                    00000063
00115   006400     IF TTY-AID-CD = AIDPFK03 AND TTY-LINE-IN = 'YES'             00000064
00116   006500         NEXT SENTENCE                                            00000065
00117   006600     ELSE                                                         00000066
00118   006700         MOVE 'CLR '           TO TTY-FUNC-CD                     00000067
00119   006800         GO TO TEST-AGAIN.                                        00000068
00120   006900*                                                                 00000069
00121   007000     MOVE 'END '  TO TTY-FUNC-CD.                                 00000070
00122   007100     PERFORM 9999-DYNA-CALL-1.                                    00000071
00123   007200     STOP RUN.                                                    00000072
00124   007300 1000-ECHO-LINE.                                                  00000073
00125   007400     MOVE TTY-LINE-IN TO TTY-LINE-OUT.                            00000074
00126   007500     MOVE '>'         TO TTY-LINE-IN.                             00000075
00127   007600     MOVE 'IO  '      TO TTY-FUNC-CD.                             00000076
00128   007700     PERFORM 9999-DYNA-CALL-5.                                    00000077
00129   007800     MOVE SPACES      TO TTY-ERR-MSG.                             00000078
00130   007900***************************************************************** 00000079
00131   008000*                                                               * 00000080
00132   008100*   NOTE - NOTE THESE CALLS ARE FUNCTIONALLY EQUIVALENT WHEN    * 00000081
00133   008200*          USING THE FIELDS DEFINED IN THE COPY ITEM TTYPARM.   * 00000082
00134   008300*                                                               * 00000083
00135   008400*   I HAVE CODED BOTH DYNAMIC AND STATIC CALL EXAMPLES.  YOU    * 00000084
00136   008500*   CANNOT MIX DYNAMIC AND STATIC CALLS TO THE TTYRTN MODULE    * 00000085
00137   008600*   BECAUSE THIS WILL RESULT IN TWO COPIES OF THE MODULE IN     * 00000086
00138   008700*   MEMORY.  THEY WILL NOT SHARE THE WORKING STORAGE AND YOU    * 00000087

   4


00139   008800*   WILL GET SOME UNUSUAL RESULTS.                              * 00000088
00140   008900*                                                               * 00000089
00141   009000***************************************************************** 00000090
00142   009100 9999-DYNA-CALL-1.                                                00000091
00143   009200     CALL 'DYNALOAD' USING WS-MODULE-BLK-1                        00000092
00144   009300                           TTY-PARM.                              00000093
00145   009400**** CALL 'TTYRTN'   USING TTY-PARM.    <== STATIC CALL.          00000094
00146   009500 9999-DYNA-CALL-5.                                                00000095
00147   009600     CALL 'DYNALOAD' USING WS-MODULE-BLK-1                        00000096
00148   009700**** CALL 'TTYRTN'   USING              <-- STATIC CALL.          00000097
00149   009800                           TTY-FUNC-CD                            00000098
00150   009900                           TTY-LINE-OUT                           00000099
00151   010000                           TTY-LINE-IN                            00000100
00152   010100                           TTY-ERR-MSG                            00000101
00153   010200                           TTY-AID-CD.                            00000102

   5



                                                  CONDENSED LISTING

 83      MOVE       0004C4                    85      PERFORM    0004CA                    87      MOVE       0004E8
 88      MOVE       0004EE                    89      MOVE       0004FE                    90      MOVE       000508
 91      PERFORM    000512                    93      MOVE       000530                    94      MOVE       000536
 95      MOVE       000546                    96      MOVE       000550                    97      PERFORM    00055A
 99      MOVE       000578                    100     MOVE       00057E                    101     MOVE       00058E
 102     MOVE       000598                    103     PERFORM    0005A2                    105     MOVE       0005C0
 106     MOVE       0005D0                    107     MOVE       0005DA                    108     PERFORM    0005EA
 110     MOVE       000614                    111     MOVE       00061A                    112     MOVE       00062A
 113     MOVE       00063A                    114     PERFORM    00064A                    115     IF         000668
 118     ELSE       000694                    118     MOVE       000694                    119     GO         00069A
 121     MOVE       0006A0                    122     PERFORM    0006A6                    123     STOP       0006C4
 125     MOVE       0006CA                    126     MOVE       0006D4                    127     MOVE       0006E4
 128     PERFORM    0006EA                    129     MOVE       000708                    143     CALL       000718
 147     CALL       000740



*STATISTICS*     SOURCE RECORDS =   153     DATA DIVISION STATEMENTS =    52     PROCEDURE DIVISION STATEMENTS =    40
*OPTIONS IN EFFECT*     SIZE = 2097152  BUF = 1048576  LINECNT = 57  SPACE1, FLAGW,   SEQ,   SOURCE
*OPTIONS IN EFFECT*     NODMAP, NOPMAP,   CLIST,   SUPMAP, NOXREF,   LOAD, NODECK, APOST, NOTRUNC,   LIB,   VERB
*OPTIONS IN EFFECT*       ZWB


 F64-LEVEL LINKAGE EDITOR OPTIONS SPECIFIED LIST,XREF,LET
          DEFAULT OPTION(S) USED -  SIZE=(65536,38912)



                                                CROSS REFERENCE TABLE


  CONTROL SECTION                       ENTRY

    NAME    ORIGIN  LENGTH                NAME   LOCATION     NAME   LOCATION     NAME   LOCATION     NAME   LOCATION
  TTYCOB        00     83A
  DYNALOAD*    840     12C
  ILBOSTP0*    970      35
                                        ILBOSTP1     986



  LOCATION  REFERS TO SYMBOL  IN CONTROL SECTION             LOCATION  REFERS TO SYMBOL  IN CONTROL SECTION
      400            ILBOSTP0        ILBOSTP0                     404            ILBOSTP1        ILBOSTP0
      408            DYNALOAD        DYNALOAD
 ENTRY ADDRESS       00

 TOTAL LENGTH       9A8
****TTYCOB    NOW REPLACED IN DATA SET
AUTHORIZATION CODE IS         0.


                                                                                                            PAGE      1
VERSION 5.5                                     OS/360 PL/I COMPILER (F)                                    DATE 11.010


PL/I F COMPILER OPTIONS SPECIFIED ARE AS FOLLOWS--

     NODECK,LOAD,MACRO


THE COMPLETE LIST OF OPTIONS USED DURING THIS COMPILATION IS--   EBCDIC
                                                                 CHAR60
                                                                 MACRO
                                                                 SOURCE2
                                                               NOMACDCK
                                                                 COMP
                                                                 SOURCE
                                                               NOATR
                                                               NOXREF
                                                               NOEXTREF
                                                               NOLIST
                                                                 LOAD
                                                               NODECK
                                                                 FLAGW
                                                               NOSTMT
                                                                 SIZE=0127600
                                                                 LINECNT=050
                                                                 OPT=01
                                                                 SORMGIN=(002,072)
                                                               NOEXTDIC
                                                               NONEST
                                                                 OPLIST
                                                                 SYNCHKT


*OPTIONS IN EFFECT*     EBCDIC,CHAR60,MACRO,SOURCE2,NOMACDCK,COMP,SOURCE,NOATR,NOXREF,NOEXTREF,NOLIST,LOAD,
*OPTIONS IN EFFECT*     NODECK,FLAGW,NOSTMT,SIZE=0127600,LINECNT=050,OPT=01,SORMGIN=(002,072),NOEXTDIC,
*OPTIONS IN EFFECT*     NONEST,OPLIST,SYNCHKT

           /*** TTYPLI - DEMO TTY3270 ****/                                       00000001                  PAGE      2


   COMPILE-TIME MACRO PROCESSOR
   MACRO SOURCE2 LISTING

     1    /*** TTYPLI - DEMO TTY3270 ****/                                       00000001
     2   -/********************************************************************  00000002
     3    *                                                                   *  00000003
     4    *  TTYPLI - THIS ROUTINE DEMONSTRATES USING TTYRTN OR TTYRTNP       *  00000004
     5    *                                                                   *  00000005
     6    *  NOTE - FOR DYNAMIC CALLS, YOU CAN USE TTYRTN WITH DYNALDA OR     *  00000006
     7    *         TTYRTNP WITH DYNALDP FOR TTY SIMULATION.                  *  00000007
     8    *         FOR STATIC CALLS, YOU MUST USE TTYRTNP.                   *  00000008
     9    *                                                                   *  00000009
    10    ********************************************************************/  00000010
    11   -TTYPLI:PROC OPTIONS(MAIN);                                             00000011
    12        DECLARE                                                            00000012
    13           1  WS_MODULE_BLK,                                               00000013
    14              5  WS_MODULE_NAME1     CHAR(8)   INIT('TTYRTNP'),            00000014
    15              5  WS_MODULE_ADDR      FIXED BIN(31) INIT(0),                00000015
    16              5  WS_CALL_MODE1       CHAR(1)   INIT('K'),                  00000016
    17              5  FILLER              CHAR(3)   INIT((3)' ');               00000017
    18                                                                           00000018
    19        %INCLUDE TTYPARM;                                                  00000019
    20        %INCLUDE AIDCODES;                                                 00000020
    21   1    PUT SKIP LIST('STARTING TTYPLI USING ',WS_MODULE_NAME1);           00000021
    22        PUT SKIP;  /* FORCE STREAM IO BUFFER TO FLUSH. OTHERWISE           00000022
    23                      PREVIOUS PUT WILL NOT SHOW UNTIL AFTER               00000023
    24                      FULL SCREEN OPERATIONS END */                        00000024
    25        TTY_FUNC = TTYFUNC_STRT;                                           00000025
    26        CALL CALL_3270_IO;                                                 00000026
    27                                                                           00000027
    28        TTY_LINE_OUT = 'HELLO WORLD';                                      00000028
    29        TTY_LINE_IN  = '>';                                                00000029
    30        TTY_ERR_MSG  = ' ';                                                00000030
    31        TTY_FUNC = TTYFUNC_PUT;                                            00000031
    32        CALL CALL_3270_IO;                                                 00000032
    33                                                                           00000033
    34        TTY_LINE_OUT = 'TTY3270 PLI HERE';                                 00000034
    35        TTY_LINE_IN  = '>';                                                00000035
    36        TTY_ERR_MSG  = ' ';                                                00000036
    37        TTY_FUNC = TTYFUNC_PUT;                                            00000037
    38        CALL CALL_3270_IO;                                                 00000038
    39                                                                           00000039
    40        TTY_LINE_OUT = 'TYPE SOME STUFF';                                  00000040
    41        TTY_LINE_IN  = '>';                                                00000041
    42        TTY_ERR_MSG  = ' ';                                                00000042
    43        TTY_FUNC = TTYFUNC_PUT;                                            00000043
    44        CALL CALL_3270_IO;                                                 00000044

           /*** TTYPLI - DEMO TTY3270 ****/                                       00000001                  PAGE      3


   MACRO SOURCE2 LISTING

    45        TTY_ERR_MSG  = 'PRESS PFK3 TO EXIT';                               00000045
    46                                                                           00000046
    47        DO WHILE(TTY_AID_CD ^= AIDPFK03);                                  00000047
    48            TTY_LINE_OUT = TTY_LINE_IN;                                    00000048
    49            TTY_LINE_IN  = '>';                                            00000049
    50            TTY_FUNC = TTYFUNC_IO;                                         00000050
    51            CALL CALL_3270_IO;                                             00000051
    52            TTY_ERR_MSG  = ' ';                                            00000052
    53        END;                                                               00000053
    54        TTY_FUNC = TTYFUNC_END;                                            00000054
    55        CALL CALL_3270_IO;                                                 00000055
    56    CALL_3270_IO:PROC;                                                     00000056
    57        CALL DYNALDP(WS_MODULE_BLK,                                        00000057
    58                     TTY_CNTL);                                            00000058
    59      /* FOR STATIC CALL, USE CALL TTYRTNP(TTY_CNTL); */                   00000059
    60    END CALL_3270_IO;                                                      00000060
    61    END TTYPLI;                                                            00000061


   INCLUDED TEXT FOLLOWS FROM DD.MEMBER =  SYSLIB  .TTYPARM

    62    /******************************************************************    00000001
    63    *                                                                 *    00000002
    64    *   TTYPARM - PL/I INTERFACE ARE TO TTY3270 ROUTINE               *    00000003
    65    *                                                                 *    00000004
    66    *                                                                 *    00000005
    67    ******************************************************************/    00000006
    68                                                                           00000007
    69        DECLARE                                                            00000008
    70             (TTYFUNC_STRT             INIT('STRT'),                       00000009
    71              TTYFUNC_CLR              INIT('CLR '),                       00000010
    72              TTYFUNC_END              INIT('END '),                       00000011
    73              TTYFUNC_IO               INIT('IO  '),                       00000012
    74              TTYFUNC_PUTGET           INIT('PG  '),                       00000013
    75              TTYFUNC_PUT              INIT('PUT ')) STATIC CHAR(4),       00000014
    76                                                                           00000015
    77            1  TTY_CNTL,                                                   00000016
    78              5  TTY_FUNC               CHAR(4)        INIT((4)' '),       00000017
    79              5  TTY_LINE_OUT           CHAR(79)       INIT((79)' '),      00000018
    80              5  TTY_LINE_IN            CHAR(78)       INIT((78)' '),      00000019
    81              5  TTY_ERR_MSG            CHAR(79)       INIT((79)' '),      00000020
    82              5  TTY_AID_CD             CHAR(1)        INIT(' ');          00000021
    83                                                                           00000022
    84    /*******************************************************************/  00000023

           /*** TTYPLI - DEMO TTY3270 ****/                                       00000001                  PAGE      4


   MACRO SOURCE2 LISTING

   INCLUDED TEXT FOLLOWS FROM DD.MEMBER =  SYSLIB  .AIDCODES

    85    /*******************************************************************   00000001
    86       AID CODES FOR MAP3270                                               00000002
    87    *******************************************************************/   00000003
    88    DECLARE 1 AIDCODES STATIC,                                             00000004
    89              5 AIDENTER CHAR(1) INIT(','),                                00000005
    90              5 AIDCLEAR CHAR(1) INIT('-'),                                00000006
    91              5 AIDTSTRQ CHAR(1) INIT('0'),                                00000007
    92              5 AIDPFK01 CHAR(1) INIT('1'),                                00000008
    93              5 AIDPFK02 CHAR(1) INIT('2'),                                00000009
    94              5 AIDPFK03 CHAR(1) INIT('3'),                                00000010
    95              5 AIDPFK04 CHAR(1) INIT('4'),                                00000011
    96              5 AIDPFK05 CHAR(1) INIT('5'),                                00000012
    97              5 AIDPFK06 CHAR(1) INIT('6'),                                00000013
    98              5 AIDPFK07 CHAR(1) INIT('7'),                                00000014
    99              5 AIDPFK08 CHAR(1) INIT('8'),                                00000015
   100              5 AIDPFK09 CHAR(1) INIT('9'),                                00000016
   101              5 AIDPFK10 CHAR(1) INIT(':'),                                00000017
   102              5 AIDPFK11 CHAR(1) INIT('#'),                                00000018
   103              5 AIDPFK12 CHAR(1) INIT('@'),                                00000019
   104              5 AIDPFK13 CHAR(1) INIT('A'),                                00000020
   105              5 AIDPFK14 CHAR(1) INIT('B'),                                00000021
   106              5 AIDPFK15 CHAR(1) INIT('C'),                                00000022
   107              5 AIDPFK16 CHAR(1) INIT('D'),                                00000023
   108              5 AIDPFK17 CHAR(1) INIT('E'),                                00000024
   109              5 AIDPFK18 CHAR(1) INIT('F'),                                00000025
   110              5 AIDPFK19 CHAR(1) INIT('G'),                                00000026
   111              5 AIDPFK20 CHAR(1) INIT('H'),                                00000027
   112              5 AIDPFK21 CHAR(1) INIT('I'),                                00000028
   113              5 AIDPFK22 CHAR(1) INIT('C'),                                00000029
   114              5 AIDPFK23 CHAR(1) INIT('.'),                                00000030
   115              5 AIDPFK24 CHAR(1) INIT('<'),                                00000031
   116              5 AIDPA1   CHAR(1) INIT('%'),                                00000032
   117              5 AIDPA2   CHAR(1) INIT('>'),                                00000033
   118              5 AIDPA3   CHAR(1) INIT(',');                                00000034
   119    /*****************************************************************/    00000035


   NO ERROR OR WARNING CONDITION HAS BEEN DETECTED FOR THIS MACRO PASS.

           /*** TTYPLI - DEMO TTY3270 ****/                                       00000001                  PAGE      5


                    SOURCE LISTING.



                     /*** TTYPLI - DEMO TTY3270 ****/                                           1
                     /********************************************************************      2
                     *                                                                   *      2
                     *  TTYPLI - THIS ROUTINE DEMONSTRATES USING TTYRTN OR TTYRTNP       *      2
                     *                                                                   *      2
                     *  NOTE - FOR DYNAMIC CALLS, YOU CAN USE TTYRTN WITH DYNALDA OR     *      2
                     *         TTYRTNP WITH DYNALDP FOR TTY SIMULATION.                  *      2
                     *         FOR STATIC CALLS, YOU MUST USE TTYRTNP.                   *      2
                     *                                                                   *      2
                     ********************************************************************/      2
                                                                                               10
     1               TTYPLI:PROC OPTIONS(MAIN);                                                11
     2                   DECLARE                                                               12
                            1  WS_MODULE_BLK,                                                  13
                               5  WS_MODULE_NAME1     CHAR(8)   INIT('TTYRTNP'),               14
                               5  WS_MODULE_ADDR      FIXED BIN(31) INIT(0),                   15
                               5  WS_CALL_MODE1       CHAR(1)   INIT('K'),                     16
                               5  FILLER              CHAR(3)   INIT((3)' ');                  17
                                                                                               18
                     /******************************************************************       62
                     *                                                                 *       62
                     *   TTYPARM - PL/I INTERFACE ARE TO TTY3270 ROUTINE               *       62
                     *                                                                 *       62
                     *                                                                 *       62
                     ******************************************************************/       62
                                                                                               67
                                                                                               68
     3                   DECLARE                                                               69
                              (TTYFUNC_STRT             INIT('STRT'),                          70
                               TTYFUNC_CLR              INIT('CLR '),                          71
                               TTYFUNC_END              INIT('END '),                          72
                               TTYFUNC_IO               INIT('IO  '),                          73
                               TTYFUNC_PUTGET           INIT('PG  '),                          74
                               TTYFUNC_PUT              INIT('PUT ')) STATIC CHAR(4),          75
                                                                                               76
                             1  TTY_CNTL,                                                      77
                               5  TTY_FUNC               CHAR(4)        INIT((4)' '),          78
                               5  TTY_LINE_OUT           CHAR(79)       INIT((79)' '),         79
                               5  TTY_LINE_IN            CHAR(78)       INIT((78)' '),         80
                               5  TTY_ERR_MSG            CHAR(79)       INIT((79)' '),         81
                               5  TTY_AID_CD             CHAR(1)        INIT(' ');             82
                                                                                               83
                     /*******************************************************************/     84

           /*** TTYPLI - DEMO TTY3270 ****/                                       00000001                  PAGE      6


                     /*******************************************************************      85
                        AID CODES FOR MAP3270                                                  85
                     *******************************************************************/      85
                                                                                               87
     4               DECLARE 1 AIDCODES STATIC,                                                88
                               5 AIDENTER CHAR(1) INIT(','),                                   89
                               5 AIDCLEAR CHAR(1) INIT('-'),                                   90
                               5 AIDTSTRQ CHAR(1) INIT('0'),                                   91
                               5 AIDPFK01 CHAR(1) INIT('1'),                                   92
                               5 AIDPFK02 CHAR(1) INIT('2'),                                   93
                               5 AIDPFK03 CHAR(1) INIT('3'),                                   94
                               5 AIDPFK04 CHAR(1) INIT('4'),                                   95
                               5 AIDPFK05 CHAR(1) INIT('5'),                                   96
                               5 AIDPFK06 CHAR(1) INIT('6'),                                   97
                               5 AIDPFK07 CHAR(1) INIT('7'),                                   98
                               5 AIDPFK08 CHAR(1) INIT('8'),                                   99
                               5 AIDPFK09 CHAR(1) INIT('9'),                                  100
                               5 AIDPFK10 CHAR(1) INIT(':'),                                  101
                               5 AIDPFK11 CHAR(1) INIT('#'),                                  102
                               5 AIDPFK12 CHAR(1) INIT('@'),                                  103
                               5 AIDPFK13 CHAR(1) INIT('A'),                                  104
                               5 AIDPFK14 CHAR(1) INIT('B'),                                  105
                               5 AIDPFK15 CHAR(1) INIT('C'),                                  106
                               5 AIDPFK16 CHAR(1) INIT('D'),                                  107
                               5 AIDPFK17 CHAR(1) INIT('E'),                                  108
                               5 AIDPFK18 CHAR(1) INIT('F'),                                  109
                               5 AIDPFK19 CHAR(1) INIT('G'),                                  110
                               5 AIDPFK20 CHAR(1) INIT('H'),                                  111
                               5 AIDPFK21 CHAR(1) INIT('I'),                                  112
                               5 AIDPFK22 CHAR(1) INIT('C'),                                  113
                               5 AIDPFK23 CHAR(1) INIT('.'),                                  114
                               5 AIDPFK24 CHAR(1) INIT('<'),                                  115
                               5 AIDPA1   CHAR(1) INIT('%'),                                  116
                               5 AIDPA2   CHAR(1) INIT('>'),                                  117
                               5 AIDPA3   CHAR(1) INIT(',');                                  118
                     /*****************************************************************/      119
     5                   PUT SKIP LIST('STARTING TTYPLI USING ',WS_MODULE_NAME1);              21
     6                   PUT SKIP;  /* FORCE STREAM IO BUFFER TO FLUSH. OTHERWISE              22
                                       PREVIOUS PUT WILL NOT SHOW UNTIL AFTER                  22
                                       FULL SCREEN OPERATIONS END */                           22
                                                                                               24
     7                   TTY_FUNC = TTYFUNC_STRT;                                              25
     8                   CALL CALL_3270_IO;                                                    26
                                                                                               27
     9                   TTY_LINE_OUT = 'HELLO WORLD';                                         28
    10                   TTY_LINE_IN  = '>';                                                   29
    11                   TTY_ERR_MSG  = ' ';                                                   30

           /*** TTYPLI - DEMO TTY3270 ****/                                       00000001                  PAGE      7


    12                   TTY_FUNC = TTYFUNC_PUT;                                               31
    13                   CALL CALL_3270_IO;                                                    32
                                                                                               33
    14                   TTY_LINE_OUT = 'TTY3270 PLI HERE';                                    34
    15                   TTY_LINE_IN  = '>';                                                   35
    16                   TTY_ERR_MSG  = ' ';                                                   36
    17                   TTY_FUNC = TTYFUNC_PUT;                                               37
    18                   CALL CALL_3270_IO;                                                    38
                                                                                               39
    19                   TTY_LINE_OUT = 'TYPE SOME STUFF';                                     40
    20                   TTY_LINE_IN  = '>';                                                   41
    21                   TTY_ERR_MSG  = ' ';                                                   42
    22                   TTY_FUNC = TTYFUNC_PUT;                                               43
    23                   CALL CALL_3270_IO;                                                    44
    24                   TTY_ERR_MSG  = 'PRESS PFK3 TO EXIT';                                  45
                                                                                               46
    25                   DO WHILE(TTY_AID_CD ^= AIDPFK03);                                     47
    26                       TTY_LINE_OUT = TTY_LINE_IN;                                       48
    27                       TTY_LINE_IN  = '>';                                               49
    28                       TTY_FUNC = TTYFUNC_IO;                                            50
    29                       CALL CALL_3270_IO;                                                51
    30                       TTY_ERR_MSG  = ' ';                                               52
    31                   END;                                                                  53
    32                   TTY_FUNC = TTYFUNC_END;                                               54
    33                   CALL CALL_3270_IO;                                                    55
    34               CALL_3270_IO:PROC;                                                        56
    35                   CALL DYNALDP(WS_MODULE_BLK,                                           57
                                      TTY_CNTL);                                               58
                       /* FOR STATIC CALL, USE CALL TTYRTNP(TTY_CNTL); */                      59
    36               END CALL_3270_IO;                                                         60
    37               END TTYPLI;                                                               61

           /*** TTYPLI - DEMO TTY3270 ****/                                       00000001                  PAGE      8


          STORAGE REQUIREMENTS.
          ----------------------

          THE STORAGE AREA FOR THE PROCEDURE LABELLED TTYPLI IS 504 BYTES LONG.

          THE STORAGE AREA (IN STATIC) FOR THE PROCEDURE LABELLED CALL_3270_IO IS 168 BYTES LONG.

          THE PROGRAM CSECT IS NAMED TTYPLI   AND IS 762 BYTES LONG.

          THE STATIC  CSECT IS NAMED *TTYPLIA AND IS 696 BYTES LONG.


*STATISTICS*     MACRO RECORDS =      119,SOURCE RECORDS =      121,PROG TEXT STMNTS =       37,OBJECT BYTES =      762

           /*** TTYPLI - DEMO TTY3270 ****/                                       00000001                  PAGE      9


TABLE OF OFFSETS AND STATEMENT NUMBERS WITHIN PROCEDURE          CALL_3270_IO

OFFSET (HEX)  0000 003C 005E
STATEMENT NO    34   35   36


TABLE OF OFFSETS AND STATEMENT NUMBERS WITHIN PROCEDURE          TTYPLI

OFFSET (HEX)  0000 00CC 00F8 0108 010E 0118 0124 0130 013C 0142 014C 0158 0164 0170 0176 0180 018C 0198 01A4 01AA 01B4
STATEMENT NO     1    5    6    7    8    9   10   11   12   13   14   15   16   17   18   19   20   21   22   23   24

OFFSET (HEX)  01C0 01CA 01D4 01E0 01E6 01F0 01FC 0200 0206 0210
STATEMENT NO    25   26   27   28   29   30   31   32   33   37

           /*** TTYPLI - DEMO TTY3270 ****/                                       00000001                  PAGE     10


    COMPILER DIAGNOSTICS.




 WARNINGS.


    IEM0227I          NO FILE/STRING OPTION SPECIFIED IN ONE OR MORE GET/PUT STATEMENTS. SYSIN/SYSPRINT HAS BEEN


                      ASSUMED IN EACH CASE.





 END OF DIAGNOSTICS.


AUXILIARY STORAGE WILL NOT BE USED FOR DICTIONARY WHEN SIZE =  70K


COMPILE TIME         .00 MINS

ELAPSED TIME         .00 MINS


 F64-LEVEL LINKAGE EDITOR OPTIONS SPECIFIED XREF,LIST
          DEFAULT OPTION(S) USED -  SIZE=(65536,38912)



                                                CROSS REFERENCE TABLE


  CONTROL SECTION                       ENTRY

    NAME    ORIGIN  LENGTH                NAME   LOCATION     NAME   LOCATION     NAME   LOCATION     NAME   LOCATION
  TTYPLI        00     2FA
  *TTYPLIA     300     2B8
  IHEMAIN      5B8       4
  IHENTRY      5C0       C
  IHESPRT      5D0      38
  DYNALDP *    608     12C
  IHEIOB  *    738     1E0
                                        IHEIOBA      738    IHEIOBB      740    IHEIOBC      748    IHEIOBD      750
                                        IHEIOBE      758    IHEIOBT      840
  IHEERR  *    918     745
                                        IHEERRD      918    IHEERRC      922    IHEERRB      92C    IHEERRA      936
                                        IHEERRE      FC6
  IHEIOP  *   1060     1F7
                                        IHEIOPA     1060    IHEIOPB     1062    IHEIOPC     1066
  IHEOCL  *   1258     580
                                        IHEOCLA     1258    IHEOCLB     125A    IHEOCLC     125C    IHEOCLD     125E
  IHEABN  *   17D8       C
                                        IHEABND     17D8
  IHEM91  *   17E8     178
                                        IHEM91B     17E8    IHEM91A     17F0    IHEM91C     1902
  IHETER  *   1960     110
                                        IHETERA     1960
  IHEIOF  *   1A70     2DC
                                        IHEIOFB     1A70    IHEIOFA     1A72    IHEITAZ     1D0E    IHEITAX     1D1A
                                        IHEITAA     1D2E
  IHELDO  *   1D50     418
                                        IHELDOA     1D50    IHELDOB     1D52    IHELDOC     1D56
  IHEDNC  *   2168     2B2
                                        IHEDNCA     2168
  IHEVSB  *   2420      CE
                                        IHEVSBA     2420
  IHEVSC  *   24F0      AC
                                        IHEVSCA     24F0
  IHEDMA  *   25A0      F8
                                        IHEDMAA     25A0
  IHEUPA  *   2698      E8
                                        IHEUPAA     2698    IHEUPAB     2702
  IHEVQC  *   2780     268
                                        IHEVQCA     2780
  IHEVSE  *   29E8     15D
                                        IHEVSEA     29E8    IHEVSEB     29EA
  IHEVSF  *   2B48      EC
                                        IHEVSFA     2B48
  IHEVFA  *   2C38     16C



    NAME    ORIGIN  LENGTH                NAME   LOCATION     NAME   LOCATION     NAME   LOCATION     NAME   LOCATION
                                        IHEVFAA     2C38
  IHEVFB  *   2DA8      F0
                                        IHEVFBA     2DA8
  IHEVFC  *   2E98      26
                                        IHEVFCA     2E98
  IHEVFD  *   2EC0      66
                                        IHEVFDA     2EC0
  IHEVFE  *   2F28      20
                                        IHEVFEA     2F28
  IHEVKB  *   2F48     30A
                                        IHEVKBA     2F48
  IHEVKC  *   3258     2D0
                                        IHEVKCA     3258
  IHEVKF  *   3528     67C
                                        IHEVKFA     3528
  IHEVKG  *   3BA8     4DE
                                        IHEVKGA     3BA8
  IHEVPA  *   4088     1E0
                                        IHEVPAA     4088
  IHEVPB  *   4268     1A2
                                        IHEVPBA     4268
  IHEVPC  *   4410     1F0
                                        IHEVPCA     4410
  IHEVPD  *   4600     105
                                        IHEVPDA     4600
  IHEVPE  *   4708     278
                                        IHEVPEA     4708
  IHEVPF  *   4980      50
                                        IHEVPFA     4980
  IHEVPG  *   49D0     229
                                        IHEVPGA     49D0
  IHEVPH  *   4C00      B4
                                        IHEVPHA     4C00
  IHESAP  *   4CB8     B1C
                                        IHESADA     4CB8    IHESAPC     4CD2    IHESAPD     4CDA    IHESAPA     4CE2
                                        IHESAPB     4CEA    IHESADF     4CF2    IHESADB     4CFA    IHESADE     4D02
                                        IHESAFC     4D0A    IHESAFA     4D12    IHESAFB     4D1A    IHESAFD     4D22
                                        IHESARA     4D2A    IHESAFQ     4D32    IHESARC     5524    IHESADD     5638
                                        IHESAFF     5672
  IHEBEG  *   57D8      80
                                        IHEBEGN     57D8    IHEBEGA     5818
  IHEDDO  *   5858     288
                                        IHEDDOA     5858    IHEDDOB     585A    IHEDDOC     585C    IHEDDOD     585E
                                        IHEDDOE     5860
  IHEPRT  *   5AE0     308
                                        IHEPRTA     5AE0    IHEPRTB     5AE2
  IHESIZ  *   5DE8       C
                                        IHESIZE     5DE8
  IHETAB  *   5DF8       C
                                        IHETABS     5DF8
  IHEDDP  *   5E08     28C
                                        IHEDDPA     5E08    IHEDDPB     5E0A    IHEDDPC     5E0C    IHEDDPD     5E0E



  LOCATION  REFERS TO SYMBOL  IN CONTROL SECTION             LOCATION  REFERS TO SYMBOL  IN CONTROL SECTION
       10            *TTYPLIA        *TTYPLIA                     320            IHESADA         IHESAP
      324            IHESADB         IHESAP                       328            TTYPLI          TTYPLI
      32C            TTYPLI          TTYPLI                       358            TTYPLI          TTYPLI
      35C            TTYPLI          TTYPLI                       360            IHELDOB         IHELDO
      364            IHEIOBT         IHEIOB                       368            IHEIOBC         IHEIOB
      330            IHESAFA         IHESAP                       36C            DYNALDP         DYNALDP
      370            IHESPRT         IHESPRT                      4D4            IHESPRT         IHESPRT
      4D8            TTYPLI          TTYPLI                       4E0            IHESPRT         IHESPRT
      4E4            TTYPLI          TTYPLI                       5B8            TTYPLI          TTYPLI
      5C8            IHESAPC         IHESAP                       8EC            IHEIOPA         IHEIOP
      8F0            IHEIOPB         IHEIOP                       8F4            IHEIOPC         IHEIOP
      8F8            IHEIOPA         IHEIOP                       8FC            IHEOCLC         IHEOCL
      910            IHEERRB         IHEERR                       914            IHEERRC         IHEERR
     100C            IHEM91A         IHEM91                      1010            IHEM91B         IHEM91
     1014            IHEM91C         IHEM91                      1018            IHEABND         IHEABN
     103C            IHETERA         IHETER                      123C            IHEIOFA         IHEIOF
     1240            IHEERRB         IHEERR                      1244            IHEERRC         IHEERR
     17B8            IHEIOFA         IHEIOF                      17C0            IHEERRB         IHEERR
     17C4            IHEERRC         IHEERR                      1948            IHEERRC         IHEERR
     1D3C            IHEERRB         IHEERR                      1D40            IHEERRC         IHEERR
     2154            IHEERRC         IHEERR                      2158            IHEIOFA         IHEIOF
     215C            IHEVSBA         IHEVSB                      2160            IHEVSCA         IHEVSC
     2164            IHEDNCA         IHEDNC                      23FC            IHEDMAA         IHEDMA
     2400            IHEUPAB         IHEUPA                      2404            IHEVSCA         IHEVSC
     2408            IHEVSEB         IHEVSE                      240C            IHEVQCA         IHEVQC
     260C            IHEVFBA         IHEVFB                      2610            IHEVFCA         IHEVFC
     2618            IHEVFAA         IHEVFA                      261C            IHEVPAA         IHEVPA
     2620            IHEVKGA         IHEVKG                      2624            IHEVPDA         IHEVPD
     2628            IHEVKFA         IHEVKF                      262C            IHEVPBA         IHEVPB
     2630            IHEVPCA         IHEVPC                      265C            IHEVFDA         IHEVFD
     2660            IHEVFEA         IHEVFE                      2668            IHEVPHA         IHEVPH
     266C            IHEVPGA         IHEVPG                      2670            IHEVKCA         IHEVKC
     2674            IHEVPFA         IHEVPF                      2678            IHEVKBA         IHEVKB
     267C            IHEVPEA         IHEVPE                      28D0            IHEVSEB         IHEVSE
     2954            IHEERRC         IHEERR                      2970            IHEERRB         IHEERR
     29C4            IHEVSCA         IHEVSC                      2B38            IHEERRB         IHEERR
     2B3C            IHEERRC         IHEERR                      2C2C            IHEERRC         IHEERR
     2E80            IHEERRB         IHEERR                      3B9C            IHEERRB         IHEERR
     4074            IHEERRB         IHEERR                      4264            IHEERRB         IHEERR
     43E8            IHEERRC         IHEERR                      43F8            IHEERRB         IHEERR
     45E8            IHEERRC         IHEERR                      45EC            IHEERRB         IHEERR
     46F8            IHEERRB         IHEERR                      4968            IHEERRB         IHEERR
     4BEC            IHEERRB         IHEERR                      4CB0            IHEERRB         IHEERR
     56D4            IHEMAIN         IHEMAIN                     56F4            IHEOCLD         IHEOCL
     56F8            IHESIZE         IHESIZ                      56FC            IHEBEGA         IHEBEG
     5780            IHEITAX         IHEIOF                      5784            IHEERRB         IHEERR
     5788            IHEERRC         IHEERR                      578C            IHETABS         IHETAB
     5790            IHEITAZ         IHEIOF                      4F25            IHEERRA         IHEERR
     57C4            IHEPRTA         IHEPRT                      57C8            IHEPRTB         IHEPRT
     57CC            IHEDDOD         IHEDDO                      57D0            IHEOCLC         IHEOCL
     5AC0            IHEIOFA         IHEIOF                      5AC4            IHELDOC         IHELDO
     5AC8            IHEPRTB         IHEPRT                      5ACC            IHEDDPA         IHEDDP



  LOCATION  REFERS TO SYMBOL  IN CONTROL SECTION             LOCATION  REFERS TO SYMBOL  IN CONTROL SECTION
     5AD0            IHEDDPB         IHEDDP                      5AD4            IHEDDPC         IHEDDP
     5AD8            IHEDDPD         IHEDDP                      5DB4            IHEOCLA         IHEOCL
     5DB8            IHEIOFA         IHEIOF                      5DBC            IHESPRT         IHESPRT

  LOCATION   1A6C REQUESTS CUMULATIVE PSEUDO REGISTER LENGTH

 PSEUDO REGISTERS


    NAME    ORIGIN  LENGTH        NAME    ORIGIN  LENGTH        NAME    ORIGIN  LENGTH        NAME    ORIGIN  LENGTH
  IHEQINV       00       4      IHEQERR        4       4      IHEQTIC        8       4      IHEQLWF        C       4
  IHEQSLA       10       4      IHEQLW0       14       4      *TTYPLIB      18       4      *TTYPLIC      1C       4
  IHEQSPR       20       4      IHEQLSA       24       4      IHEQLW1       28       4      IHEQLW2       2C       4
  IHEQLW3       30       4      IHEQLW4       34       4      IHEQLWE       38       4      IHEQLCA       3C       4
  IHEQVDA       40       4      IHEQFVD       44       4      IHEQFOP       48       4      IHEQCFL       4C       8
  IHEQADC       54       4      IHEQLPR       58       4      IHEQXLV       5C       8      IHEQEVT       64       8

  IHEQSAR       6C       4      IHEQRTC       70       4      IHEQSFC       74       4
 TOTAL LENGTH OF PSEUDO REGISTERS      78
 ENTRY ADDRESS      5C0

 TOTAL LENGTH      6098
****TTYPLI    NOW REPLACED IN DATA SET
AUTHORIZATION CODE IS         0.


                        HH        HH  EEEEEEEEEEEE  RRRRRRRRRRR    CCCCCCCCCC     00000000         11        CCCCCCCCCC
                       HH        HH  EEEEEEEEEEEE  RRRRRRRRRRRR  CCCCCCCCCCCC   0000000000       111       CCCCCCCCCCCC
                      HH        HH  EE            RR        RR  CC        CC  00      0000     1111       CC        CC
                     HH        HH  EE            RR        RR  CC            00     00 00       11       CC
                    HH        HH  EE            RR        RR  CC            00    00  00       11       CC
                   HHHHHHHHHHHH  EEEEEEEE      RRRRRRRRRRRR  CC            00   00   00       11       CC
                  HHHHHHHHHHHH  EEEEEEEE      RRRRRRRRRRR   CC            00  00    00       11       CC
                 HH        HH  EE            RR    RR      CC            00 00     00       11       CC
                HH        HH  EE            RR     RR     CC            0000      00       11       CC
               HH        HH  EE            RR      RR    CC        CC  000       00       11       CC        CC
              HH        HH  EEEEEEEEEEEE  RR       RR   CCCCCCCCCCCC   0000000000    1111111111   CCCCCCCCCCCC
             HH        HH  EEEEEEEEEEEE  RR        RR   CCCCCCCCCC     00000000     1111111111    CCCCCCCCCC



                    JJJJJJJJJJ   6666666666    6666666666        11        6666666666                  AAAAAAAAAA
                    JJJJJJJJJJ  666666666666  666666666666      111       666666666666                AAAAAAAAAAAA
                        JJ      66        66  66        66     1111       66        66                AA        AA
                        JJ      66            66                 11       66                          AA        AA
                        JJ      66            66                 11       66                          AA        AA
                        JJ      66666666666   66666666666        11       66666666666                 AAAAAAAAAAAA
                        JJ      666666666666  666666666666       11       666666666666                AAAAAAAAAAAA
                        JJ      66        66  66        66       11       66        66                AA        AA
                  JJ    JJ      66        66  66        66       11       66        66                AA        AA
                  JJ    JJ      66        66  66        66       11       66        66                AA        AA
                  JJJJJJJJ      666666666666  666666666666   1111111111   666666666666                AA        AA
                   JJJJJJ        6666666666    6666666666    1111111111    6666666666                 AA        AA


****A   END   JOB 6616  HERC01C   ME                    ROOM        4.17.35 AM 10 JAN 11  PRINTER1  SYS BSP1  JOB 6616   END   A****
****A   END   JOB 6616  HERC01C   ME                    ROOM        4.17.35 AM 10 JAN 11  PRINTER1  SYS BSP1  JOB 6616   END   A****
****A   END   JOB 6616  HERC01C   ME                    ROOM        4.17.35 AM 10 JAN 11  PRINTER1  SYS BSP1  JOB 6616   END   A****
****A   END   JOB 6616  HERC01C   ME                    ROOM        4.17.35 AM 10 JAN 11  PRINTER1  SYS BSP1  JOB 6616   END   A****
